TN:
SF:/usr/include/c++/9/ext/aligned_buffer.h
FN:64,_ZN9__gnu_cxx16__aligned_membufIN7doctest6StringEE7_M_addrEv
FNDA:0,_ZN9__gnu_cxx16__aligned_membufIN7doctest6StringEE7_M_addrEv
FN:64,_ZN9__gnu_cxx16__aligned_membufISt6vectorIN7doctest16SubcaseSignatureESaIS3_EEE7_M_addrEv
FNDA:0,_ZN9__gnu_cxx16__aligned_membufISt6vectorIN7doctest16SubcaseSignatureESaIS3_EEE7_M_addrEv
FN:64,_ZN9__gnu_cxx16__aligned_membufIN7doctest6detail8TestCaseEE7_M_addrEv
FNDA:2,_ZN9__gnu_cxx16__aligned_membufIN7doctest6detail8TestCaseEE7_M_addrEv
FN:64,_ZN9__gnu_cxx16__aligned_membufISt4pairIKS1_IiN7doctest6StringEEPFPNS2_9IReporterERKNS2_14ContextOptionsEEEE7_M_addrEv
FNDA:9,_ZN9__gnu_cxx16__aligned_membufISt4pairIKS1_IiN7doctest6StringEEPFPNS2_9IReporterERKNS2_14ContextOptionsEEEE7_M_addrEv
FN:68,_ZNK9__gnu_cxx16__aligned_membufIN7doctest6StringEE7_M_addrEv
FNDA:0,_ZNK9__gnu_cxx16__aligned_membufIN7doctest6StringEE7_M_addrEv
FN:68,_ZNK9__gnu_cxx16__aligned_membufISt6vectorIN7doctest16SubcaseSignatureESaIS3_EEE7_M_addrEv
FNDA:0,_ZNK9__gnu_cxx16__aligned_membufISt6vectorIN7doctest16SubcaseSignatureESaIS3_EEE7_M_addrEv
FN:68,_ZNK9__gnu_cxx16__aligned_membufIN7doctest6detail8TestCaseEE7_M_addrEv
FNDA:1,_ZNK9__gnu_cxx16__aligned_membufIN7doctest6detail8TestCaseEE7_M_addrEv
FN:68,_ZNK9__gnu_cxx16__aligned_membufISt4pairIKS1_IiN7doctest6StringEEPFPNS2_9IReporterERKNS2_14ContextOptionsEEEE7_M_addrEv
FNDA:5,_ZNK9__gnu_cxx16__aligned_membufISt4pairIKS1_IiN7doctest6StringEEPFPNS2_9IReporterERKNS2_14ContextOptionsEEEE7_M_addrEv
FN:72,_ZN9__gnu_cxx16__aligned_membufIN7doctest6StringEE6_M_ptrEv
FNDA:0,_ZN9__gnu_cxx16__aligned_membufIN7doctest6StringEE6_M_ptrEv
FN:72,_ZN9__gnu_cxx16__aligned_membufISt6vectorIN7doctest16SubcaseSignatureESaIS3_EEE6_M_ptrEv
FNDA:0,_ZN9__gnu_cxx16__aligned_membufISt6vectorIN7doctest16SubcaseSignatureESaIS3_EEE6_M_ptrEv
FN:72,_ZN9__gnu_cxx16__aligned_membufIN7doctest6detail8TestCaseEE6_M_ptrEv
FNDA:2,_ZN9__gnu_cxx16__aligned_membufIN7doctest6detail8TestCaseEE6_M_ptrEv
FN:72,_ZN9__gnu_cxx16__aligned_membufISt4pairIKS1_IiN7doctest6StringEEPFPNS2_9IReporterERKNS2_14ContextOptionsEEEE6_M_ptrEv
FNDA:9,_ZN9__gnu_cxx16__aligned_membufISt4pairIKS1_IiN7doctest6StringEEPFPNS2_9IReporterERKNS2_14ContextOptionsEEEE6_M_ptrEv
FN:76,_ZNK9__gnu_cxx16__aligned_membufIN7doctest6StringEE6_M_ptrEv
FNDA:0,_ZNK9__gnu_cxx16__aligned_membufIN7doctest6StringEE6_M_ptrEv
FN:76,_ZNK9__gnu_cxx16__aligned_membufISt6vectorIN7doctest16SubcaseSignatureESaIS3_EEE6_M_ptrEv
FNDA:0,_ZNK9__gnu_cxx16__aligned_membufISt6vectorIN7doctest16SubcaseSignatureESaIS3_EEE6_M_ptrEv
FN:76,_ZNK9__gnu_cxx16__aligned_membufIN7doctest6detail8TestCaseEE6_M_ptrEv
FNDA:1,_ZNK9__gnu_cxx16__aligned_membufIN7doctest6detail8TestCaseEE6_M_ptrEv
FN:76,_ZNK9__gnu_cxx16__aligned_membufISt4pairIKS1_IiN7doctest6StringEEPFPNS2_9IReporterERKNS2_14ContextOptionsEEEE6_M_ptrEv
FNDA:5,_ZNK9__gnu_cxx16__aligned_membufISt4pairIKS1_IiN7doctest6StringEEPFPNS2_9IReporterERKNS2_14ContextOptionsEEEE6_M_ptrEv
DA:64,0
DA:65,0
DA:64,0
DA:65,0
DA:64,2
DA:65,2
DA:64,9
DA:65,9
DA:68,0
DA:69,0
DA:68,0
DA:69,0
DA:68,1
DA:69,1
DA:68,5
DA:69,5
DA:72,0
DA:73,0
DA:72,0
DA:73,0
DA:72,2
DA:73,2
DA:72,9
DA:73,9
DA:76,0
DA:77,0
DA:76,0
DA:77,0
DA:76,1
DA:77,1
DA:76,5
DA:77,5
end_of_record
SF:/usr/include/c++/9/bits/stl_algo.h
FN:78,_ZSt22__move_median_to_firstIN9__gnu_cxx17__normal_iteratorIPPKN7doctest6detail8TestCaseESt6vectorIS6_SaIS6_EEEENS0_5__ops15_Iter_comp_iterIPFbS6_S6_EEEEvT_SH_SH_SH_T0_
FNDA:0,_ZSt22__move_median_to_firstIN9__gnu_cxx17__normal_iteratorIPPKN7doctest6detail8TestCaseESt6vectorIS6_SaIS6_EEEENS0_5__ops15_Iter_comp_iterIPFbS6_S6_EEEEvT_SH_SH_SH_T0_
FN:112,_ZSt9__find_ifIN9__gnu_cxx17__normal_iteratorIPPKN7doctest6detail20IExceptionTranslatorESt6vectorIS6_SaIS6_EEEENS0_5__ops16_Iter_equals_valIKS6_EEET_SG_SG_T0_St26random_access_iterator_tag
FNDA:0,_ZSt9__find_ifIN9__gnu_cxx17__normal_iteratorIPPKN7doctest6detail20IExceptionTranslatorESt6vectorIS6_SaIS6_EEEENS0_5__ops16_Iter_equals_valIKS6_EEET_SG_SG_T0_St26random_access_iterator_tag
FN:159,_ZSt9__find_ifIN9__gnu_cxx17__normal_iteratorIPPKN7doctest6detail20IExceptionTranslatorESt6vectorIS6_SaIS6_EEEENS0_5__ops16_Iter_equals_valIKS6_EEET_SG_SG_T0_
FNDA:0,_ZSt9__find_ifIN9__gnu_cxx17__normal_iteratorIPPKN7doctest6detail20IExceptionTranslatorESt6vectorIS6_SaIS6_EEEENS0_5__ops16_Iter_equals_valIKS6_EEET_SG_SG_T0_
FN:1667,_ZSt13__heap_selectIN9__gnu_cxx17__normal_iteratorIPPKN7doctest6detail8TestCaseESt6vectorIS6_SaIS6_EEEENS0_5__ops15_Iter_comp_iterIPFbS6_S6_EEEEvT_SH_SH_T0_
FNDA:0,_ZSt13__heap_selectIN9__gnu_cxx17__normal_iteratorIPPKN7doctest6detail8TestCaseESt6vectorIS6_SaIS6_EEEENS0_5__ops15_Iter_comp_iterIPFbS6_S6_EEEEvT_SH_SH_T0_
FN:1820,_ZSt25__unguarded_linear_insertIN9__gnu_cxx17__normal_iteratorIPPKN7doctest6detail8TestCaseESt6vectorIS6_SaIS6_EEEENS0_5__ops14_Val_comp_iterIPFbS6_S6_EEEEvT_T0_
FNDA:0,_ZSt25__unguarded_linear_insertIN9__gnu_cxx17__normal_iteratorIPPKN7doctest6detail8TestCaseESt6vectorIS6_SaIS6_EEEENS0_5__ops14_Val_comp_iterIPFbS6_S6_EEEEvT_T0_
FN:1839,_ZSt16__insertion_sortIN9__gnu_cxx17__normal_iteratorIPPKN7doctest6detail8TestCaseESt6vectorIS6_SaIS6_EEEENS0_5__ops15_Iter_comp_iterIPFbS6_S6_EEEEvT_SH_T0_
FNDA:1,_ZSt16__insertion_sortIN9__gnu_cxx17__normal_iteratorIPPKN7doctest6detail8TestCaseESt6vectorIS6_SaIS6_EEEENS0_5__ops15_Iter_comp_iterIPFbS6_S6_EEEEvT_SH_T0_
FN:1862,_ZSt26__unguarded_insertion_sortIN9__gnu_cxx17__normal_iteratorIPPKN7doctest6detail8TestCaseESt6vectorIS6_SaIS6_EEEENS0_5__ops15_Iter_comp_iterIPFbS6_S6_EEEEvT_SH_T0_
FNDA:0,_ZSt26__unguarded_insertion_sortIN9__gnu_cxx17__normal_iteratorIPPKN7doctest6detail8TestCaseESt6vectorIS6_SaIS6_EEEENS0_5__ops15_Iter_comp_iterIPFbS6_S6_EEEEvT_SH_T0_
FN:1879,_ZSt22__final_insertion_sortIN9__gnu_cxx17__normal_iteratorIPPKN7doctest6detail8TestCaseESt6vectorIS6_SaIS6_EEEENS0_5__ops15_Iter_comp_iterIPFbS6_S6_EEEEvT_SH_T0_
FNDA:1,_ZSt22__final_insertion_sortIN9__gnu_cxx17__normal_iteratorIPPKN7doctest6detail8TestCaseESt6vectorIS6_SaIS6_EEEENS0_5__ops15_Iter_comp_iterIPFbS6_S6_EEEEvT_SH_T0_
FN:1895,_ZSt21__unguarded_partitionIN9__gnu_cxx17__normal_iteratorIPPKN7doctest6detail8TestCaseESt6vectorIS6_SaIS6_EEEENS0_5__ops15_Iter_comp_iterIPFbS6_S6_EEEET_SH_SH_SH_T0_
FNDA:0,_ZSt21__unguarded_partitionIN9__gnu_cxx17__normal_iteratorIPPKN7doctest6detail8TestCaseESt6vectorIS6_SaIS6_EEEENS0_5__ops15_Iter_comp_iterIPFbS6_S6_EEEET_SH_SH_SH_T0_
FN:1916,_ZSt27__unguarded_partition_pivotIN9__gnu_cxx17__normal_iteratorIPPKN7doctest6detail8TestCaseESt6vectorIS6_SaIS6_EEEENS0_5__ops15_Iter_comp_iterIPFbS6_S6_EEEET_SH_SH_T0_
FNDA:0,_ZSt27__unguarded_partition_pivotIN9__gnu_cxx17__normal_iteratorIPPKN7doctest6detail8TestCaseESt6vectorIS6_SaIS6_EEEENS0_5__ops15_Iter_comp_iterIPFbS6_S6_EEEET_SH_SH_T0_
FN:1927,_ZSt14__partial_sortIN9__gnu_cxx17__normal_iteratorIPPKN7doctest6detail8TestCaseESt6vectorIS6_SaIS6_EEEENS0_5__ops15_Iter_comp_iterIPFbS6_S6_EEEEvT_SH_SH_T0_
FNDA:0,_ZSt14__partial_sortIN9__gnu_cxx17__normal_iteratorIPPKN7doctest6detail8TestCaseESt6vectorIS6_SaIS6_EEEENS0_5__ops15_Iter_comp_iterIPFbS6_S6_EEEEvT_SH_SH_T0_
FN:1939,_ZSt16__introsort_loopIN9__gnu_cxx17__normal_iteratorIPPKN7doctest6detail8TestCaseESt6vectorIS6_SaIS6_EEEElNS0_5__ops15_Iter_comp_iterIPFbS6_S6_EEEEvT_SH_T0_T1_
FNDA:1,_ZSt16__introsort_loopIN9__gnu_cxx17__normal_iteratorIPPKN7doctest6detail8TestCaseESt6vectorIS6_SaIS6_EEEElNS0_5__ops15_Iter_comp_iterIPFbS6_S6_EEEEvT_SH_T0_T1_
FN:1962,_ZSt6__sortIN9__gnu_cxx17__normal_iteratorIPPKN7doctest6detail8TestCaseESt6vectorIS6_SaIS6_EEEENS0_5__ops15_Iter_comp_iterIPFbS6_S6_EEEEvT_SH_T0_
FNDA:1,_ZSt6__sortIN9__gnu_cxx17__normal_iteratorIPPKN7doctest6detail8TestCaseESt6vectorIS6_SaIS6_EEEENS0_5__ops15_Iter_comp_iterIPFbS6_S6_EEEEvT_SH_T0_
FN:3930,_ZSt4findIN9__gnu_cxx17__normal_iteratorIPPKN7doctest6detail20IExceptionTranslatorESt6vectorIS6_SaIS6_EEEES6_ET_SC_SC_RKT0_
FNDA:0,_ZSt4findIN9__gnu_cxx17__normal_iteratorIPPKN7doctest6detail20IExceptionTranslatorESt6vectorIS6_SaIS6_EEEES6_ET_SC_SC_RKT0_
FN:4887,_ZSt4sortIN9__gnu_cxx17__normal_iteratorIPPKN7doctest6detail8TestCaseESt6vectorIS6_SaIS6_EEEEPFbS6_S6_EEvT_SE_T0_
FNDA:1,_ZSt4sortIN9__gnu_cxx17__normal_iteratorIPPKN7doctest6detail8TestCaseESt6vectorIS6_SaIS6_EEEEPFbS6_S6_EEvT_SE_T0_
DA:78,0
DA:81,0
DA:83,0
DA:84,0
DA:85,0
DA:86,0
DA:88,0
DA:90,0
DA:91,0
DA:92,0
DA:93,0
DA:95,0
DA:96,0
DA:112,0
DA:116,0
DA:118,0
DA:120,0
DA:121,0
DA:122,0
DA:124,0
DA:125,0
DA:126,0
DA:128,0
DA:129,0
DA:130,0
DA:132,0
DA:133,0
DA:134,0
DA:137,0
DA:139,0
DA:140,0
DA:141,0
DA:142,0
DA:143,0
DA:144,0
DA:145,0
DA:146,0
DA:147,0
DA:148,0
DA:149,0
DA:150,0
DA:151,0
DA:153,0
DA:159,0
DA:161,0
DA:162,0
DA:1667,0
DA:1671,0
DA:1672,0
DA:1673,0
DA:1674,0
DA:1675,0
DA:1820,0
DA:1824,0
DA:1825,0
DA:1826,0
DA:1827,0
DA:1829,0
DA:1830,0
DA:1831,0
DA:1833,0
DA:1834,0
DA:1839,1
DA:1842,1
DA:1844,1
DA:1846,0
DA:1849,0
DA:1850,0
DA:1851,0
DA:1854,0
DA:1862,0
DA:1865,0
DA:1866,0
DA:1868,0
DA:1879,1
DA:1882,1
DA:1884,0
DA:1885,0
DA:1889,1
DA:1890,1
DA:1895,0
DA:1901,0
DA:1902,0
DA:1903,0
DA:1904,0
DA:1905,0
DA:1906,0
DA:1907,0
DA:1908,0
DA:1909,0
DA:1916,0
DA:1919,0
DA:1920,0
DA:1922,0
DA:1927,0
DA:1932,0
DA:1933,0
DA:1934,0
DA:1939,1
DA:1943,1
DA:1945,0
DA:1947,0
DA:1948,0
DA:1950,0
DA:1952,0
DA:1953,0
DA:1954,0
DA:1962,1
DA:1965,1
DA:1967,1
DA:1968,1
DA:1970,1
DA:1972,1
DA:3930,0
DA:3938,0
DA:3939,0
DA:4887,1
DA:4899,1
DA:4900,1
end_of_record
SF:/usr/include/c++/9/bits/move.h
FN:47,_ZSt11__addressofISt6vectorIN7doctest6StringESaIS2_EEEPT_RS5_
FNDA:18,_ZSt11__addressofISt6vectorIN7doctest6StringESaIS2_EEEPT_RS5_
FN:47,_ZSt11__addressofIN7doctest16SubcaseSignatureEEPT_RS2_
FNDA:0,_ZSt11__addressofIN7doctest16SubcaseSignatureEEPT_RS2_
FN:47,_ZSt11__addressofIN7doctest12_GLOBAL__N_113JUnitReporter17JUnitTestCaseData13JUnitTestCaseEEPT_RS5_
FNDA:0,_ZSt11__addressofIN7doctest12_GLOBAL__N_113JUnitReporter17JUnitTestCaseData13JUnitTestCaseEEPT_RS5_
FN:47,_ZSt11__addressofIN7doctest6StringEEPT_RS2_
FNDA:1,_ZSt11__addressofIN7doctest6StringEEPT_RS2_
FN:47,_ZSt11__addressofIN7doctest12_GLOBAL__N_113JUnitReporter17JUnitTestCaseData16JUnitTestMessageEEPT_RS5_
FNDA:0,_ZSt11__addressofIN7doctest12_GLOBAL__N_113JUnitReporter17JUnitTestCaseData16JUnitTestMessageEEPT_RS5_
FN:47,_ZSt11__addressofINSt7__cxx1112basic_stringIcSt11char_traitsIcESaIcEEEEPT_RS6_
FNDA:0,_ZSt11__addressofINSt7__cxx1112basic_stringIcSt11char_traitsIcESaIcEEEEPT_RS6_
FN:74,_ZSt7forwardIPKN7doctest12TestCaseDataEEOT_RNSt16remove_referenceIS4_E4typeE
FNDA:0,_ZSt7forwardIPKN7doctest12TestCaseDataEEOT_RNSt16remove_referenceIS4_E4typeE
FN:74,_ZSt7forwardISt17_Rb_tree_iteratorISt6vectorIN7doctest16SubcaseSignatureESaIS3_EEEEOT_RNSt16remove_referenceIS7_E4typeE
FNDA:0,_ZSt7forwardISt17_Rb_tree_iteratorISt6vectorIN7doctest16SubcaseSignatureESaIS3_EEEEOT_RNSt16remove_referenceIS7_E4typeE
FN:74,_ZSt7forwardIRKNSt7__cxx1112basic_stringIcSt11char_traitsIcESaIcEEEEOT_RNSt16remove_referenceIS8_E4typeE
FNDA:0,_ZSt7forwardIRKNSt7__cxx1112basic_stringIcSt11char_traitsIcESaIcEEEEOT_RNSt16remove_referenceIS8_E4typeE
FN:74,_ZSt7forwardIPKN7doctest6detail8TestCaseEEOT_RNSt16remove_referenceIS5_E4typeE
FNDA:4,_ZSt7forwardIPKN7doctest6detail8TestCaseEEOT_RNSt16remove_referenceIS5_E4typeE
FN:74,_ZSt7forwardIPN7doctest9IReporterEEOT_RNSt16remove_referenceIS3_E4typeE
FNDA:4,_ZSt7forwardIPN7doctest9IReporterEEOT_RNSt16remove_referenceIS3_E4typeE
FN:74,_ZSt7forwardIRKN7doctest6StringEEOT_RNSt16remove_referenceIS4_E4typeE
FNDA:0,_ZSt7forwardIRKN7doctest6StringEEOT_RNSt16remove_referenceIS4_E4typeE
FN:74,_ZSt7forwardIN7doctest6StringEEOT_RNSt16remove_referenceIS2_E4typeE
FNDA:4,_ZSt7forwardIN7doctest6StringEEOT_RNSt16remove_referenceIS2_E4typeE
FN:74,_ZSt7forwardIPN7doctest13IContextScopeEEOT_RNSt16remove_referenceIS3_E4typeE
FNDA:0,_ZSt7forwardIPN7doctest13IContextScopeEEOT_RNSt16remove_referenceIS3_E4typeE
FN:74,_ZSt7forwardIRKPKN7doctest6detail20IExceptionTranslatorEEOT_RNSt16remove_referenceIS7_E4typeE
FNDA:0,_ZSt7forwardIRKPKN7doctest6detail20IExceptionTranslatorEEOT_RNSt16remove_referenceIS7_E4typeE
FN:74,_ZSt7forwardIRSt17_Rb_tree_iteratorIN7doctest6detail8TestCaseEEEOT_RNSt16remove_referenceIS6_E4typeE
FNDA:1,_ZSt7forwardIRSt17_Rb_tree_iteratorIN7doctest6detail8TestCaseEEEOT_RNSt16remove_referenceIS6_E4typeE
FN:74,_ZSt7forwardIRKN7doctest6detail8TestCaseEEOT_RNSt16remove_referenceIS5_E4typeE
FNDA:7,_ZSt7forwardIRKN7doctest6detail8TestCaseEEOT_RNSt16remove_referenceIS5_E4typeE
FN:74,_ZSt7forwardIRbEOT_RNSt16remove_referenceIS1_E4typeE
FNDA:1,_ZSt7forwardIRbEOT_RNSt16remove_referenceIS1_E4typeE
FN:74,_ZSt7forwardIRSt17_Rb_tree_iteratorISt6vectorIN7doctest16SubcaseSignatureESaIS3_EEEEOT_RNSt16remove_referenceIS8_E4typeE
FNDA:0,_ZSt7forwardIRSt17_Rb_tree_iteratorISt6vectorIN7doctest16SubcaseSignatureESaIS3_EEEEOT_RNSt16remove_referenceIS8_E4typeE
FN:74,_ZSt7forwardIRKSt6vectorIN7doctest16SubcaseSignatureESaIS2_EEEOT_RNSt16remove_referenceIS7_E4typeE
FNDA:0,_ZSt7forwardIRKSt6vectorIN7doctest16SubcaseSignatureESaIS2_EEEOT_RNSt16remove_referenceIS7_E4typeE
FN:74,_ZSt7forwardIRKN7doctest16SubcaseSignatureEEOT_RNSt16remove_referenceIS4_E4typeE
FNDA:0,_ZSt7forwardIRKN7doctest16SubcaseSignatureEEOT_RNSt16remove_referenceIS4_E4typeE
FN:74,_ZSt7forwardIRPFPN7doctest9IReporterERKNS0_14ContextOptionsEEEOT_RNSt16remove_referenceIS9_E4typeE
FNDA:3,_ZSt7forwardIRPFPN7doctest9IReporterERKNS0_14ContextOptionsEEEOT_RNSt16remove_referenceIS9_E4typeE
FN:74,_ZSt7forwardISt4pairIiN7doctest6StringEEEOT_RNSt16remove_referenceIS4_E4typeE
FNDA:3,_ZSt7forwardISt4pairIiN7doctest6StringEEEOT_RNSt16remove_referenceIS4_E4typeE
FN:74,_ZSt7forwardIRPKcEOT_RNSt16remove_referenceIS3_E4typeE
FNDA:3,_ZSt7forwardIRPKcEOT_RNSt16remove_referenceIS3_E4typeE
FN:74,_ZSt7forwardIRiEOT_RNSt16remove_referenceIS1_E4typeE
FNDA:3,_ZSt7forwardIRiEOT_RNSt16remove_referenceIS1_E4typeE
FN:74,_ZSt7forwardIRPSt13_Rb_tree_nodeISt4pairIKS1_IiN7doctest6StringEEPFPNS2_9IReporterERKNS2_14ContextOptionsEEEEEOT_RNSt16remove_referenceISH_E4typeE
FNDA:3,_ZSt7forwardIRPSt13_Rb_tree_nodeISt4pairIKS1_IiN7doctest6StringEEPFPNS2_9IReporterERKNS2_14ContextOptionsEEEEEOT_RNSt16remove_referenceISH_E4typeE
FN:74,_ZSt7forwardIN7doctest12_GLOBAL__N_113JUnitReporter17JUnitTestCaseData16JUnitTestMessageEEOT_RNSt16remove_referenceIS5_E4typeE
FNDA:0,_ZSt7forwardIN7doctest12_GLOBAL__N_113JUnitReporter17JUnitTestCaseData16JUnitTestMessageEEOT_RNSt16remove_referenceIS5_E4typeE
FN:74,_ZSt7forwardIN7doctest12_GLOBAL__N_113JUnitReporter17JUnitTestCaseData13JUnitTestCaseEEOT_RNSt16remove_referenceIS5_E4typeE
FNDA:0,_ZSt7forwardIN7doctest12_GLOBAL__N_113JUnitReporter17JUnitTestCaseData13JUnitTestCaseEEOT_RNSt16remove_referenceIS5_E4typeE
FN:74,_ZSt7forwardINSt7__cxx1112basic_stringIcSt11char_traitsIcESaIcEEEEOT_RNSt16remove_referenceIS6_E4typeE
FNDA:0,_ZSt7forwardINSt7__cxx1112basic_stringIcSt11char_traitsIcESaIcEEEEOT_RNSt16remove_referenceIS6_E4typeE
FN:74,_ZSt7forwardIbEOT_RNSt16remove_referenceIS0_E4typeE
FNDA:4,_ZSt7forwardIbEOT_RNSt16remove_referenceIS0_E4typeE
FN:74,_ZSt7forwardIRSt17_Rb_tree_iteratorIN7doctest6StringEEEOT_RNSt16remove_referenceIS5_E4typeE
FNDA:0,_ZSt7forwardIRSt17_Rb_tree_iteratorIN7doctest6StringEEEOT_RNSt16remove_referenceIS5_E4typeE
FN:74,_ZSt7forwardIRPSt13_Rb_tree_nodeIN7doctest6StringEEEOT_RNSt16remove_referenceIS6_E4typeE
FNDA:0,_ZSt7forwardIRPSt13_Rb_tree_nodeIN7doctest6StringEEEOT_RNSt16remove_referenceIS6_E4typeE
FN:74,_ZSt7forwardIRPSt13_Rb_tree_nodeIN7doctest6detail8TestCaseEEEOT_RNSt16remove_referenceIS7_E4typeE
FNDA:1,_ZSt7forwardIRPSt13_Rb_tree_nodeIN7doctest6detail8TestCaseEEEOT_RNSt16remove_referenceIS7_E4typeE
FN:74,_ZSt7forwardIRPSt18_Rb_tree_node_baseEOT_RNSt16remove_referenceIS3_E4typeE
FNDA:4,_ZSt7forwardIRPSt18_Rb_tree_node_baseEOT_RNSt16remove_referenceIS3_E4typeE
FN:74,_ZSt7forwardIRPSt13_Rb_tree_nodeISt6vectorIN7doctest16SubcaseSignatureESaIS3_EEEEOT_RNSt16remove_referenceIS9_E4typeE
FNDA:0,_ZSt7forwardIRPSt13_Rb_tree_nodeISt6vectorIN7doctest16SubcaseSignatureESaIS3_EEEEOT_RNSt16remove_referenceIS9_E4typeE
FN:74,_ZSt7forwardISt17_Rb_tree_iteratorISt4pairIKS1_IiN7doctest6StringEEPFPNS2_9IReporterERKNS2_14ContextOptionsEEEEEOT_RNSt16remove_referenceISF_E4typeE
FNDA:3,_ZSt7forwardISt17_Rb_tree_iteratorISt4pairIKS1_IiN7doctest6StringEEPFPNS2_9IReporterERKNS2_14ContextOptionsEEEEEOT_RNSt16remove_referenceISF_E4typeE
FN:74,_ZSt7forwardISt17_Rb_tree_iteratorIN7doctest6StringEEEOT_RNSt16remove_referenceIS4_E4typeE
FNDA:0,_ZSt7forwardISt17_Rb_tree_iteratorIN7doctest6StringEEEOT_RNSt16remove_referenceIS4_E4typeE
FN:74,_ZSt7forwardISt17_Rb_tree_iteratorIN7doctest6detail8TestCaseEEEOT_RNSt16remove_referenceIS5_E4typeE
FNDA:1,_ZSt7forwardISt17_Rb_tree_iteratorIN7doctest6detail8TestCaseEEEOT_RNSt16remove_referenceIS5_E4typeE
FN:74,_ZSt7forwardISt4pairIKS0_IiN7doctest6StringEEPFPNS1_9IReporterERKNS1_14ContextOptionsEEEEOT_RNSt16remove_referenceISD_E4typeE
FNDA:21,_ZSt7forwardISt4pairIKS0_IiN7doctest6StringEEPFPNS1_9IReporterERKNS1_14ContextOptionsEEEEOT_RNSt16remove_referenceISD_E4typeE
FN:99,_ZSt4moveIRN7doctest6StringEEONSt16remove_referenceIT_E4typeEOS4_
FNDA:1,_ZSt4moveIRN7doctest6StringEEONSt16remove_referenceIT_E4typeEOS4_
FN:99,_ZSt4moveIRPN7doctest13IContextScopeEEONSt16remove_referenceIT_E4typeEOS5_
FNDA:0,_ZSt4moveIRPN7doctest13IContextScopeEEONSt16remove_referenceIT_E4typeEOS5_
FN:99,_ZSt4moveIRPN7doctest9IReporterEEONSt16remove_referenceIT_E4typeEOS5_
FNDA:1,_ZSt4moveIRPN7doctest9IReporterEEONSt16remove_referenceIT_E4typeEOS5_
FN:99,_ZSt4moveIRPKN7doctest6detail8TestCaseEEONSt16remove_referenceIT_E4typeEOS7_
FNDA:1,_ZSt4moveIRPKN7doctest6detail8TestCaseEEONSt16remove_referenceIT_E4typeEOS7_
FN:99,_ZSt4moveIRNSt12_Vector_baseIN7doctest12_GLOBAL__N_113JUnitReporter17JUnitTestCaseData16JUnitTestMessageESaIS5_EE12_Vector_implEEONSt16remove_referenceIT_E4typeEOSB_
FNDA:0,_ZSt4moveIRNSt12_Vector_baseIN7doctest12_GLOBAL__N_113JUnitReporter17JUnitTestCaseData16JUnitTestMessageESaIS5_EE12_Vector_implEEONSt16remove_referenceIT_E4typeEOSB_
FN:99,_ZSt4moveIRNSt7__cxx1112basic_stringIcSt11char_traitsIcESaIcEEEEONSt16remove_referenceIT_E4typeEOS8_
FNDA:0,_ZSt4moveIRNSt7__cxx1112basic_stringIcSt11char_traitsIcESaIcEEEEONSt16remove_referenceIT_E4typeEOS8_
FN:99,_ZSt4moveIRPKN7doctest12TestCaseDataEEONSt16remove_referenceIT_E4typeEOS6_
FNDA:0,_ZSt4moveIRPKN7doctest12TestCaseDataEEONSt16remove_referenceIT_E4typeEOS6_
FN:99,_ZSt4moveIRSt4pairIKS0_IiN7doctest6StringEEPFPNS1_9IReporterERKNS1_14ContextOptionsEEEEONSt16remove_referenceIT_E4typeEOSF_
FNDA:3,_ZSt4moveIRSt4pairIKS0_IiN7doctest6StringEEPFPNS1_9IReporterERKNS1_14ContextOptionsEEEEONSt16remove_referenceIT_E4typeEOSF_
FN:99,_ZSt4moveIRSaIcEEONSt16remove_referenceIT_E4typeEOS3_
FNDA:0,_ZSt4moveIRSaIcEEONSt16remove_referenceIT_E4typeEOS3_
FN:99,_ZSt4moveIRPFbPKN7doctest6detail8TestCaseES4_EEONSt16remove_referenceIT_E4typeEOS9_
FNDA:2,_ZSt4moveIRPFbPKN7doctest6detail8TestCaseES4_EEONSt16remove_referenceIT_E4typeEOS9_
FN:99,_ZSt4moveIRN9__gnu_cxx5__ops15_Iter_comp_iterIPFbPKN7doctest6detail8TestCaseES7_EEEEONSt16remove_referenceIT_E4typeEOSD_
FNDA:0,_ZSt4moveIRN9__gnu_cxx5__ops15_Iter_comp_iterIPFbPKN7doctest6detail8TestCaseES7_EEEEONSt16remove_referenceIT_E4typeEOSD_
FN:99,_ZSt4moveIRN7doctest12_GLOBAL__N_113JUnitReporter17JUnitTestCaseData13JUnitTestCaseEEONSt16remove_referenceIT_E4typeEOS7_
FNDA:0,_ZSt4moveIRN7doctest12_GLOBAL__N_113JUnitReporter17JUnitTestCaseData13JUnitTestCaseEEONSt16remove_referenceIT_E4typeEOS7_
FN:99,_ZSt4moveIRN7doctest12_GLOBAL__N_113JUnitReporter17JUnitTestCaseData16JUnitTestMessageEEONSt16remove_referenceIT_E4typeEOS7_
FNDA:0,_ZSt4moveIRN7doctest12_GLOBAL__N_113JUnitReporter17JUnitTestCaseData16JUnitTestMessageEEONSt16remove_referenceIT_E4typeEOS7_
FN:182,_ZSt4swapIPKN7doctest6detail8TestCaseEENSt9enable_ifIXsrSt6__and_IJSt6__not_ISt15__is_tuple_likeIT_EESt21is_move_constructibleIS9_ESt18is_move_assignableIS9_EEE5valueEvE4typeERS9_SJ_
FNDA:0,_ZSt4swapIPKN7doctest6detail8TestCaseEENSt9enable_ifIXsrSt6__and_IJSt6__not_ISt15__is_tuple_likeIT_EESt21is_move_constructibleIS9_ESt18is_move_assignableIS9_EEE5valueEvE4typeERS9_SJ_
DA:47,0
DA:48,0
DA:47,0
DA:48,0
DA:47,1
DA:48,1
DA:47,0
DA:48,0
DA:47,0
DA:48,0
DA:47,18
DA:48,18
DA:74,0
DA:75,0
DA:74,0
DA:75,0
DA:74,4
DA:75,4
DA:74,0
DA:75,0
DA:74,0
DA:75,0
DA:74,1
DA:75,1
DA:74,7
DA:75,7
DA:74,1
DA:75,1
DA:74,0
DA:75,0
DA:74,4
DA:75,4
DA:74,0
DA:75,0
DA:74,3
DA:75,3
DA:74,3
DA:75,3
DA:74,3
DA:75,3
DA:74,3
DA:75,3
DA:74,0
DA:75,0
DA:74,4
DA:75,4
DA:74,0
DA:75,0
DA:74,4
DA:75,4
DA:74,0
DA:75,0
DA:74,0
DA:75,0
DA:74,21
DA:75,21
DA:74,0
DA:75,0
DA:74,1
DA:75,1
DA:74,0
DA:75,0
DA:74,3
DA:75,3
DA:74,0
DA:75,0
DA:74,4
DA:75,4
DA:74,1
DA:75,1
DA:74,0
DA:75,0
DA:74,3
DA:75,3
DA:74,0
DA:75,0
DA:74,0
DA:75,0
DA:99,0
DA:100,0
DA:99,0
DA:100,0
DA:99,0
DA:100,0
DA:99,0
DA:100,0
DA:99,2
DA:100,2
DA:99,0
DA:100,0
DA:99,3
DA:100,3
DA:99,0
DA:100,0
DA:99,1
DA:100,1
DA:99,1
DA:100,1
DA:99,1
DA:100,1
DA:99,0
DA:100,0
DA:99,0
DA:100,0
DA:182,0
DA:193,0
DA:194,0
DA:195,0
DA:196,0
end_of_record
SF:/usr/include/c++/9/bits/vector.tcc
FN:109,_ZNSt6vectorIN7doctest12_GLOBAL__N_113JUnitReporter17JUnitTestCaseData13JUnitTestCaseESaIS4_EE12emplace_backIJRKNSt7__cxx1112basic_stringIcSt11char_traitsIcESaIcEEESF_EEERS4_DpOT_
FNDA:0,_ZNSt6vectorIN7doctest12_GLOBAL__N_113JUnitReporter17JUnitTestCaseData13JUnitTestCaseESaIS4_EE12emplace_backIJRKNSt7__cxx1112basic_stringIcSt11char_traitsIcESaIcEEESF_EEERS4_DpOT_
FN:109,_ZNSt6vectorIN7doctest12_GLOBAL__N_113JUnitReporter17JUnitTestCaseData16JUnitTestMessageESaIS4_EE12emplace_backIJRKNSt7__cxx1112basic_stringIcSt11char_traitsIcESaIcEEESF_SF_EEERS4_DpOT_
FNDA:0,_ZNSt6vectorIN7doctest12_GLOBAL__N_113JUnitReporter17JUnitTestCaseData16JUnitTestMessageESaIS4_EE12emplace_backIJRKNSt7__cxx1112basic_stringIcSt11char_traitsIcESaIcEEESF_SF_EEERS4_DpOT_
FN:109,_ZNSt6vectorIN7doctest12_GLOBAL__N_113JUnitReporter17JUnitTestCaseData16JUnitTestMessageESaIS4_EE12emplace_backIJRKNSt7__cxx1112basic_stringIcSt11char_traitsIcESaIcEEESF_EEERS4_DpOT_
FNDA:0,_ZNSt6vectorIN7doctest12_GLOBAL__N_113JUnitReporter17JUnitTestCaseData16JUnitTestMessageESaIS4_EE12emplace_backIJRKNSt7__cxx1112basic_stringIcSt11char_traitsIcESaIcEEESF_EEERS4_DpOT_
FN:109,_ZNSt6vectorIPKN7doctest12TestCaseDataESaIS3_EE12emplace_backIJS3_EEERS3_DpOT_
FNDA:0,_ZNSt6vectorIPKN7doctest12TestCaseDataESaIS3_EE12emplace_backIJS3_EEERS3_DpOT_
FN:109,_ZNSt6vectorIPKN7doctest6detail8TestCaseESaIS4_EE12emplace_backIJS4_EEERS4_DpOT_
FNDA:1,_ZNSt6vectorIPKN7doctest6detail8TestCaseESaIS4_EE12emplace_backIJS4_EEERS4_DpOT_
FN:109,_ZNSt6vectorIPN7doctest9IReporterESaIS2_EE12emplace_backIJS2_EEERS2_DpOT_
FNDA:1,_ZNSt6vectorIPN7doctest9IReporterESaIS2_EE12emplace_backIJS2_EEERS2_DpOT_
FN:109,_ZNSt6vectorIPN7doctest13IContextScopeESaIS2_EE12emplace_backIJS2_EEERS2_DpOT_
FNDA:0,_ZNSt6vectorIPN7doctest13IContextScopeESaIS2_EE12emplace_backIJS2_EEERS2_DpOT_
FN:109,_ZNSt6vectorIN7doctest6StringESaIS1_EE12emplace_backIJS1_EEERS1_DpOT_
FNDA:1,_ZNSt6vectorIN7doctest6StringESaIS1_EE12emplace_backIJS1_EEERS1_DpOT_
FN:340,_ZNSt6vectorIPN7doctest9IReporterESaIS2_EE14_M_insert_rvalEN9__gnu_cxx17__normal_iteratorIPKS2_S4_EEOS2_
FNDA:0,_ZNSt6vectorIPN7doctest9IReporterESaIS2_EE14_M_insert_rvalEN9__gnu_cxx17__normal_iteratorIPKS2_S4_EEOS2_
FN:395,_ZNSt6vectorIPN7doctest9IReporterESaIS2_EE13_M_insert_auxIS2_EEvN9__gnu_cxx17__normal_iteratorIPS2_S4_EEOT_
FNDA:0,_ZNSt6vectorIPN7doctest9IReporterESaIS2_EE13_M_insert_auxIS2_EEvN9__gnu_cxx17__normal_iteratorIPS2_S4_EEOT_
FN:426,_ZNSt6vectorIN7doctest12_GLOBAL__N_113JUnitReporter17JUnitTestCaseData16JUnitTestMessageESaIS4_EE17_M_realloc_insertIJRKNSt7__cxx1112basic_stringIcSt11char_traitsIcESaIcEEESF_EEEvN9__gnu_cxx17__normal_iteratorIPS4_S6_EEDpOT_
FNDA:0,_ZNSt6vectorIN7doctest12_GLOBAL__N_113JUnitReporter17JUnitTestCaseData16JUnitTestMessageESaIS4_EE17_M_realloc_insertIJRKNSt7__cxx1112basic_stringIcSt11char_traitsIcESaIcEEESF_EEEvN9__gnu_cxx17__normal_iteratorIPS4_S6_EEDpOT_
FN:426,_ZNSt6vectorIN7doctest16SubcaseSignatureESaIS1_EE17_M_realloc_insertIJRKS1_EEEvN9__gnu_cxx17__normal_iteratorIPS1_S3_EEDpOT_
FNDA:0,_ZNSt6vectorIN7doctest16SubcaseSignatureESaIS1_EE17_M_realloc_insertIJRKS1_EEEvN9__gnu_cxx17__normal_iteratorIPS1_S3_EEDpOT_
FN:426,_ZNSt6vectorIPKN7doctest6detail20IExceptionTranslatorESaIS4_EE17_M_realloc_insertIJRKS4_EEEvN9__gnu_cxx17__normal_iteratorIPS4_S6_EEDpOT_
FNDA:0,_ZNSt6vectorIPKN7doctest6detail20IExceptionTranslatorESaIS4_EE17_M_realloc_insertIJRKS4_EEEvN9__gnu_cxx17__normal_iteratorIPS4_S6_EEDpOT_
FN:426,_ZNSt6vectorINSt7__cxx1112basic_stringIcSt11char_traitsIcESaIcEEESaIS5_EE17_M_realloc_insertIJRKS5_EEEvN9__gnu_cxx17__normal_iteratorIPS5_S7_EEDpOT_
FNDA:0,_ZNSt6vectorINSt7__cxx1112basic_stringIcSt11char_traitsIcESaIcEEESaIS5_EE17_M_realloc_insertIJRKS5_EEEvN9__gnu_cxx17__normal_iteratorIPS5_S7_EEDpOT_
FN:426,_ZNSt6vectorIN7doctest12_GLOBAL__N_113JUnitReporter17JUnitTestCaseData13JUnitTestCaseESaIS4_EE17_M_realloc_insertIJRKNSt7__cxx1112basic_stringIcSt11char_traitsIcESaIcEEESF_EEEvN9__gnu_cxx17__normal_iteratorIPS4_S6_EEDpOT_
FNDA:0,_ZNSt6vectorIN7doctest12_GLOBAL__N_113JUnitReporter17JUnitTestCaseData13JUnitTestCaseESaIS4_EE17_M_realloc_insertIJRKNSt7__cxx1112basic_stringIcSt11char_traitsIcESaIcEEESF_EEEvN9__gnu_cxx17__normal_iteratorIPS4_S6_EEDpOT_
FN:426,_ZNSt6vectorIN7doctest12_GLOBAL__N_113JUnitReporter17JUnitTestCaseData16JUnitTestMessageESaIS4_EE17_M_realloc_insertIJRKNSt7__cxx1112basic_stringIcSt11char_traitsIcESaIcEEESF_SF_EEEvN9__gnu_cxx17__normal_iteratorIPS4_S6_EEDpOT_
FNDA:0,_ZNSt6vectorIN7doctest12_GLOBAL__N_113JUnitReporter17JUnitTestCaseData16JUnitTestMessageESaIS4_EE17_M_realloc_insertIJRKNSt7__cxx1112basic_stringIcSt11char_traitsIcESaIcEEESF_SF_EEEvN9__gnu_cxx17__normal_iteratorIPS4_S6_EEDpOT_
FN:426,_ZNSt6vectorIPKN7doctest12TestCaseDataESaIS3_EE17_M_realloc_insertIJS3_EEEvN9__gnu_cxx17__normal_iteratorIPS3_S5_EEDpOT_
FNDA:0,_ZNSt6vectorIPKN7doctest12TestCaseDataESaIS3_EE17_M_realloc_insertIJS3_EEEvN9__gnu_cxx17__normal_iteratorIPS3_S5_EEDpOT_
FN:426,_ZNSt6vectorIN7doctest6StringESaIS1_EE17_M_realloc_insertIJRKS1_EEEvN9__gnu_cxx17__normal_iteratorIPS1_S3_EEDpOT_
FNDA:0,_ZNSt6vectorIN7doctest6StringESaIS1_EE17_M_realloc_insertIJRKS1_EEEvN9__gnu_cxx17__normal_iteratorIPS1_S3_EEDpOT_
FN:426,_ZNSt6vectorIPN7doctest13IContextScopeESaIS2_EE17_M_realloc_insertIJS2_EEEvN9__gnu_cxx17__normal_iteratorIPS2_S4_EEDpOT_
FNDA:0,_ZNSt6vectorIPN7doctest13IContextScopeESaIS2_EE17_M_realloc_insertIJS2_EEEvN9__gnu_cxx17__normal_iteratorIPS2_S4_EEDpOT_
FN:426,_ZNSt6vectorIN7doctest6StringESaIS1_EE17_M_realloc_insertIJS1_EEEvN9__gnu_cxx17__normal_iteratorIPS1_S3_EEDpOT_
FNDA:1,_ZNSt6vectorIN7doctest6StringESaIS1_EE17_M_realloc_insertIJS1_EEEvN9__gnu_cxx17__normal_iteratorIPS1_S3_EEDpOT_
FN:426,_ZNSt6vectorIPN7doctest9IReporterESaIS2_EE17_M_realloc_insertIJS2_EEEvN9__gnu_cxx17__normal_iteratorIPS2_S4_EEDpOT_
FNDA:1,_ZNSt6vectorIPN7doctest9IReporterESaIS2_EE17_M_realloc_insertIJS2_EEEvN9__gnu_cxx17__normal_iteratorIPS2_S4_EEDpOT_
FN:426,_ZNSt6vectorIPKN7doctest6detail8TestCaseESaIS4_EE17_M_realloc_insertIJS4_EEEvN9__gnu_cxx17__normal_iteratorIPS4_S6_EEDpOT_
FNDA:1,_ZNSt6vectorIPKN7doctest6detail8TestCaseESaIS4_EE17_M_realloc_insertIJS4_EEEvN9__gnu_cxx17__normal_iteratorIPS4_S6_EEDpOT_
DA:109,0
DA:112,0
DA:115,0
DA:117,0
DA:121,0
DA:123,0
DA:109,1
DA:112,1
DA:115,0
DA:117,0
DA:121,1
DA:123,1
DA:109,1
DA:112,1
DA:115,0
DA:117,0
DA:121,1
DA:123,1
DA:109,1
DA:112,1
DA:115,0
DA:117,0
DA:121,1
DA:123,1
DA:109,0
DA:112,0
DA:115,0
DA:117,0
DA:121,0
DA:123,0
DA:109,0
DA:112,0
DA:115,0
DA:117,0
DA:121,0
DA:123,0
DA:109,0
DA:112,0
DA:115,0
DA:117,0
DA:121,0
DA:123,0
DA:109,0
DA:112,0
DA:115,0
DA:117,0
DA:121,0
DA:123,0
DA:340,0
DA:343,0
DA:344,0
DA:345,0
DA:348,0
DA:349,0
DA:350,0
DA:354,0
DA:356,0
DA:358,0
DA:395,0
DA:405,0
DA:406,0
DA:407,0
DA:412,0
DA:418,0
DA:420,0
DA:426,0
DA:435,0
DA:437,0
DA:438,0
DA:439,0
DA:440,0
DA:441,0
DA:449,0
DA:450,0
DA:456,0
DA:461,0
DA:462,0
DA:464,0
DA:466,0
DA:467,0
DA:500,0
DA:501,0
DA:502,0
DA:503,0
DA:504,0
DA:505,0
DA:426,1
DA:435,1
DA:437,1
DA:438,1
DA:439,1
DA:440,1
DA:441,1
DA:449,1
DA:450,1
DA:456,1
DA:461,1
DA:462,1
DA:464,1
DA:466,1
DA:467,1
DA:500,1
DA:501,1
DA:502,1
DA:503,1
DA:504,1
DA:505,1
DA:426,1
DA:435,1
DA:437,1
DA:438,1
DA:439,1
DA:440,1
DA:441,1
DA:449,1
DA:450,1
DA:456,1
DA:461,1
DA:462,1
DA:464,1
DA:466,1
DA:467,1
DA:500,1
DA:501,1
DA:502,1
DA:503,1
DA:504,1
DA:505,1
DA:426,1
DA:435,1
DA:437,1
DA:438,1
DA:439,1
DA:440,1
DA:441,1
DA:449,1
DA:450,1
DA:456,1
DA:474,1
DA:475,1
DA:477,1
DA:481,1
DA:482,1
DA:485,0
DA:487,0
DA:488,0
DA:489,0
DA:491,0
DA:492,0
DA:493,0
DA:498,1
DA:500,1
DA:501,1
DA:502,1
DA:503,1
DA:504,1
DA:505,1
DA:426,0
DA:435,0
DA:437,0
DA:438,0
DA:439,0
DA:440,0
DA:441,0
DA:449,0
DA:450,0
DA:456,0
DA:461,0
DA:462,0
DA:464,0
DA:466,0
DA:467,0
DA:500,0
DA:501,0
DA:502,0
DA:503,0
DA:504,0
DA:505,0
DA:426,0
DA:435,0
DA:437,0
DA:438,0
DA:439,0
DA:440,0
DA:441,0
DA:449,0
DA:450,0
DA:456,0
DA:474,0
DA:475,0
DA:477,0
DA:481,0
DA:482,0
DA:485,0
DA:487,0
DA:488,0
DA:489,0
DA:491,0
DA:492,0
DA:493,0
DA:498,0
DA:500,0
DA:501,0
DA:502,0
DA:503,0
DA:504,0
DA:505,0
DA:426,0
DA:435,0
DA:437,0
DA:438,0
DA:439,0
DA:440,0
DA:441,0
DA:449,0
DA:450,0
DA:456,0
DA:461,0
DA:462,0
DA:464,0
DA:466,0
DA:467,0
DA:485,0
DA:487,0
DA:488,0
DA:489,0
DA:491,0
DA:492,0
DA:493,0
DA:500,0
DA:501,0
DA:502,0
DA:503,0
DA:504,0
DA:505,0
DA:426,0
DA:435,0
DA:437,0
DA:438,0
DA:439,0
DA:440,0
DA:441,0
DA:449,0
DA:450,0
DA:456,0
DA:461,0
DA:462,0
DA:464,0
DA:466,0
DA:467,0
DA:485,0
DA:487,0
DA:488,0
DA:489,0
DA:491,0
DA:492,0
DA:493,0
DA:500,0
DA:501,0
DA:502,0
DA:503,0
DA:504,0
DA:505,0
DA:426,0
DA:435,0
DA:437,0
DA:438,0
DA:439,0
DA:440,0
DA:441,0
DA:449,0
DA:450,0
DA:456,0
DA:461,0
DA:462,0
DA:464,0
DA:466,0
DA:467,0
DA:485,0
DA:487,0
DA:488,0
DA:489,0
DA:491,0
DA:492,0
DA:493,0
DA:500,0
DA:501,0
DA:502,0
DA:503,0
DA:504,0
DA:505,0
DA:426,0
DA:435,0
DA:437,0
DA:438,0
DA:439,0
DA:440,0
DA:441,0
DA:449,0
DA:450,0
DA:456,0
DA:461,0
DA:462,0
DA:464,0
DA:466,0
DA:467,0
DA:485,0
DA:487,0
DA:488,0
DA:489,0
DA:491,0
DA:492,0
DA:493,0
DA:500,0
DA:501,0
DA:502,0
DA:503,0
DA:504,0
DA:505,0
DA:426,0
DA:435,0
DA:437,0
DA:438,0
DA:439,0
DA:440,0
DA:441,0
DA:449,0
DA:450,0
DA:456,0
DA:461,0
DA:462,0
DA:464,0
DA:466,0
DA:467,0
DA:500,0
DA:501,0
DA:502,0
DA:503,0
DA:504,0
DA:505,0
DA:426,0
DA:435,0
DA:437,0
DA:438,0
DA:439,0
DA:440,0
DA:441,0
DA:449,0
DA:450,0
DA:456,0
DA:474,0
DA:475,0
DA:477,0
DA:481,0
DA:482,0
DA:485,0
DA:487,0
DA:488,0
DA:489,0
DA:491,0
DA:492,0
DA:493,0
DA:498,0
DA:500,0
DA:501,0
DA:502,0
DA:503,0
DA:504,0
DA:505,0
end_of_record
SF:/usr/include/c++/9/bits/allocator.h
FN:138,_ZNSaISt13_Rb_tree_nodeISt4pairIKS0_IiN7doctest6StringEEPFPNS1_9IReporterERKNS1_14ContextOptionsEEEEEC2Ev
FNDA:2,_ZNSaISt13_Rb_tree_nodeISt4pairIKS0_IiN7doctest6StringEEPFPNS1_9IReporterERKNS1_14ContextOptionsEEEEEC2Ev
FN:138,_ZNSaISt6vectorIN7doctest6StringESaIS1_EEEC2Ev
FNDA:1,_ZNSaISt6vectorIN7doctest6StringESaIS1_EEEC2Ev
FN:138,_ZNSaISt13_Rb_tree_nodeIN7doctest6detail8TestCaseEEEC2Ev
FNDA:1,_ZNSaISt13_Rb_tree_nodeIN7doctest6detail8TestCaseEEEC2Ev
FN:138,_ZNSaIPKN7doctest6detail20IExceptionTranslatorEEC2Ev
FNDA:0,_ZNSaIPKN7doctest6detail20IExceptionTranslatorEEC2Ev
FN:138,_ZNSaIPN7doctest13IContextScopeEEC2Ev
FNDA:0,_ZNSaIPN7doctest13IContextScopeEEC2Ev
FN:138,_ZNSaINSt7__cxx1112basic_stringIcSt11char_traitsIcESaIcEEEEC2Ev
FNDA:0,_ZNSaINSt7__cxx1112basic_stringIcSt11char_traitsIcESaIcEEEEC2Ev
FN:138,_ZNSaIN7doctest12_GLOBAL__N_113JUnitReporter17JUnitTestCaseData16JUnitTestMessageEEC2Ev
FNDA:0,_ZNSaIN7doctest12_GLOBAL__N_113JUnitReporter17JUnitTestCaseData16JUnitTestMessageEEC2Ev
FN:138,_ZNSaIN7doctest6StringEEC2Ev
FNDA:10,_ZNSaIN7doctest6StringEEC2Ev
FN:138,_ZNSaIN7doctest12_GLOBAL__N_113JUnitReporter17JUnitTestCaseData13JUnitTestCaseEEC2Ev
FNDA:0,_ZNSaIN7doctest12_GLOBAL__N_113JUnitReporter17JUnitTestCaseData13JUnitTestCaseEEC2Ev
FN:138,_ZNSaIPN7doctest9IReporterEEC2Ev
FNDA:1,_ZNSaIPN7doctest9IReporterEEC2Ev
FN:138,_ZNSaISt13_Rb_tree_nodeISt6vectorIN7doctest16SubcaseSignatureESaIS2_EEEEC2Ev
FNDA:1,_ZNSaISt13_Rb_tree_nodeISt6vectorIN7doctest16SubcaseSignatureESaIS2_EEEEC2Ev
FN:138,_ZNSaIPKN7doctest6detail8TestCaseEEC2Ev
FNDA:1,_ZNSaIPKN7doctest6detail8TestCaseEEC2Ev
FN:138,_ZNSaISt13_Rb_tree_nodeIN7doctest6StringEEEC2Ev
FNDA:1,_ZNSaISt13_Rb_tree_nodeIN7doctest6StringEEEC2Ev
FN:138,_ZNSaIPKN7doctest12TestCaseDataEEC2Ev
FNDA:1,_ZNSaIPKN7doctest12TestCaseDataEEC2Ev
FN:138,_ZNSaIN7doctest16SubcaseSignatureEEC2Ev
FNDA:2,_ZNSaIN7doctest16SubcaseSignatureEEC2Ev
FN:141,_ZNSaIN7doctest12_GLOBAL__N_113JUnitReporter17JUnitTestCaseData16JUnitTestMessageEEC2ERKS4_
FNDA:0,_ZNSaIN7doctest12_GLOBAL__N_113JUnitReporter17JUnitTestCaseData16JUnitTestMessageEEC2ERKS4_
FN:141,_ZNSaIN7doctest16SubcaseSignatureEEC2ERKS1_
FNDA:0,_ZNSaIN7doctest16SubcaseSignatureEEC2ERKS1_
FN:141,_ZNSaISt6vectorIN7doctest6StringESaIS1_EEEC2ERKS4_
FNDA:2,_ZNSaISt6vectorIN7doctest6StringESaIS1_EEEC2ERKS4_
FN:141,_ZNSaIN7doctest6StringEEC2ERKS1_
FNDA:0,_ZNSaIN7doctest6StringEEC2ERKS1_
FN:153,_ZNSaIN7doctest6StringEED2Ev
FNDA:10,_ZNSaIN7doctest6StringEED2Ev
FN:153,_ZNSaISt6vectorIN7doctest6StringESaIS1_EEED2Ev
FNDA:3,_ZNSaISt6vectorIN7doctest6StringESaIS1_EEED2Ev
FN:153,_ZNSaISt13_Rb_tree_nodeISt4pairIKS0_IiN7doctest6StringEEPFPNS1_9IReporterERKNS1_14ContextOptionsEEEEED2Ev
FNDA:2,_ZNSaISt13_Rb_tree_nodeISt4pairIKS0_IiN7doctest6StringEEPFPNS1_9IReporterERKNS1_14ContextOptionsEEEEED2Ev
FN:153,_ZNSaISt13_Rb_tree_nodeIN7doctest6detail8TestCaseEEED2Ev
FNDA:1,_ZNSaISt13_Rb_tree_nodeIN7doctest6detail8TestCaseEEED2Ev
FN:153,_ZNSaIPKN7doctest6detail20IExceptionTranslatorEED2Ev
FNDA:0,_ZNSaIPKN7doctest6detail20IExceptionTranslatorEED2Ev
FN:153,_ZNSaIPN7doctest13IContextScopeEED2Ev
FNDA:0,_ZNSaIPN7doctest13IContextScopeEED2Ev
FN:153,_ZNSaINSt7__cxx1112basic_stringIcSt11char_traitsIcESaIcEEEED2Ev
FNDA:0,_ZNSaINSt7__cxx1112basic_stringIcSt11char_traitsIcESaIcEEEED2Ev
FN:153,_ZNSaIN7doctest12_GLOBAL__N_113JUnitReporter17JUnitTestCaseData16JUnitTestMessageEED2Ev
FNDA:0,_ZNSaIN7doctest12_GLOBAL__N_113JUnitReporter17JUnitTestCaseData16JUnitTestMessageEED2Ev
FN:153,_ZNSaIN7doctest12_GLOBAL__N_113JUnitReporter17JUnitTestCaseData13JUnitTestCaseEED2Ev
FNDA:0,_ZNSaIN7doctest12_GLOBAL__N_113JUnitReporter17JUnitTestCaseData13JUnitTestCaseEED2Ev
FN:153,_ZNSaIN7doctest16SubcaseSignatureEED2Ev
FNDA:2,_ZNSaIN7doctest16SubcaseSignatureEED2Ev
FN:153,_ZNSaIPN7doctest9IReporterEED2Ev
FNDA:1,_ZNSaIPN7doctest9IReporterEED2Ev
FN:153,_ZNSaISt13_Rb_tree_nodeISt6vectorIN7doctest16SubcaseSignatureESaIS2_EEEED2Ev
FNDA:1,_ZNSaISt13_Rb_tree_nodeISt6vectorIN7doctest16SubcaseSignatureESaIS2_EEEED2Ev
FN:153,_ZNSaIPKN7doctest6detail8TestCaseEED2Ev
FNDA:1,_ZNSaIPKN7doctest6detail8TestCaseEED2Ev
FN:153,_ZNSaISt13_Rb_tree_nodeIN7doctest6StringEEED2Ev
FNDA:1,_ZNSaISt13_Rb_tree_nodeIN7doctest6StringEEED2Ev
FN:153,_ZNSaIPKN7doctest12TestCaseDataEED2Ev
FNDA:1,_ZNSaIPKN7doctest12TestCaseDataEED2Ev
DA:138,1
DA:138,1
DA:138,1
DA:138,1
DA:138,1
DA:138,2
DA:138,0
DA:138,10
DA:138,0
DA:138,0
DA:138,0
DA:138,0
DA:138,1
DA:138,2
DA:138,1
DA:141,0
DA:142,0
DA:141,0
DA:142,0
DA:141,0
DA:142,0
DA:141,2
DA:142,2
DA:153,1
DA:153,1
DA:153,1
DA:153,1
DA:153,1
DA:153,2
DA:153,0
DA:153,10
DA:153,0
DA:153,0
DA:153,0
DA:153,0
DA:153,1
DA:153,2
DA:153,3
end_of_record
SF:/usr/include/c++/9/bits/cpp_type_traits.h
FN:428,_ZSt12__miter_baseIN9__gnu_cxx17__normal_iteratorIPPKN7doctest6detail8TestCaseESt6vectorIS6_SaIS6_EEEEET_SC_
FNDA:0,_ZSt12__miter_baseIN9__gnu_cxx17__normal_iteratorIPPKN7doctest6detail8TestCaseESt6vectorIS6_SaIS6_EEEEET_SC_
FN:428,_ZSt12__miter_baseIPPN7doctest9IReporterEET_S4_
FNDA:0,_ZSt12__miter_baseIPPN7doctest9IReporterEET_S4_
DA:428,0
DA:429,0
DA:428,0
DA:429,0
end_of_record
SF:/usr/include/c++/9/iomanip
FN:165,_ZSt7setfillIcESt8_SetfillIT_ES1_
FNDA:0,_ZSt7setfillIcESt8_SetfillIT_ES1_
FN:195,_ZSt12setprecisioni
FNDA:0,_ZSt12setprecisioni
FN:225,_ZSt4setwi
FNDA:6,_ZSt4setwi
DA:165,0
DA:166,0
DA:195,0
DA:196,0
DA:225,6
DA:226,6
end_of_record
SF:/usr/include/c++/9/bits/stl_map.h
FN:183,_ZNSt3mapISt4pairIiN7doctest6StringEEPFPNS1_9IReporterERKNS1_14ContextOptionsEESt4lessIS3_ESaIS0_IKS3_SA_EEEC2Ev
FNDA:2,_ZNSt3mapISt4pairIiN7doctest6StringEEPFPNS1_9IReporterERKNS1_14ContextOptionsEESt4lessIS3_ESaIS0_IKS3_SA_EEEC2Ev
FN:300,_ZNSt3mapISt4pairIiN7doctest6StringEEPFPNS1_9IReporterERKNS1_14ContextOptionsEESt4lessIS3_ESaIS0_IKS3_SA_EEED2Ev
FNDA:2,_ZNSt3mapISt4pairIiN7doctest6StringEEPFPNS1_9IReporterERKNS1_14ContextOptionsEESt4lessIS3_ESaIS0_IKS3_SA_EEED2Ev
FN:354,_ZNSt3mapISt4pairIiN7doctest6StringEEPFPNS1_9IReporterERKNS1_14ContextOptionsEESt4lessIS3_ESaIS0_IKS3_SA_EEE5beginEv
FNDA:2,_ZNSt3mapISt4pairIiN7doctest6StringEEPFPNS1_9IReporterERKNS1_14ContextOptionsEESt4lessIS3_ESaIS0_IKS3_SA_EEE5beginEv
FN:363,_ZNKSt3mapISt4pairIiN7doctest6StringEEPFPNS1_9IReporterERKNS1_14ContextOptionsEESt4lessIS3_ESaIS0_IKS3_SA_EEE5beginEv
FNDA:0,_ZNKSt3mapISt4pairIiN7doctest6StringEEPFPNS1_9IReporterERKNS1_14ContextOptionsEESt4lessIS3_ESaIS0_IKS3_SA_EEE5beginEv
FN:372,_ZNSt3mapISt4pairIiN7doctest6StringEEPFPNS1_9IReporterERKNS1_14ContextOptionsEESt4lessIS3_ESaIS0_IKS3_SA_EEE3endEv
FNDA:2,_ZNSt3mapISt4pairIiN7doctest6StringEEPFPNS1_9IReporterERKNS1_14ContextOptionsEESt4lessIS3_ESaIS0_IKS3_SA_EEE3endEv
FN:381,_ZNKSt3mapISt4pairIiN7doctest6StringEEPFPNS1_9IReporterERKNS1_14ContextOptionsEESt4lessIS3_ESaIS0_IKS3_SA_EEE3endEv
FNDA:0,_ZNKSt3mapISt4pairIiN7doctest6StringEEPFPNS1_9IReporterERKNS1_14ContextOptionsEESt4lessIS3_ESaIS0_IKS3_SA_EEE3endEv
FN:468,_ZNKSt3mapISt4pairIiN7doctest6StringEEPFPNS1_9IReporterERKNS1_14ContextOptionsEESt4lessIS3_ESaIS0_IKS3_SA_EEE4sizeEv
FNDA:0,_ZNKSt3mapISt4pairIiN7doctest6StringEEPFPNS1_9IReporterERKNS1_14ContextOptionsEESt4lessIS3_ESaIS0_IKS3_SA_EEE4sizeEv
FN:808,_ZNSt3mapISt4pairIiN7doctest6StringEEPFPNS1_9IReporterERKNS1_14ContextOptionsEESt4lessIS3_ESaIS0_IKS3_SA_EEE6insertEOSE_
FNDA:3,_ZNSt3mapISt4pairIiN7doctest6StringEEPFPNS1_9IReporterERKNS1_14ContextOptionsEESt4lessIS3_ESaIS0_IKS3_SA_EEE6insertEOSE_
DA:183,2
DA:300,2
DA:354,2
DA:355,2
DA:363,0
DA:364,0
DA:372,2
DA:373,2
DA:381,0
DA:382,0
DA:468,0
DA:469,0
DA:808,3
DA:809,3
end_of_record
SF:/usr/include/c++/9/bits/stl_iterator_base_funcs.h
FN:98,_ZSt10__distanceIPcENSt15iterator_traitsIT_E15difference_typeES2_S2_St26random_access_iterator_tag
FNDA:0,_ZSt10__distanceIPcENSt15iterator_traitsIT_E15difference_typeES2_S2_St26random_access_iterator_tag
FN:98,_ZSt10__distanceIPKcENSt15iterator_traitsIT_E15difference_typeES3_S3_St26random_access_iterator_tag
FNDA:0,_ZSt10__distanceIPKcENSt15iterator_traitsIT_E15difference_typeES3_S3_St26random_access_iterator_tag
FN:138,_ZSt8distanceIPcENSt15iterator_traitsIT_E15difference_typeES2_S2_
FNDA:0,_ZSt8distanceIPcENSt15iterator_traitsIT_E15difference_typeES2_S2_
FN:138,_ZSt8distanceIPKcENSt15iterator_traitsIT_E15difference_typeES3_S3_
FNDA:0,_ZSt8distanceIPKcENSt15iterator_traitsIT_E15difference_typeES3_S3_
DA:98,0
DA:104,0
DA:98,0
DA:104,0
DA:138,0
DA:141,0
DA:142,0
DA:138,0
DA:141,0
DA:142,0
end_of_record
SF:/usr/include/c++/9/bits/stl_construct.h
FN:74,_ZSt10_ConstructIN7doctest16SubcaseSignatureEJRKS1_EEvPT_DpOT0_
FNDA:0,_ZSt10_ConstructIN7doctest16SubcaseSignatureEJRKS1_EEvPT_DpOT0_
FN:74,_ZSt10_ConstructISt6vectorIN7doctest6StringESaIS2_EEJEEvPT_DpOT0_
FNDA:9,_ZSt10_ConstructISt6vectorIN7doctest6StringESaIS2_EEJEEvPT_DpOT0_
FN:74,_ZSt10_ConstructIN7doctest6StringEJRKS1_EEvPT_DpOT0_
FNDA:0,_ZSt10_ConstructIN7doctest6StringEJRKS1_EEvPT_DpOT0_
FN:97,_ZSt8_DestroyINSt7__cxx1112basic_stringIcSt11char_traitsIcESaIcEEEEvPT_
FNDA:0,_ZSt8_DestroyINSt7__cxx1112basic_stringIcSt11char_traitsIcESaIcEEEEvPT_
FN:97,_ZSt8_DestroyISt6vectorIN7doctest6StringESaIS2_EEEvPT_
FNDA:9,_ZSt8_DestroyISt6vectorIN7doctest6StringESaIS2_EEEvPT_
FN:97,_ZSt8_DestroyIN7doctest12_GLOBAL__N_113JUnitReporter17JUnitTestCaseData16JUnitTestMessageEEvPT_
FNDA:0,_ZSt8_DestroyIN7doctest12_GLOBAL__N_113JUnitReporter17JUnitTestCaseData16JUnitTestMessageEEvPT_
FN:97,_ZSt8_DestroyIN7doctest6StringEEvPT_
FNDA:1,_ZSt8_DestroyIN7doctest6StringEEvPT_
FN:97,_ZSt8_DestroyIN7doctest12_GLOBAL__N_113JUnitReporter17JUnitTestCaseData13JUnitTestCaseEEvPT_
FNDA:0,_ZSt8_DestroyIN7doctest12_GLOBAL__N_113JUnitReporter17JUnitTestCaseData13JUnitTestCaseEEvPT_
FN:97,_ZSt8_DestroyIN7doctest16SubcaseSignatureEEvPT_
FNDA:0,_ZSt8_DestroyIN7doctest16SubcaseSignatureEEvPT_
FN:105,_ZNSt12_Destroy_auxILb0EE9__destroyIPSt6vectorIN7doctest6StringESaIS4_EEEEvT_S8_
FNDA:1,_ZNSt12_Destroy_auxILb0EE9__destroyIPSt6vectorIN7doctest6StringESaIS4_EEEEvT_S8_
FN:105,_ZNSt12_Destroy_auxILb0EE9__destroyIPNSt7__cxx1112basic_stringIcSt11char_traitsIcESaIcEEEEEvT_S9_
FNDA:0,_ZNSt12_Destroy_auxILb0EE9__destroyIPNSt7__cxx1112basic_stringIcSt11char_traitsIcESaIcEEEEEvT_S9_
FN:105,_ZNSt12_Destroy_auxILb0EE9__destroyIPN7doctest12_GLOBAL__N_113JUnitReporter17JUnitTestCaseData16JUnitTestMessageEEEvT_S8_
FNDA:0,_ZNSt12_Destroy_auxILb0EE9__destroyIPN7doctest12_GLOBAL__N_113JUnitReporter17JUnitTestCaseData16JUnitTestMessageEEEvT_S8_
FN:105,_ZNSt12_Destroy_auxILb0EE9__destroyIPN7doctest16SubcaseSignatureEEEvT_S5_
FNDA:2,_ZNSt12_Destroy_auxILb0EE9__destroyIPN7doctest16SubcaseSignatureEEEvT_S5_
FN:105,_ZNSt12_Destroy_auxILb0EE9__destroyIPN7doctest12_GLOBAL__N_113JUnitReporter17JUnitTestCaseData13JUnitTestCaseEEEvT_S8_
FNDA:0,_ZNSt12_Destroy_auxILb0EE9__destroyIPN7doctest12_GLOBAL__N_113JUnitReporter17JUnitTestCaseData13JUnitTestCaseEEEvT_S8_
FN:105,_ZNSt12_Destroy_auxILb0EE9__destroyIPN7doctest6StringEEEvT_S5_
FNDA:11,_ZNSt12_Destroy_auxILb0EE9__destroyIPN7doctest6StringEEEvT_S5_
FN:117,_ZNSt12_Destroy_auxILb1EE9__destroyIPPN7doctest13IContextScopeEEEvT_S6_
FNDA:0,_ZNSt12_Destroy_auxILb1EE9__destroyIPPN7doctest13IContextScopeEEEvT_S6_
FN:117,_ZNSt12_Destroy_auxILb1EE9__destroyIPPKN7doctest6detail20IExceptionTranslatorEEEvT_S8_
FNDA:0,_ZNSt12_Destroy_auxILb1EE9__destroyIPPKN7doctest6detail20IExceptionTranslatorEEEvT_S8_
FN:117,_ZNSt12_Destroy_auxILb1EE9__destroyIPPKN7doctest6detail8TestCaseEEEvT_S8_
FNDA:1,_ZNSt12_Destroy_auxILb1EE9__destroyIPPKN7doctest6detail8TestCaseEEEvT_S8_
FN:117,_ZNSt12_Destroy_auxILb1EE9__destroyIPPKN7doctest12TestCaseDataEEEvT_S7_
FNDA:1,_ZNSt12_Destroy_auxILb1EE9__destroyIPPKN7doctest12TestCaseDataEEEvT_S7_
FN:117,_ZNSt12_Destroy_auxILb1EE9__destroyIPPN7doctest9IReporterEEEvT_S6_
FNDA:2,_ZNSt12_Destroy_auxILb1EE9__destroyIPPN7doctest9IReporterEEEvT_S6_
FN:127,_ZSt8_DestroyIPNSt7__cxx1112basic_stringIcSt11char_traitsIcESaIcEEEEvT_S7_
FNDA:0,_ZSt8_DestroyIPNSt7__cxx1112basic_stringIcSt11char_traitsIcESaIcEEEEvT_S7_
FN:127,_ZSt8_DestroyIPSt6vectorIN7doctest6StringESaIS2_EEEvT_S6_
FNDA:1,_ZSt8_DestroyIPSt6vectorIN7doctest6StringESaIS2_EEEvT_S6_
FN:127,_ZSt8_DestroyIPPKN7doctest6detail20IExceptionTranslatorEEvT_S6_
FNDA:0,_ZSt8_DestroyIPPKN7doctest6detail20IExceptionTranslatorEEvT_S6_
FN:127,_ZSt8_DestroyIPN7doctest12_GLOBAL__N_113JUnitReporter17JUnitTestCaseData16JUnitTestMessageEEvT_S6_
FNDA:0,_ZSt8_DestroyIPN7doctest12_GLOBAL__N_113JUnitReporter17JUnitTestCaseData16JUnitTestMessageEEvT_S6_
FN:127,_ZSt8_DestroyIPN7doctest6StringEEvT_S3_
FNDA:11,_ZSt8_DestroyIPN7doctest6StringEEvT_S3_
FN:127,_ZSt8_DestroyIPN7doctest12_GLOBAL__N_113JUnitReporter17JUnitTestCaseData13JUnitTestCaseEEvT_S6_
FNDA:0,_ZSt8_DestroyIPN7doctest12_GLOBAL__N_113JUnitReporter17JUnitTestCaseData13JUnitTestCaseEEvT_S6_
FN:127,_ZSt8_DestroyIPN7doctest16SubcaseSignatureEEvT_S3_
FNDA:2,_ZSt8_DestroyIPN7doctest16SubcaseSignatureEEvT_S3_
FN:127,_ZSt8_DestroyIPPN7doctest9IReporterEEvT_S4_
FNDA:2,_ZSt8_DestroyIPPN7doctest9IReporterEEvT_S4_
FN:127,_ZSt8_DestroyIPPKN7doctest6detail8TestCaseEEvT_S6_
FNDA:1,_ZSt8_DestroyIPPKN7doctest6detail8TestCaseEEvT_S6_
FN:127,_ZSt8_DestroyIPPKN7doctest12TestCaseDataEEvT_S5_
FNDA:1,_ZSt8_DestroyIPPKN7doctest12TestCaseDataEEvT_S5_
FN:127,_ZSt8_DestroyIPPN7doctest13IContextScopeEEvT_S4_
FNDA:0,_ZSt8_DestroyIPPN7doctest13IContextScopeEEvT_S4_
FN:203,_ZSt8_DestroyIPPN7doctest13IContextScopeES2_EvT_S4_RSaIT0_E
FNDA:0,_ZSt8_DestroyIPPN7doctest13IContextScopeES2_EvT_S4_RSaIT0_E
FN:203,_ZSt8_DestroyIPPKN7doctest12TestCaseDataES3_EvT_S5_RSaIT0_E
FNDA:1,_ZSt8_DestroyIPPKN7doctest12TestCaseDataES3_EvT_S5_RSaIT0_E
FN:203,_ZSt8_DestroyIPPKN7doctest6detail8TestCaseES4_EvT_S6_RSaIT0_E
FNDA:1,_ZSt8_DestroyIPPKN7doctest6detail8TestCaseES4_EvT_S6_RSaIT0_E
FN:203,_ZSt8_DestroyIPPN7doctest9IReporterES2_EvT_S4_RSaIT0_E
FNDA:2,_ZSt8_DestroyIPPN7doctest9IReporterES2_EvT_S4_RSaIT0_E
FN:203,_ZSt8_DestroyIPN7doctest16SubcaseSignatureES1_EvT_S3_RSaIT0_E
FNDA:2,_ZSt8_DestroyIPN7doctest16SubcaseSignatureES1_EvT_S3_RSaIT0_E
FN:203,_ZSt8_DestroyIPN7doctest12_GLOBAL__N_113JUnitReporter17JUnitTestCaseData13JUnitTestCaseES4_EvT_S6_RSaIT0_E
FNDA:0,_ZSt8_DestroyIPN7doctest12_GLOBAL__N_113JUnitReporter17JUnitTestCaseData13JUnitTestCaseES4_EvT_S6_RSaIT0_E
FN:203,_ZSt8_DestroyIPN7doctest6StringES1_EvT_S3_RSaIT0_E
FNDA:11,_ZSt8_DestroyIPN7doctest6StringES1_EvT_S3_RSaIT0_E
FN:203,_ZSt8_DestroyIPN7doctest12_GLOBAL__N_113JUnitReporter17JUnitTestCaseData16JUnitTestMessageES4_EvT_S6_RSaIT0_E
FNDA:0,_ZSt8_DestroyIPN7doctest12_GLOBAL__N_113JUnitReporter17JUnitTestCaseData16JUnitTestMessageES4_EvT_S6_RSaIT0_E
FN:203,_ZSt8_DestroyIPNSt7__cxx1112basic_stringIcSt11char_traitsIcESaIcEEES5_EvT_S7_RSaIT0_E
FNDA:0,_ZSt8_DestroyIPNSt7__cxx1112basic_stringIcSt11char_traitsIcESaIcEEES5_EvT_S7_RSaIT0_E
FN:203,_ZSt8_DestroyIPPKN7doctest6detail20IExceptionTranslatorES4_EvT_S6_RSaIT0_E
FNDA:0,_ZSt8_DestroyIPPKN7doctest6detail20IExceptionTranslatorES4_EvT_S6_RSaIT0_E
FN:203,_ZSt8_DestroyIPSt6vectorIN7doctest6StringESaIS2_EES4_EvT_S6_RSaIT0_E
FNDA:1,_ZSt8_DestroyIPSt6vectorIN7doctest6StringESaIS2_EES4_EvT_S6_RSaIT0_E
DA:74,0
DA:75,0
DA:74,9
DA:75,9
DA:74,0
DA:75,0
DA:97,0
DA:98,0
DA:97,0
DA:98,0
DA:97,1
DA:98,1
DA:97,0
DA:98,0
DA:97,0
DA:98,0
DA:97,9
DA:98,9
DA:105,2
DA:107,2
DA:108,0
DA:109,2
DA:105,0
DA:107,0
DA:108,0
DA:109,0
DA:105,12
DA:107,12
DA:108,1
DA:109,11
DA:105,0
DA:107,0
DA:108,0
DA:109,0
DA:105,0
DA:107,0
DA:108,0
DA:109,0
DA:105,10
DA:107,10
DA:108,9
DA:109,1
DA:117,0
DA:117,1
DA:117,1
DA:117,2
DA:117,0
DA:127,0
DA:137,0
DA:138,0
DA:127,1
DA:137,1
DA:138,1
DA:127,1
DA:137,1
DA:138,1
DA:127,2
DA:137,2
DA:138,2
DA:127,2
DA:137,2
DA:138,2
DA:127,0
DA:137,0
DA:138,0
DA:127,11
DA:137,11
DA:138,11
DA:127,0
DA:137,0
DA:138,0
DA:127,0
DA:137,0
DA:138,0
DA:127,0
DA:137,0
DA:138,0
DA:127,1
DA:137,1
DA:138,1
DA:203,0
DA:206,0
DA:207,0
DA:203,1
DA:206,1
DA:207,1
DA:203,1
DA:206,1
DA:207,1
DA:203,2
DA:206,2
DA:207,2
DA:203,2
DA:206,2
DA:207,2
DA:203,0
DA:206,0
DA:207,0
DA:203,11
DA:206,11
DA:207,11
DA:203,0
DA:206,0
DA:207,0
DA:203,0
DA:206,0
DA:207,0
DA:203,0
DA:206,0
DA:207,0
DA:203,1
DA:206,1
DA:207,1
end_of_record
SF:/usr/include/c++/9/bits/stl_pair.h
FN:303,_ZNSt4pairIiN7doctest6StringEEC2ERKS2_
FNDA:3,_ZNSt4pairIiN7doctest6StringEEC2ERKS2_
FN:304,_ZNSt4pairIKS_IiN7doctest6StringEEPFPNS0_9IReporterERKNS0_14ContextOptionsEEEC2EOSB_
FNDA:3,_ZNSt4pairIKS_IiN7doctest6StringEEPFPNS0_9IReporterERKNS0_14ContextOptionsEEEC2EOSB_
FN:304,_ZNSt4pairIiN7doctest6StringEEC2EOS2_
FNDA:3,_ZNSt4pairIiN7doctest6StringEEC2EOS2_
FN:311,_ZNSt4pairIPSt18_Rb_tree_node_baseS1_EC2IRS1_Lb1EEEOT_RKS1_
FNDA:0,_ZNSt4pairIPSt18_Rb_tree_node_baseS1_EC2IRS1_Lb1EEEOT_RKS1_
FN:341,_ZNSt4pairIiN7doctest6StringEEC2IRiRPKcLb1EEEOT_OT0_
FNDA:3,_ZNSt4pairIiN7doctest6StringEEC2IRiRPKcLb1EEEOT_OT0_
FN:341,_ZNSt4pairIKS_IiN7doctest6StringEEPFPNS0_9IReporterERKNS0_14ContextOptionsEEEC2IS2_RSA_Lb1EEEOT_OT0_
FNDA:3,_ZNSt4pairIKS_IiN7doctest6StringEEPFPNS0_9IReporterERKNS0_14ContextOptionsEEEC2IS2_RSA_Lb1EEEOT_OT0_
FN:341,_ZNSt4pairISt23_Rb_tree_const_iteratorISt6vectorIN7doctest16SubcaseSignatureESaIS3_EEEbEC2IRSt17_Rb_tree_iteratorIS5_ERbLb1EEEOT_OT0_
FNDA:0,_ZNSt4pairISt23_Rb_tree_const_iteratorISt6vectorIN7doctest16SubcaseSignatureESaIS3_EEEbEC2IRSt17_Rb_tree_iteratorIS5_ERbLb1EEEOT_OT0_
FN:341,_ZNSt4pairISt23_Rb_tree_const_iteratorIN7doctest6detail8TestCaseEEbEC2IRSt17_Rb_tree_iteratorIS3_ERbLb1EEEOT_OT0_
FNDA:1,_ZNSt4pairISt23_Rb_tree_const_iteratorIN7doctest6detail8TestCaseEEbEC2IRSt17_Rb_tree_iteratorIS3_ERbLb1EEEOT_OT0_
FN:341,_ZNSt4pairISt23_Rb_tree_const_iteratorIN7doctest6StringEEbEC2IRSt17_Rb_tree_iteratorIS2_ERbLb1EEEOT_OT0_
FNDA:0,_ZNSt4pairISt23_Rb_tree_const_iteratorIN7doctest6StringEEbEC2IRSt17_Rb_tree_iteratorIS2_ERbLb1EEEOT_OT0_
FN:341,_ZNSt4pairISt17_Rb_tree_iteratorISt6vectorIN7doctest16SubcaseSignatureESaIS3_EEEbEC2IS6_bLb1EEEOT_OT0_
FNDA:0,_ZNSt4pairISt17_Rb_tree_iteratorISt6vectorIN7doctest16SubcaseSignatureESaIS3_EEEbEC2IS6_bLb1EEEOT_OT0_
FN:341,_ZNSt4pairISt17_Rb_tree_iteratorIN7doctest6detail8TestCaseEEbEC2IS4_bLb1EEEOT_OT0_
FNDA:1,_ZNSt4pairISt17_Rb_tree_iteratorIN7doctest6detail8TestCaseEEbEC2IS4_bLb1EEEOT_OT0_
FN:341,_ZNSt4pairISt17_Rb_tree_iteratorIN7doctest6StringEEbEC2IS3_bLb1EEEOT_OT0_
FNDA:0,_ZNSt4pairISt17_Rb_tree_iteratorIN7doctest6StringEEbEC2IS3_bLb1EEEOT_OT0_
FN:341,_ZNSt4pairISt17_Rb_tree_iteratorIS_IKS_IiN7doctest6StringEEPFPNS1_9IReporterERKNS1_14ContextOptionsEEEEbEC2ISD_bLb1EEEOT_OT0_
FNDA:3,_ZNSt4pairISt17_Rb_tree_iteratorIS_IKS_IiN7doctest6StringEEPFPNS1_9IReporterERKNS1_14ContextOptionsEEEEbEC2ISD_bLb1EEEOT_OT0_
FN:341,_ZNSt4pairIPSt18_Rb_tree_node_baseS1_EC2IRPSt13_Rb_tree_nodeISt6vectorIN7doctest16SubcaseSignatureESaIS7_EEERS1_Lb1EEEOT_OT0_
FNDA:0,_ZNSt4pairIPSt18_Rb_tree_node_baseS1_EC2IRPSt13_Rb_tree_nodeISt6vectorIN7doctest16SubcaseSignatureESaIS7_EEERS1_Lb1EEEOT_OT0_
FN:341,_ZNSt4pairIPSt18_Rb_tree_node_baseS1_EC2IRPSt13_Rb_tree_nodeIN7doctest6detail8TestCaseEERS1_Lb1EEEOT_OT0_
FNDA:1,_ZNSt4pairIPSt18_Rb_tree_node_baseS1_EC2IRPSt13_Rb_tree_nodeIN7doctest6detail8TestCaseEERS1_Lb1EEEOT_OT0_
FN:341,_ZNSt4pairIPSt18_Rb_tree_node_baseS1_EC2IRPSt13_Rb_tree_nodeIN7doctest6StringEERS1_Lb1EEEOT_OT0_
FNDA:0,_ZNSt4pairIPSt18_Rb_tree_node_baseS1_EC2IRPSt13_Rb_tree_nodeIN7doctest6StringEERS1_Lb1EEEOT_OT0_
FN:341,_ZNSt4pairIPSt18_Rb_tree_node_baseS1_EC2IRPSt13_Rb_tree_nodeIS_IKS_IiN7doctest6StringEEPFPNS5_9IReporterERKNS5_14ContextOptionsEEEERS1_Lb1EEEOT_OT0_
FNDA:3,_ZNSt4pairIPSt18_Rb_tree_node_baseS1_EC2IRPSt13_Rb_tree_nodeIS_IKS_IiN7doctest6StringEEPFPNS5_9IReporterERKNS5_14ContextOptionsEEEERS1_Lb1EEEOT_OT0_
FN:454,_ZStltIiN7doctest6StringEEbRKSt4pairIT_T0_ES7_
FNDA:5,_ZStltIiN7doctest6StringEEbRKSt4pairIT_T0_ES7_
DA:303,3
DA:304,3
DA:304,3
DA:311,0
DA:312,0
DA:341,3
DA:342,3
DA:341,0
DA:342,0
DA:341,1
DA:342,1
DA:341,0
DA:342,0
DA:341,3
DA:342,3
DA:341,0
DA:342,0
DA:341,1
DA:342,1
DA:341,0
DA:342,0
DA:341,0
DA:342,0
DA:341,1
DA:342,1
DA:341,0
DA:342,0
DA:341,3
DA:342,3
DA:341,3
DA:342,3
DA:454,5
DA:455,5
DA:456,5
end_of_record
SF:/usr/include/c++/9/bits/predefined_ops.h
FN:42,_ZNK9__gnu_cxx5__ops15_Iter_less_iterclIPKN7doctest16SubcaseSignatureES6_EEbT_T0_
FNDA:0,_ZNK9__gnu_cxx5__ops15_Iter_less_iterclIPKN7doctest16SubcaseSignatureES6_EEbT_T0_
FN:48,_ZN9__gnu_cxx5__ops16__iter_less_iterEv
FNDA:0,_ZN9__gnu_cxx5__ops16__iter_less_iterEv
FN:135,_ZN9__gnu_cxx5__ops15_Iter_comp_iterIPFbPKN7doctest6detail8TestCaseES6_EEC2ES8_
FNDA:1,_ZN9__gnu_cxx5__ops15_Iter_comp_iterIPFbPKN7doctest6detail8TestCaseES6_EEC2ES8_
FN:142,_ZN9__gnu_cxx5__ops15_Iter_comp_iterIPFbPKN7doctest6detail8TestCaseES6_EEclINS_17__normal_iteratorIPS6_St6vectorIS6_SaIS6_EEEESG_EEbT_T0_
FNDA:0,_ZN9__gnu_cxx5__ops15_Iter_comp_iterIPFbPKN7doctest6detail8TestCaseES6_EEclINS_17__normal_iteratorIPS6_St6vectorIS6_SaIS6_EEEESG_EEbT_T0_
FN:149,_ZN9__gnu_cxx5__ops16__iter_comp_iterIPFbPKN7doctest6detail8TestCaseES6_EEENS0_15_Iter_comp_iterIT_EESA_
FNDA:1,_ZN9__gnu_cxx5__ops16__iter_comp_iterIPFbPKN7doctest6detail8TestCaseES6_EEENS0_15_Iter_comp_iterIT_EESA_
FN:169,_ZN9__gnu_cxx5__ops14_Iter_comp_valIPFbPKN7doctest6detail8TestCaseES6_EEC2EONS0_15_Iter_comp_iterIS8_EE
FNDA:0,_ZN9__gnu_cxx5__ops14_Iter_comp_valIPFbPKN7doctest6detail8TestCaseES6_EEC2EONS0_15_Iter_comp_iterIS8_EE
FN:176,_ZN9__gnu_cxx5__ops14_Iter_comp_valIPFbPKN7doctest6detail8TestCaseES6_EEclINS_17__normal_iteratorIPS6_St6vectorIS6_SaIS6_EEEES6_EEbT_RT0_
FNDA:0,_ZN9__gnu_cxx5__ops14_Iter_comp_valIPFbPKN7doctest6detail8TestCaseES6_EEclINS_17__normal_iteratorIPS6_St6vectorIS6_SaIS6_EEEES6_EEbT_RT0_
FN:207,_ZN9__gnu_cxx5__ops14_Val_comp_iterIPFbPKN7doctest6detail8TestCaseES6_EEC2EONS0_15_Iter_comp_iterIS8_EE
FNDA:0,_ZN9__gnu_cxx5__ops14_Val_comp_iterIPFbPKN7doctest6detail8TestCaseES6_EEC2EONS0_15_Iter_comp_iterIS8_EE
FN:214,_ZN9__gnu_cxx5__ops14_Val_comp_iterIPFbPKN7doctest6detail8TestCaseES6_EEclIS6_NS_17__normal_iteratorIPS6_St6vectorIS6_SaIS6_EEEEEEbRT_T0_
FNDA:0,_ZN9__gnu_cxx5__ops14_Val_comp_iterIPFbPKN7doctest6detail8TestCaseES6_EEclIS6_NS_17__normal_iteratorIPS6_St6vectorIS6_SaIS6_EEEEEEbRT_T0_
FN:225,_ZN9__gnu_cxx5__ops15__val_comp_iterIPFbPKN7doctest6detail8TestCaseES6_EEENS0_14_Val_comp_iterIT_EENS0_15_Iter_comp_iterISA_EE
FNDA:0,_ZN9__gnu_cxx5__ops15__val_comp_iterIPFbPKN7doctest6detail8TestCaseES6_EEENS0_14_Val_comp_iterIT_EENS0_15_Iter_comp_iterISA_EE
FN:234,_ZN9__gnu_cxx5__ops16_Iter_equals_valIKPKN7doctest6detail20IExceptionTranslatorEEC2ERS7_
FNDA:0,_ZN9__gnu_cxx5__ops16_Iter_equals_valIKPKN7doctest6detail20IExceptionTranslatorEEC2ERS7_
FN:240,_ZN9__gnu_cxx5__ops16_Iter_equals_valIKPKN7doctest6detail20IExceptionTranslatorEEclINS_17__normal_iteratorIPS6_St6vectorIS6_SaIS6_EEEEEEbT_
FNDA:0,_ZN9__gnu_cxx5__ops16_Iter_equals_valIKPKN7doctest6detail20IExceptionTranslatorEEclINS_17__normal_iteratorIPS6_St6vectorIS6_SaIS6_EEEEEEbT_
FN:246,_ZN9__gnu_cxx5__ops17__iter_equals_valIKPKN7doctest6detail20IExceptionTranslatorEEENS0_16_Iter_equals_valIT_EERS9_
FNDA:0,_ZN9__gnu_cxx5__ops17__iter_equals_valIKPKN7doctest6detail20IExceptionTranslatorEEENS0_16_Iter_equals_valIT_EERS9_
DA:42,0
DA:43,0
DA:48,0
DA:49,0
DA:135,1
DA:136,1
DA:137,1
DA:142,0
DA:143,0
DA:149,1
DA:150,1
DA:169,0
DA:170,0
DA:171,0
DA:176,0
DA:177,0
DA:207,0
DA:208,0
DA:209,0
DA:214,0
DA:215,0
DA:225,0
DA:226,0
DA:234,0
DA:235,0
DA:236,0
DA:240,0
DA:241,0
DA:246,0
DA:247,0
end_of_record
SF:/usr/include/c++/9/iostream
end_of_record
SF:/usr/include/c++/9/limits
FN:1687,_ZNSt14numeric_limitsIfE7epsilonEv
FNDA:1,_ZNSt14numeric_limitsIfE7epsilonEv
DA:1687,1
end_of_record
SF:/usr/include/c++/9/bits/std_mutex.h
FN:65,_ZNSt12__mutex_baseC2Ev
FNDA:1,_ZNSt12__mutex_baseC2Ev
FN:91,_ZNSt5mutexC2Ev
FNDA:1,_ZNSt5mutexC2Ev
FN:98,_ZNSt5mutex4lockEv
FNDA:0,_ZNSt5mutex4lockEv
FN:115,_ZNSt5mutex6unlockEv
FNDA:0,_ZNSt5mutex6unlockEv
FN:158,_ZNSt10lock_guardISt5mutexEC2ERS0_
FNDA:0,_ZNSt10lock_guardISt5mutexEC2ERS0_
FN:164,_ZNSt10lock_guardISt5mutexED2Ev
FNDA:0,_ZNSt10lock_guardISt5mutexED2Ev
DA:65,1
DA:91,1
DA:98,0
DA:100,0
DA:103,0
DA:104,0
DA:105,0
DA:115,0
DA:118,0
DA:119,0
DA:158,0
DA:159,0
DA:164,0
DA:165,0
end_of_record
SF:/usr/include/c++/9/bits/stl_algobase.h
FN:123,_ZSt9iter_swapIN9__gnu_cxx17__normal_iteratorIPPKN7doctest6detail8TestCaseESt6vectorIS6_SaIS6_EEEESB_EvT_T0_
FNDA:0,_ZSt9iter_swapIN9__gnu_cxx17__normal_iteratorIPPKN7doctest6detail8TestCaseESt6vectorIS6_SaIS6_EEEESB_EvT_T0_
FN:198,_ZSt3minImERKT_S2_S2_
FNDA:7,_ZSt3minImERKT_S2_S2_
FN:222,_ZSt3maxIjERKT_S2_S2_
FNDA:3,_ZSt3maxIjERKT_S2_S2_
FN:222,_ZSt3maxIdERKT_S2_S2_
FNDA:1,_ZSt3maxIdERKT_S2_S2_
FN:222,_ZSt3maxImERKT_S2_S2_
FNDA:3,_ZSt3maxImERKT_S2_S2_
FN:280,_ZSt12__niter_baseIPPKN7doctest12TestCaseDataEET_S5_
FNDA:0,_ZSt12__niter_baseIPPKN7doctest12TestCaseDataEET_S5_
FN:280,_ZSt12__niter_baseIPPKN7doctest6detail8TestCaseEET_S6_
FNDA:6,_ZSt12__niter_baseIPPKN7doctest6detail8TestCaseEET_S6_
FN:280,_ZSt12__niter_baseIPPKN7doctest6detail20IExceptionTranslatorEET_S6_
FNDA:0,_ZSt12__niter_baseIPPKN7doctest6detail20IExceptionTranslatorEET_S6_
FN:280,_ZSt12__niter_baseIPPN7doctest13IContextScopeEET_S4_
FNDA:0,_ZSt12__niter_baseIPPN7doctest13IContextScopeEET_S4_
FN:280,_ZSt12__niter_baseIPNSt7__cxx1112basic_stringIcSt11char_traitsIcESaIcEEEET_S7_
FNDA:0,_ZSt12__niter_baseIPNSt7__cxx1112basic_stringIcSt11char_traitsIcESaIcEEEET_S7_
FN:280,_ZSt12__niter_baseIPN7doctest12_GLOBAL__N_113JUnitReporter17JUnitTestCaseData13JUnitTestCaseEET_S6_
FNDA:0,_ZSt12__niter_baseIPN7doctest12_GLOBAL__N_113JUnitReporter17JUnitTestCaseData13JUnitTestCaseEET_S6_
FN:280,_ZSt12__niter_baseIPN7doctest12_GLOBAL__N_113JUnitReporter17JUnitTestCaseData16JUnitTestMessageEET_S6_
FNDA:0,_ZSt12__niter_baseIPN7doctest12_GLOBAL__N_113JUnitReporter17JUnitTestCaseData16JUnitTestMessageEET_S6_
FN:280,_ZSt12__niter_baseIPPN7doctest9IReporterEET_S4_
FNDA:6,_ZSt12__niter_baseIPPN7doctest9IReporterEET_S4_
FN:289,_ZSt12__niter_wrapIN9__gnu_cxx17__normal_iteratorIPPKN7doctest6detail8TestCaseESt6vectorIS6_SaIS6_EEEES7_ET_SC_T0_
FNDA:0,_ZSt12__niter_wrapIN9__gnu_cxx17__normal_iteratorIPPKN7doctest6detail8TestCaseESt6vectorIS6_SaIS6_EEEES7_ET_SC_T0_
FN:295,_ZSt12__niter_wrapIPPN7doctest9IReporterEET_RKS4_S4_
FNDA:0,_ZSt12__niter_wrapIPPN7doctest9IReporterEET_RKS4_S4_
FN:577,_ZNSt20__copy_move_backwardILb1ELb1ESt26random_access_iterator_tagE13__copy_move_bIPKN7doctest6detail8TestCaseEEEPT_PKS8_SB_S9_
FNDA:0,_ZNSt20__copy_move_backwardILb1ELb1ESt26random_access_iterator_tagE13__copy_move_bIPKN7doctest6detail8TestCaseEEEPT_PKS8_SB_S9_
FN:577,_ZNSt20__copy_move_backwardILb1ELb1ESt26random_access_iterator_tagE13__copy_move_bIPN7doctest9IReporterEEEPT_PKS6_S9_S7_
FNDA:0,_ZNSt20__copy_move_backwardILb1ELb1ESt26random_access_iterator_tagE13__copy_move_bIPN7doctest9IReporterEEEPT_PKS6_S9_S7_
FN:595,_ZSt22__copy_move_backward_aILb1EPPN7doctest9IReporterES3_ET1_T0_S5_S4_
FNDA:0,_ZSt22__copy_move_backward_aILb1EPPN7doctest9IReporterES3_ET1_T0_S5_S4_
FN:595,_ZSt22__copy_move_backward_aILb1EPPKN7doctest6detail8TestCaseES5_ET1_T0_S7_S6_
FNDA:0,_ZSt22__copy_move_backward_aILb1EPPKN7doctest6detail8TestCaseES5_ET1_T0_S7_S6_
FN:613,_ZSt23__copy_move_backward_a2ILb1EN9__gnu_cxx17__normal_iteratorIPPKN7doctest6detail8TestCaseESt6vectorIS6_SaIS6_EEEESB_ET1_T0_SD_SC_
FNDA:0,_ZSt23__copy_move_backward_a2ILb1EN9__gnu_cxx17__normal_iteratorIPPKN7doctest6detail8TestCaseESt6vectorIS6_SaIS6_EEEESB_ET1_T0_SD_SC_
FN:613,_ZSt23__copy_move_backward_a2ILb1EPPN7doctest9IReporterES3_ET1_T0_S5_S4_
FNDA:0,_ZSt23__copy_move_backward_a2ILb1EPPN7doctest9IReporterES3_ET1_T0_S5_S4_
FN:676,_ZSt13move_backwardIN9__gnu_cxx17__normal_iteratorIPPKN7doctest6detail8TestCaseESt6vectorIS6_SaIS6_EEEESB_ET0_T_SD_SC_
FNDA:0,_ZSt13move_backwardIN9__gnu_cxx17__normal_iteratorIPPKN7doctest6detail8TestCaseESt6vectorIS6_SaIS6_EEEESB_ET0_T_SD_SC_
FN:676,_ZSt13move_backwardIPPN7doctest9IReporterES3_ET0_T_S5_S4_
FNDA:0,_ZSt13move_backwardIPPN7doctest9IReporterES3_ET0_T_S5_S4_
FN:873,_ZNSt8__lc_raiISt26random_access_iterator_tagS0_E10__newlast1IPKN7doctest16SubcaseSignatureES6_EET_S7_S7_T0_S8_
FNDA:0,_ZNSt8__lc_raiISt26random_access_iterator_tagS0_E10__newlast1IPKN7doctest16SubcaseSignatureES6_EET_S7_S7_T0_S8_
FN:885,_ZNSt8__lc_raiISt26random_access_iterator_tagS0_E6__cnd2IPKN7doctest16SubcaseSignatureEEEbT_S7_
FNDA:0,_ZNSt8__lc_raiISt26random_access_iterator_tagS0_E6__cnd2IPKN7doctest16SubcaseSignatureEEEbT_S7_
FN:891,_ZSt30__lexicographical_compare_implIPKN7doctest16SubcaseSignatureES3_N9__gnu_cxx5__ops15_Iter_less_iterEEbT_S7_T0_S8_T1_
FNDA:0,_ZSt30__lexicographical_compare_implIPKN7doctest16SubcaseSignatureES3_N9__gnu_cxx5__ops15_Iter_less_iterEEbT_S7_T0_S8_T1_
FN:921,_ZNSt25__lexicographical_compareILb0EE4__lcIPKN7doctest16SubcaseSignatureES5_EEbT_S6_T0_S7_
FNDA:0,_ZNSt25__lexicographical_compareILb0EE4__lcIPKN7doctest16SubcaseSignatureES5_EEbT_S6_T0_S7_
FN:948,_ZSt29__lexicographical_compare_auxIPKN7doctest16SubcaseSignatureES3_EbT_S4_T0_S5_
FNDA:0,_ZSt29__lexicographical_compare_auxIPKN7doctest16SubcaseSignatureES3_EbT_S4_T0_S5_
FN:1028,_ZSt4__lgl
FNDA:1,_ZSt4__lgl
FN:1241,_ZSt23lexicographical_compareIN9__gnu_cxx17__normal_iteratorIPKN7doctest16SubcaseSignatureESt6vectorIS3_SaIS3_EEEES9_EbT_SA_T0_SB_
FNDA:0,_ZSt23lexicographical_compareIN9__gnu_cxx17__normal_iteratorIPKN7doctest16SubcaseSignatureESt6vectorIS3_SaIS3_EEEES9_EbT_SA_T0_SB_
DA:123,0
DA:151,0
DA:153,0
DA:198,7
DA:203,7
DA:204,0
DA:205,7
DA:222,1
DA:227,1
DA:228,0
DA:229,1
DA:222,3
DA:227,3
DA:228,3
DA:229,0
DA:222,3
DA:227,3
DA:228,0
DA:229,3
DA:280,0
DA:282,0
DA:280,6
DA:282,6
DA:280,0
DA:282,0
DA:280,6
DA:282,6
DA:280,0
DA:282,0
DA:280,0
DA:282,0
DA:280,0
DA:282,0
DA:280,0
DA:282,0
DA:289,0
DA:290,0
DA:295,0
DA:296,0
DA:577,0
DA:586,0
DA:587,0
DA:588,0
DA:589,0
DA:577,0
DA:586,0
DA:587,0
DA:588,0
DA:589,0
DA:595,0
DA:600,0
DA:606,0
DA:608,0
DA:595,0
DA:600,0
DA:606,0
DA:608,0
DA:613,0
DA:615,0
DA:618,0
DA:613,0
DA:615,0
DA:618,0
DA:676,0
DA:686,0
DA:688,0
DA:676,0
DA:686,0
DA:688,0
DA:873,0
DA:877,0
DA:879,0
DA:880,0
DA:885,0
DA:886,0
DA:891,0
DA:899,0
DA:900,0
DA:903,0
DA:904,0
DA:905,0
DA:906,0
DA:908,0
DA:921,0
DA:924,0
DA:926,0
DA:948,0
DA:953,0
DA:960,0
DA:961,0
DA:1028,1
DA:1029,1
DA:1241,0
DA:1256,0
DA:1259,0
end_of_record
SF:/usr/include/c++/9/bits/basic_string.tcc
FN:206,_ZNSt7__cxx1112basic_stringIcSt11char_traitsIcESaIcEE12_M_constructIPcEEvT_S7_St20forward_iterator_tag
FNDA:0,_ZNSt7__cxx1112basic_stringIcSt11char_traitsIcESaIcEE12_M_constructIPcEEvT_S7_St20forward_iterator_tag
FN:206,_ZNSt7__cxx1112basic_stringIcSt11char_traitsIcESaIcEE12_M_constructIPKcEEvT_S8_St20forward_iterator_tag
FNDA:0,_ZNSt7__cxx1112basic_stringIcSt11char_traitsIcESaIcEE12_M_constructIPKcEEvT_S8_St20forward_iterator_tag
DA:206,0
DA:211,0
DA:212,0
DA:215,0
DA:217,0
DA:219,0
DA:220,0
DA:225,0
DA:226,0
DA:228,0
DA:229,0
DA:232,0
DA:233,0
DA:206,0
DA:211,0
DA:212,0
DA:215,0
DA:217,0
DA:219,0
DA:220,0
DA:225,0
DA:226,0
DA:228,0
DA:229,0
DA:232,0
DA:233,0
end_of_record
SF:/usr/include/c++/9/bits/stl_heap.h
FN:128,_ZSt11__push_heapIN9__gnu_cxx17__normal_iteratorIPPKN7doctest6detail8TestCaseESt6vectorIS6_SaIS6_EEEElS6_NS0_5__ops14_Iter_comp_valIPFbS6_S6_EEEEvT_T0_SI_T1_RT2_
FNDA:0,_ZSt11__push_heapIN9__gnu_cxx17__normal_iteratorIPPKN7doctest6detail8TestCaseESt6vectorIS6_SaIS6_EEEElS6_NS0_5__ops14_Iter_comp_valIPFbS6_S6_EEEEvT_T0_SI_T1_RT2_
FN:214,_ZSt13__adjust_heapIN9__gnu_cxx17__normal_iteratorIPPKN7doctest6detail8TestCaseESt6vectorIS6_SaIS6_EEEElS6_NS0_5__ops15_Iter_comp_iterIPFbS6_S6_EEEEvT_T0_SI_T1_T2_
FNDA:0,_ZSt13__adjust_heapIN9__gnu_cxx17__normal_iteratorIPPKN7doctest6detail8TestCaseESt6vectorIS6_SaIS6_EEEElS6_NS0_5__ops15_Iter_comp_iterIPFbS6_S6_EEEEvT_T0_SI_T1_T2_
FN:243,_ZSt10__pop_heapIN9__gnu_cxx17__normal_iteratorIPPKN7doctest6detail8TestCaseESt6vectorIS6_SaIS6_EEEENS0_5__ops15_Iter_comp_iterIPFbS6_S6_EEEEvT_SH_SH_RT0_
FNDA:0,_ZSt10__pop_heapIN9__gnu_cxx17__normal_iteratorIPPKN7doctest6detail8TestCaseESt6vectorIS6_SaIS6_EEEENS0_5__ops15_Iter_comp_iterIPFbS6_S6_EEEEvT_SH_SH_RT0_
FN:326,_ZSt11__make_heapIN9__gnu_cxx17__normal_iteratorIPPKN7doctest6detail8TestCaseESt6vectorIS6_SaIS6_EEEENS0_5__ops15_Iter_comp_iterIPFbS6_S6_EEEEvT_SH_RT0_
FNDA:0,_ZSt11__make_heapIN9__gnu_cxx17__normal_iteratorIPPKN7doctest6detail8TestCaseESt6vectorIS6_SaIS6_EEEENS0_5__ops15_Iter_comp_iterIPFbS6_S6_EEEEvT_SH_RT0_
FN:402,_ZSt11__sort_heapIN9__gnu_cxx17__normal_iteratorIPPKN7doctest6detail8TestCaseESt6vectorIS6_SaIS6_EEEENS0_5__ops15_Iter_comp_iterIPFbS6_S6_EEEEvT_SH_RT0_
FNDA:0,_ZSt11__sort_heapIN9__gnu_cxx17__normal_iteratorIPPKN7doctest6detail8TestCaseESt6vectorIS6_SaIS6_EEEENS0_5__ops15_Iter_comp_iterIPFbS6_S6_EEEEvT_SH_RT0_
DA:128,0
DA:132,0
DA:133,0
DA:135,0
DA:136,0
DA:137,0
DA:139,0
DA:140,0
DA:214,0
DA:217,0
DA:218,0
DA:219,0
DA:221,0
DA:222,0
DA:224,0
DA:225,0
DA:226,0
DA:228,0
DA:230,0
DA:231,0
DA:233,0
DA:236,0
DA:237,0
DA:238,0
DA:239,0
DA:243,0
DA:251,0
DA:252,0
DA:253,0
DA:254,0
DA:255,0
DA:256,0
DA:326,0
DA:334,0
DA:335,0
DA:337,0
DA:338,0
DA:339,0
DA:341,0
DA:342,0
DA:344,0
DA:345,0
DA:346,0
DA:402,0
DA:405,0
DA:407,0
DA:408,0
DA:410,0
end_of_record
SF:/usr/include/c++/9/bits/stl_function.h
FN:385,_ZNKSt4lessISt4pairIiN7doctest6StringEEEclERKS3_S6_
FNDA:5,_ZNKSt4lessISt4pairIiN7doctest6StringEEEclERKS3_S6_
FN:385,_ZNKSt4lessIN7doctest6detail8TestCaseEEclERKS2_S5_
FNDA:0,_ZNKSt4lessIN7doctest6detail8TestCaseEEclERKS2_S5_
FN:385,_ZNKSt4lessIN7doctest6StringEEclERKS1_S4_
FNDA:0,_ZNKSt4lessIN7doctest6StringEEclERKS1_S4_
FN:385,_ZNKSt4lessISt6vectorIN7doctest16SubcaseSignatureESaIS2_EEEclERKS4_S7_
FNDA:0,_ZNKSt4lessISt6vectorIN7doctest16SubcaseSignatureESaIS2_EEEclERKS4_S7_
FN:1135,_ZNKSt9_IdentityIN7doctest6StringEEclERS1_
FNDA:0,_ZNKSt9_IdentityIN7doctest6StringEEclERS1_
FN:1139,_ZNKSt9_IdentityIN7doctest6StringEEclERKS1_
FNDA:0,_ZNKSt9_IdentityIN7doctest6StringEEclERKS1_
FN:1139,_ZNKSt9_IdentityIN7doctest6detail8TestCaseEEclERKS2_
FNDA:1,_ZNKSt9_IdentityIN7doctest6detail8TestCaseEEclERKS2_
FN:1139,_ZNKSt9_IdentityISt6vectorIN7doctest16SubcaseSignatureESaIS2_EEEclERKS4_
FNDA:0,_ZNKSt9_IdentityISt6vectorIN7doctest16SubcaseSignatureESaIS2_EEEclERKS4_
FN:1151,_ZNKSt10_Select1stISt4pairIKS0_IiN7doctest6StringEEPFPNS1_9IReporterERKNS1_14ContextOptionsEEEEclERSC_
FNDA:5,_ZNKSt10_Select1stISt4pairIKS0_IiN7doctest6StringEEPFPNS1_9IReporterERKNS1_14ContextOptionsEEEEclERSC_
FN:1155,_ZNKSt10_Select1stISt4pairIKS0_IiN7doctest6StringEEPFPNS1_9IReporterERKNS1_14ContextOptionsEEEEclERKSC_
FNDA:5,_ZNKSt10_Select1stISt4pairIKS0_IiN7doctest6StringEEPFPNS1_9IReporterERKNS1_14ContextOptionsEEEEclERKSC_
DA:385,5
DA:386,5
DA:385,0
DA:386,0
DA:385,0
DA:386,0
DA:385,0
DA:386,0
DA:1135,0
DA:1136,0
DA:1139,0
DA:1140,0
DA:1139,1
DA:1140,1
DA:1139,0
DA:1140,0
DA:1151,5
DA:1152,5
DA:1155,5
DA:1156,5
end_of_record
SF:/usr/include/c++/9/bits/stl_tree.h
FN:146,_ZNSt20_Rb_tree_key_compareISt4lessIN7doctest6StringEEEC2Ev
FNDA:1,_ZNSt20_Rb_tree_key_compareISt4lessIN7doctest6StringEEEC2Ev
FN:146,_ZNSt20_Rb_tree_key_compareISt4lessISt6vectorIN7doctest16SubcaseSignatureESaIS3_EEEEC2Ev
FNDA:1,_ZNSt20_Rb_tree_key_compareISt4lessISt6vectorIN7doctest16SubcaseSignatureESaIS3_EEEEC2Ev
FN:146,_ZNSt20_Rb_tree_key_compareISt4lessISt4pairIiN7doctest6StringEEEEC2Ev
FNDA:2,_ZNSt20_Rb_tree_key_compareISt4lessISt4pairIiN7doctest6StringEEEEC2Ev
FN:146,_ZNSt20_Rb_tree_key_compareISt4lessIN7doctest6detail8TestCaseEEEC2Ev
FNDA:1,_ZNSt20_Rb_tree_key_compareISt4lessIN7doctest6detail8TestCaseEEEC2Ev
FN:173,_ZNSt15_Rb_tree_headerC2Ev
FNDA:5,_ZNSt15_Rb_tree_headerC2Ev
FN:206,_ZNSt15_Rb_tree_header8_M_resetEv
FNDA:6,_ZNSt15_Rb_tree_header8_M_resetEv
FN:234,_ZNSt13_Rb_tree_nodeIN7doctest6detail8TestCaseEE9_M_valptrEv
FNDA:2,_ZNSt13_Rb_tree_nodeIN7doctest6detail8TestCaseEE9_M_valptrEv
FN:234,_ZNSt13_Rb_tree_nodeISt6vectorIN7doctest16SubcaseSignatureESaIS2_EEE9_M_valptrEv
FNDA:0,_ZNSt13_Rb_tree_nodeISt6vectorIN7doctest16SubcaseSignatureESaIS2_EEE9_M_valptrEv
FN:234,_ZNSt13_Rb_tree_nodeIN7doctest6StringEE9_M_valptrEv
FNDA:0,_ZNSt13_Rb_tree_nodeIN7doctest6StringEE9_M_valptrEv
FN:234,_ZNSt13_Rb_tree_nodeISt4pairIKS0_IiN7doctest6StringEEPFPNS1_9IReporterERKNS1_14ContextOptionsEEEE9_M_valptrEv
FNDA:9,_ZNSt13_Rb_tree_nodeISt4pairIKS0_IiN7doctest6StringEEPFPNS1_9IReporterERKNS1_14ContextOptionsEEEE9_M_valptrEv
FN:238,_ZNKSt13_Rb_tree_nodeIN7doctest6StringEE9_M_valptrEv
FNDA:0,_ZNKSt13_Rb_tree_nodeIN7doctest6StringEE9_M_valptrEv
FN:238,_ZNKSt13_Rb_tree_nodeISt4pairIKS0_IiN7doctest6StringEEPFPNS1_9IReporterERKNS1_14ContextOptionsEEEE9_M_valptrEv
FNDA:5,_ZNKSt13_Rb_tree_nodeISt4pairIKS0_IiN7doctest6StringEEPFPNS1_9IReporterERKNS1_14ContextOptionsEEEE9_M_valptrEv
FN:238,_ZNKSt13_Rb_tree_nodeIN7doctest6detail8TestCaseEE9_M_valptrEv
FNDA:1,_ZNKSt13_Rb_tree_nodeIN7doctest6detail8TestCaseEE9_M_valptrEv
FN:238,_ZNKSt13_Rb_tree_nodeISt6vectorIN7doctest16SubcaseSignatureESaIS2_EEE9_M_valptrEv
FNDA:0,_ZNKSt13_Rb_tree_nodeISt6vectorIN7doctest16SubcaseSignatureESaIS2_EEE9_M_valptrEv
FN:273,_ZNSt17_Rb_tree_iteratorISt4pairIKS0_IiN7doctest6StringEEPFPNS1_9IReporterERKNS1_14ContextOptionsEEEEC2EPSt18_Rb_tree_node_base
FNDA:13,_ZNSt17_Rb_tree_iteratorISt4pairIKS0_IiN7doctest6StringEEPFPNS1_9IReporterERKNS1_14ContextOptionsEEEEC2EPSt18_Rb_tree_node_base
FN:273,_ZNSt17_Rb_tree_iteratorIN7doctest6StringEEC2EPSt18_Rb_tree_node_base
FNDA:0,_ZNSt17_Rb_tree_iteratorIN7doctest6StringEEC2EPSt18_Rb_tree_node_base
FN:273,_ZNSt17_Rb_tree_iteratorIN7doctest6detail8TestCaseEEC2EPSt18_Rb_tree_node_base
FNDA:3,_ZNSt17_Rb_tree_iteratorIN7doctest6detail8TestCaseEEC2EPSt18_Rb_tree_node_base
FN:273,_ZNSt17_Rb_tree_iteratorISt6vectorIN7doctest16SubcaseSignatureESaIS2_EEEC2EPSt18_Rb_tree_node_base
FNDA:0,_ZNSt17_Rb_tree_iteratorISt6vectorIN7doctest16SubcaseSignatureESaIS2_EEEC2EPSt18_Rb_tree_node_base
FN:277,_ZNKSt17_Rb_tree_iteratorISt4pairIKS0_IiN7doctest6StringEEPFPNS1_9IReporterERKNS1_14ContextOptionsEEEEdeEv
FNDA:3,_ZNKSt17_Rb_tree_iteratorISt4pairIKS0_IiN7doctest6StringEEPFPNS1_9IReporterERKNS1_14ContextOptionsEEEEdeEv
FN:285,_ZNSt17_Rb_tree_iteratorISt4pairIKS0_IiN7doctest6StringEEPFPNS1_9IReporterERKNS1_14ContextOptionsEEEEppEv
FNDA:3,_ZNSt17_Rb_tree_iteratorISt4pairIKS0_IiN7doctest6StringEEPFPNS1_9IReporterERKNS1_14ContextOptionsEEEEppEv
FN:300,_ZNSt17_Rb_tree_iteratorISt4pairIKS0_IiN7doctest6StringEEPFPNS1_9IReporterERKNS1_14ContextOptionsEEEEmmEv
FNDA:0,_ZNSt17_Rb_tree_iteratorISt4pairIKS0_IiN7doctest6StringEEPFPNS1_9IReporterERKNS1_14ContextOptionsEEEEmmEv
FN:300,_ZNSt17_Rb_tree_iteratorIN7doctest6StringEEmmEv
FNDA:0,_ZNSt17_Rb_tree_iteratorIN7doctest6StringEEmmEv
FN:300,_ZNSt17_Rb_tree_iteratorISt6vectorIN7doctest16SubcaseSignatureESaIS2_EEEmmEv
FNDA:0,_ZNSt17_Rb_tree_iteratorISt6vectorIN7doctest16SubcaseSignatureESaIS2_EEEmmEv
FN:300,_ZNSt17_Rb_tree_iteratorIN7doctest6detail8TestCaseEEmmEv
FNDA:0,_ZNSt17_Rb_tree_iteratorIN7doctest6detail8TestCaseEEmmEv
FN:315,_ZSteqRKSt17_Rb_tree_iteratorISt4pairIKS0_IiN7doctest6StringEEPFPNS1_9IReporterERKNS1_14ContextOptionsEEEESF_
FNDA:3,_ZSteqRKSt17_Rb_tree_iteratorISt4pairIKS0_IiN7doctest6StringEEPFPNS1_9IReporterERKNS1_14ContextOptionsEEEESF_
FN:315,_ZSteqRKSt17_Rb_tree_iteratorISt6vectorIN7doctest16SubcaseSignatureESaIS2_EEES7_
FNDA:0,_ZSteqRKSt17_Rb_tree_iteratorISt6vectorIN7doctest16SubcaseSignatureESaIS2_EEES7_
FN:315,_ZSteqRKSt17_Rb_tree_iteratorIN7doctest6StringEES4_
FNDA:0,_ZSteqRKSt17_Rb_tree_iteratorIN7doctest6StringEES4_
FN:315,_ZSteqRKSt17_Rb_tree_iteratorIN7doctest6detail8TestCaseEES5_
FNDA:1,_ZSteqRKSt17_Rb_tree_iteratorIN7doctest6detail8TestCaseEES5_
FN:319,_ZStneRKSt17_Rb_tree_iteratorISt4pairIKS0_IiN7doctest6StringEEPFPNS1_9IReporterERKNS1_14ContextOptionsEEEESF_
FNDA:5,_ZStneRKSt17_Rb_tree_iteratorISt4pairIKS0_IiN7doctest6StringEEPFPNS1_9IReporterERKNS1_14ContextOptionsEEEESF_
FN:345,_ZNSt23_Rb_tree_const_iteratorISt6vectorIN7doctest16SubcaseSignatureESaIS2_EEEC2EPKSt18_Rb_tree_node_base
FNDA:0,_ZNSt23_Rb_tree_const_iteratorISt6vectorIN7doctest16SubcaseSignatureESaIS2_EEEC2EPKSt18_Rb_tree_node_base
FN:345,_ZNSt23_Rb_tree_const_iteratorISt4pairIKS0_IiN7doctest6StringEEPFPNS1_9IReporterERKNS1_14ContextOptionsEEEEC2EPKSt18_Rb_tree_node_base
FNDA:0,_ZNSt23_Rb_tree_const_iteratorISt4pairIKS0_IiN7doctest6StringEEPFPNS1_9IReporterERKNS1_14ContextOptionsEEEEC2EPKSt18_Rb_tree_node_base
FN:345,_ZNSt23_Rb_tree_const_iteratorIN7doctest6detail8TestCaseEEC2EPKSt18_Rb_tree_node_base
FNDA:2,_ZNSt23_Rb_tree_const_iteratorIN7doctest6detail8TestCaseEEC2EPKSt18_Rb_tree_node_base
FN:345,_ZNSt23_Rb_tree_const_iteratorIN7doctest6StringEEC2EPKSt18_Rb_tree_node_base
FNDA:0,_ZNSt23_Rb_tree_const_iteratorIN7doctest6StringEEC2EPKSt18_Rb_tree_node_base
FN:348,_ZNSt23_Rb_tree_const_iteratorIN7doctest6detail8TestCaseEEC2ERKSt17_Rb_tree_iteratorIS2_E
FNDA:1,_ZNSt23_Rb_tree_const_iteratorIN7doctest6detail8TestCaseEEC2ERKSt17_Rb_tree_iteratorIS2_E
FN:348,_ZNSt23_Rb_tree_const_iteratorIN7doctest6StringEEC2ERKSt17_Rb_tree_iteratorIS1_E
FNDA:0,_ZNSt23_Rb_tree_const_iteratorIN7doctest6StringEEC2ERKSt17_Rb_tree_iteratorIS1_E
FN:348,_ZNSt23_Rb_tree_const_iteratorISt6vectorIN7doctest16SubcaseSignatureESaIS2_EEEC2ERKSt17_Rb_tree_iteratorIS4_E
FNDA:0,_ZNSt23_Rb_tree_const_iteratorISt6vectorIN7doctest16SubcaseSignatureESaIS2_EEEC2ERKSt17_Rb_tree_iteratorIS4_E
FN:356,_ZNKSt23_Rb_tree_const_iteratorISt4pairIKS0_IiN7doctest6StringEEPFPNS1_9IReporterERKNS1_14ContextOptionsEEEEdeEv
FNDA:0,_ZNKSt23_Rb_tree_const_iteratorISt4pairIKS0_IiN7doctest6StringEEPFPNS1_9IReporterERKNS1_14ContextOptionsEEEEdeEv
FN:356,_ZNKSt23_Rb_tree_const_iteratorIN7doctest6detail8TestCaseEEdeEv
FNDA:1,_ZNKSt23_Rb_tree_const_iteratorIN7doctest6detail8TestCaseEEdeEv
FN:364,_ZNSt23_Rb_tree_const_iteratorIN7doctest6detail8TestCaseEEppEv
FNDA:1,_ZNSt23_Rb_tree_const_iteratorIN7doctest6detail8TestCaseEEppEv
FN:364,_ZNSt23_Rb_tree_const_iteratorISt4pairIKS0_IiN7doctest6StringEEPFPNS1_9IReporterERKNS1_14ContextOptionsEEEEppEv
FNDA:0,_ZNSt23_Rb_tree_const_iteratorISt4pairIKS0_IiN7doctest6StringEEPFPNS1_9IReporterERKNS1_14ContextOptionsEEEEppEv
FN:394,_ZSteqRKSt23_Rb_tree_const_iteratorIN7doctest6StringEES4_
FNDA:0,_ZSteqRKSt23_Rb_tree_const_iteratorIN7doctest6StringEES4_
FN:394,_ZSteqRKSt23_Rb_tree_const_iteratorISt6vectorIN7doctest16SubcaseSignatureESaIS2_EEES7_
FNDA:0,_ZSteqRKSt23_Rb_tree_const_iteratorISt6vectorIN7doctest16SubcaseSignatureESaIS2_EEES7_
FN:398,_ZStneRKSt23_Rb_tree_const_iteratorIN7doctest6detail8TestCaseEES5_
FNDA:2,_ZStneRKSt23_Rb_tree_const_iteratorIN7doctest6detail8TestCaseEES5_
FN:398,_ZStneRKSt23_Rb_tree_const_iteratorISt4pairIKS0_IiN7doctest6StringEEPFPNS1_9IReporterERKNS1_14ContextOptionsEEEESF_
FNDA:0,_ZStneRKSt23_Rb_tree_const_iteratorISt4pairIKS0_IiN7doctest6StringEEPFPNS1_9IReporterERKNS1_14ContextOptionsEEEESF_
FN:538,_ZNSt8_Rb_treeISt4pairIiN7doctest6StringEES0_IKS3_PFPNS1_9IReporterERKNS1_14ContextOptionsEEESt10_Select1stISC_ESt4lessIS3_ESaISC_EE11_Alloc_nodeC2ERSI_
FNDA:3,_ZNSt8_Rb_treeISt4pairIiN7doctest6StringEES0_IKS3_PFPNS1_9IReporterERKNS1_14ContextOptionsEEESt10_Select1stISC_ESt4lessIS3_ESaISC_EE11_Alloc_nodeC2ERSI_
FN:538,_ZNSt8_Rb_treeISt6vectorIN7doctest16SubcaseSignatureESaIS2_EES4_St9_IdentityIS4_ESt4lessIS4_ESaIS4_EE11_Alloc_nodeC2ERSA_
FNDA:0,_ZNSt8_Rb_treeISt6vectorIN7doctest16SubcaseSignatureESaIS2_EES4_St9_IdentityIS4_ESt4lessIS4_ESaIS4_EE11_Alloc_nodeC2ERSA_
FN:538,_ZNSt8_Rb_treeIN7doctest6StringES1_St9_IdentityIS1_ESt4lessIS1_ESaIS1_EE11_Alloc_nodeC2ERS7_
FNDA:0,_ZNSt8_Rb_treeIN7doctest6StringES1_St9_IdentityIS1_ESt4lessIS1_ESaIS1_EE11_Alloc_nodeC2ERS7_
FN:538,_ZNSt8_Rb_treeIN7doctest6detail8TestCaseES2_St9_IdentityIS2_ESt4lessIS2_ESaIS2_EE11_Alloc_nodeC2ERS8_
FNDA:1,_ZNSt8_Rb_treeIN7doctest6detail8TestCaseES2_St9_IdentityIS2_ESt4lessIS2_ESaIS2_EE11_Alloc_nodeC2ERS8_
FN:546,_ZNKSt8_Rb_treeISt4pairIiN7doctest6StringEES0_IKS3_PFPNS1_9IReporterERKNS1_14ContextOptionsEEESt10_Select1stISC_ESt4lessIS3_ESaISC_EE11_Alloc_nodeclISC_EEPSt13_Rb_tree_nodeISC_EOT_
FNDA:3,_ZNKSt8_Rb_treeISt4pairIiN7doctest6StringEES0_IKS3_PFPNS1_9IReporterERKNS1_14ContextOptionsEEESt10_Select1stISC_ESt4lessIS3_ESaISC_EE11_Alloc_nodeclISC_EEPSt13_Rb_tree_nodeISC_EOT_
FN:546,_ZNKSt8_Rb_treeISt6vectorIN7doctest16SubcaseSignatureESaIS2_EES4_St9_IdentityIS4_ESt4lessIS4_ESaIS4_EE11_Alloc_nodeclIRKS4_EEPSt13_Rb_tree_nodeIS4_EOT_
FNDA:0,_ZNKSt8_Rb_treeISt6vectorIN7doctest16SubcaseSignatureESaIS2_EES4_St9_IdentityIS4_ESt4lessIS4_ESaIS4_EE11_Alloc_nodeclIRKS4_EEPSt13_Rb_tree_nodeIS4_EOT_
FN:546,_ZNKSt8_Rb_treeIN7doctest6StringES1_St9_IdentityIS1_ESt4lessIS1_ESaIS1_EE11_Alloc_nodeclIS1_EEPSt13_Rb_tree_nodeIS1_EOT_
FNDA:0,_ZNKSt8_Rb_treeIN7doctest6StringES1_St9_IdentityIS1_ESt4lessIS1_ESaIS1_EE11_Alloc_nodeclIS1_EEPSt13_Rb_tree_nodeIS1_EOT_
FN:546,_ZNKSt8_Rb_treeIN7doctest6detail8TestCaseES2_St9_IdentityIS2_ESt4lessIS2_ESaIS2_EE11_Alloc_nodeclIRKS2_EEPSt13_Rb_tree_nodeIS2_EOT_
FNDA:1,_ZNKSt8_Rb_treeIN7doctest6detail8TestCaseES2_St9_IdentityIS2_ESt4lessIS2_ESaIS2_EE11_Alloc_nodeclIRKS2_EEPSt13_Rb_tree_nodeIS2_EOT_
FN:566,_ZNSt8_Rb_treeIN7doctest6detail8TestCaseES2_St9_IdentityIS2_ESt4lessIS2_ESaIS2_EE21_M_get_Node_allocatorEv
FNDA:4,_ZNSt8_Rb_treeIN7doctest6detail8TestCaseES2_St9_IdentityIS2_ESt4lessIS2_ESaIS2_EE21_M_get_Node_allocatorEv
FN:566,_ZNSt8_Rb_treeISt4pairIiN7doctest6StringEES0_IKS3_PFPNS1_9IReporterERKNS1_14ContextOptionsEEESt10_Select1stISC_ESt4lessIS3_ESaISC_EE21_M_get_Node_allocatorEv
FNDA:12,_ZNSt8_Rb_treeISt4pairIiN7doctest6StringEES0_IKS3_PFPNS1_9IReporterERKNS1_14ContextOptionsEEESt10_Select1stISC_ESt4lessIS3_ESaISC_EE21_M_get_Node_allocatorEv
FN:566,_ZNSt8_Rb_treeIN7doctest6StringES1_St9_IdentityIS1_ESt4lessIS1_ESaIS1_EE21_M_get_Node_allocatorEv
FNDA:0,_ZNSt8_Rb_treeIN7doctest6StringES1_St9_IdentityIS1_ESt4lessIS1_ESaIS1_EE21_M_get_Node_allocatorEv
FN:566,_ZNSt8_Rb_treeISt6vectorIN7doctest16SubcaseSignatureESaIS2_EES4_St9_IdentityIS4_ESt4lessIS4_ESaIS4_EE21_M_get_Node_allocatorEv
FNDA:0,_ZNSt8_Rb_treeISt6vectorIN7doctest16SubcaseSignatureESaIS2_EES4_St9_IdentityIS4_ESt4lessIS4_ESaIS4_EE21_M_get_Node_allocatorEv
FN:579,_ZNSt8_Rb_treeISt6vectorIN7doctest16SubcaseSignatureESaIS2_EES4_St9_IdentityIS4_ESt4lessIS4_ESaIS4_EE11_M_get_nodeEv
FNDA:0,_ZNSt8_Rb_treeISt6vectorIN7doctest16SubcaseSignatureESaIS2_EES4_St9_IdentityIS4_ESt4lessIS4_ESaIS4_EE11_M_get_nodeEv
FN:579,_ZNSt8_Rb_treeISt4pairIiN7doctest6StringEES0_IKS3_PFPNS1_9IReporterERKNS1_14ContextOptionsEEESt10_Select1stISC_ESt4lessIS3_ESaISC_EE11_M_get_nodeEv
FNDA:3,_ZNSt8_Rb_treeISt4pairIiN7doctest6StringEES0_IKS3_PFPNS1_9IReporterERKNS1_14ContextOptionsEEESt10_Select1stISC_ESt4lessIS3_ESaISC_EE11_M_get_nodeEv
FN:579,_ZNSt8_Rb_treeIN7doctest6detail8TestCaseES2_St9_IdentityIS2_ESt4lessIS2_ESaIS2_EE11_M_get_nodeEv
FNDA:1,_ZNSt8_Rb_treeIN7doctest6detail8TestCaseES2_St9_IdentityIS2_ESt4lessIS2_ESaIS2_EE11_M_get_nodeEv
FN:579,_ZNSt8_Rb_treeIN7doctest6StringES1_St9_IdentityIS1_ESt4lessIS1_ESaIS1_EE11_M_get_nodeEv
FNDA:0,_ZNSt8_Rb_treeIN7doctest6StringES1_St9_IdentityIS1_ESt4lessIS1_ESaIS1_EE11_M_get_nodeEv
FN:583,_ZNSt8_Rb_treeIN7doctest6StringES1_St9_IdentityIS1_ESt4lessIS1_ESaIS1_EE11_M_put_nodeEPSt13_Rb_tree_nodeIS1_E
FNDA:0,_ZNSt8_Rb_treeIN7doctest6StringES1_St9_IdentityIS1_ESt4lessIS1_ESaIS1_EE11_M_put_nodeEPSt13_Rb_tree_nodeIS1_E
FN:583,_ZNSt8_Rb_treeISt4pairIiN7doctest6StringEES0_IKS3_PFPNS1_9IReporterERKNS1_14ContextOptionsEEESt10_Select1stISC_ESt4lessIS3_ESaISC_EE11_M_put_nodeEPSt13_Rb_tree_nodeISC_E
FNDA:3,_ZNSt8_Rb_treeISt4pairIiN7doctest6StringEES0_IKS3_PFPNS1_9IReporterERKNS1_14ContextOptionsEEESt10_Select1stISC_ESt4lessIS3_ESaISC_EE11_M_put_nodeEPSt13_Rb_tree_nodeISC_E
FN:583,_ZNSt8_Rb_treeIN7doctest6detail8TestCaseES2_St9_IdentityIS2_ESt4lessIS2_ESaIS2_EE11_M_put_nodeEPSt13_Rb_tree_nodeIS2_E
FNDA:1,_ZNSt8_Rb_treeIN7doctest6detail8TestCaseES2_St9_IdentityIS2_ESt4lessIS2_ESaIS2_EE11_M_put_nodeEPSt13_Rb_tree_nodeIS2_E
FN:583,_ZNSt8_Rb_treeISt6vectorIN7doctest16SubcaseSignatureESaIS2_EES4_St9_IdentityIS4_ESt4lessIS4_ESaIS4_EE11_M_put_nodeEPSt13_Rb_tree_nodeIS4_E
FNDA:0,_ZNSt8_Rb_treeISt6vectorIN7doctest16SubcaseSignatureESaIS2_EES4_St9_IdentityIS4_ESt4lessIS4_ESaIS4_EE11_M_put_nodeEPSt13_Rb_tree_nodeIS4_E
FN:609,_ZNSt8_Rb_treeIN7doctest6detail8TestCaseES2_St9_IdentityIS2_ESt4lessIS2_ESaIS2_EE17_M_construct_nodeIJRKS2_EEEvPSt13_Rb_tree_nodeIS2_EDpOT_
FNDA:1,_ZNSt8_Rb_treeIN7doctest6detail8TestCaseES2_St9_IdentityIS2_ESt4lessIS2_ESaIS2_EE17_M_construct_nodeIJRKS2_EEEvPSt13_Rb_tree_nodeIS2_EDpOT_
FN:609,_ZNSt8_Rb_treeISt4pairIiN7doctest6StringEES0_IKS3_PFPNS1_9IReporterERKNS1_14ContextOptionsEEESt10_Select1stISC_ESt4lessIS3_ESaISC_EE17_M_construct_nodeIJSC_EEEvPSt13_Rb_tree_nodeISC_EDpOT_
FNDA:3,_ZNSt8_Rb_treeISt4pairIiN7doctest6StringEES0_IKS3_PFPNS1_9IReporterERKNS1_14ContextOptionsEEESt10_Select1stISC_ESt4lessIS3_ESaISC_EE17_M_construct_nodeIJSC_EEEvPSt13_Rb_tree_nodeISC_EDpOT_
FN:609,_ZNSt8_Rb_treeISt6vectorIN7doctest16SubcaseSignatureESaIS2_EES4_St9_IdentityIS4_ESt4lessIS4_ESaIS4_EE17_M_construct_nodeIJRKS4_EEEvPSt13_Rb_tree_nodeIS4_EDpOT_
FNDA:0,_ZNSt8_Rb_treeISt6vectorIN7doctest16SubcaseSignatureESaIS2_EES4_St9_IdentityIS4_ESt4lessIS4_ESaIS4_EE17_M_construct_nodeIJRKS4_EEEvPSt13_Rb_tree_nodeIS4_EDpOT_
FN:609,_ZNSt8_Rb_treeIN7doctest6StringES1_St9_IdentityIS1_ESt4lessIS1_ESaIS1_EE17_M_construct_nodeIJS1_EEEvPSt13_Rb_tree_nodeIS1_EDpOT_
FNDA:0,_ZNSt8_Rb_treeIN7doctest6StringES1_St9_IdentityIS1_ESt4lessIS1_ESaIS1_EE17_M_construct_nodeIJS1_EEEvPSt13_Rb_tree_nodeIS1_EDpOT_
FN:628,_ZNSt8_Rb_treeISt4pairIiN7doctest6StringEES0_IKS3_PFPNS1_9IReporterERKNS1_14ContextOptionsEEESt10_Select1stISC_ESt4lessIS3_ESaISC_EE14_M_create_nodeIJSC_EEEPSt13_Rb_tree_nodeISC_EDpOT_
FNDA:3,_ZNSt8_Rb_treeISt4pairIiN7doctest6StringEES0_IKS3_PFPNS1_9IReporterERKNS1_14ContextOptionsEEESt10_Select1stISC_ESt4lessIS3_ESaISC_EE14_M_create_nodeIJSC_EEEPSt13_Rb_tree_nodeISC_EDpOT_
FN:628,_ZNSt8_Rb_treeIN7doctest6StringES1_St9_IdentityIS1_ESt4lessIS1_ESaIS1_EE14_M_create_nodeIJS1_EEEPSt13_Rb_tree_nodeIS1_EDpOT_
FNDA:0,_ZNSt8_Rb_treeIN7doctest6StringES1_St9_IdentityIS1_ESt4lessIS1_ESaIS1_EE14_M_create_nodeIJS1_EEEPSt13_Rb_tree_nodeIS1_EDpOT_
FN:628,_ZNSt8_Rb_treeIN7doctest6detail8TestCaseES2_St9_IdentityIS2_ESt4lessIS2_ESaIS2_EE14_M_create_nodeIJRKS2_EEEPSt13_Rb_tree_nodeIS2_EDpOT_
FNDA:1,_ZNSt8_Rb_treeIN7doctest6detail8TestCaseES2_St9_IdentityIS2_ESt4lessIS2_ESaIS2_EE14_M_create_nodeIJRKS2_EEEPSt13_Rb_tree_nodeIS2_EDpOT_
FN:628,_ZNSt8_Rb_treeISt6vectorIN7doctest16SubcaseSignatureESaIS2_EES4_St9_IdentityIS4_ESt4lessIS4_ESaIS4_EE14_M_create_nodeIJRKS4_EEEPSt13_Rb_tree_nodeIS4_EDpOT_
FNDA:0,_ZNSt8_Rb_treeISt6vectorIN7doctest16SubcaseSignatureESaIS2_EES4_St9_IdentityIS4_ESt4lessIS4_ESaIS4_EE14_M_create_nodeIJRKS4_EEEPSt13_Rb_tree_nodeIS4_EDpOT_
FN:637,_ZNSt8_Rb_treeISt6vectorIN7doctest16SubcaseSignatureESaIS2_EES4_St9_IdentityIS4_ESt4lessIS4_ESaIS4_EE15_M_destroy_nodeEPSt13_Rb_tree_nodeIS4_E
FNDA:0,_ZNSt8_Rb_treeISt6vectorIN7doctest16SubcaseSignatureESaIS2_EES4_St9_IdentityIS4_ESt4lessIS4_ESaIS4_EE15_M_destroy_nodeEPSt13_Rb_tree_nodeIS4_E
FN:637,_ZNSt8_Rb_treeIN7doctest6StringES1_St9_IdentityIS1_ESt4lessIS1_ESaIS1_EE15_M_destroy_nodeEPSt13_Rb_tree_nodeIS1_E
FNDA:0,_ZNSt8_Rb_treeIN7doctest6StringES1_St9_IdentityIS1_ESt4lessIS1_ESaIS1_EE15_M_destroy_nodeEPSt13_Rb_tree_nodeIS1_E
FN:637,_ZNSt8_Rb_treeISt4pairIiN7doctest6StringEES0_IKS3_PFPNS1_9IReporterERKNS1_14ContextOptionsEEESt10_Select1stISC_ESt4lessIS3_ESaISC_EE15_M_destroy_nodeEPSt13_Rb_tree_nodeISC_E
FNDA:3,_ZNSt8_Rb_treeISt4pairIiN7doctest6StringEES0_IKS3_PFPNS1_9IReporterERKNS1_14ContextOptionsEEESt10_Select1stISC_ESt4lessIS3_ESaISC_EE15_M_destroy_nodeEPSt13_Rb_tree_nodeISC_E
FN:637,_ZNSt8_Rb_treeIN7doctest6detail8TestCaseES2_St9_IdentityIS2_ESt4lessIS2_ESaIS2_EE15_M_destroy_nodeEPSt13_Rb_tree_nodeIS2_E
FNDA:1,_ZNSt8_Rb_treeIN7doctest6detail8TestCaseES2_St9_IdentityIS2_ESt4lessIS2_ESaIS2_EE15_M_destroy_nodeEPSt13_Rb_tree_nodeIS2_E
FN:648,_ZNSt8_Rb_treeISt6vectorIN7doctest16SubcaseSignatureESaIS2_EES4_St9_IdentityIS4_ESt4lessIS4_ESaIS4_EE12_M_drop_nodeEPSt13_Rb_tree_nodeIS4_E
FNDA:0,_ZNSt8_Rb_treeISt6vectorIN7doctest16SubcaseSignatureESaIS2_EES4_St9_IdentityIS4_ESt4lessIS4_ESaIS4_EE12_M_drop_nodeEPSt13_Rb_tree_nodeIS4_E
FN:648,_ZNSt8_Rb_treeISt4pairIiN7doctest6StringEES0_IKS3_PFPNS1_9IReporterERKNS1_14ContextOptionsEEESt10_Select1stISC_ESt4lessIS3_ESaISC_EE12_M_drop_nodeEPSt13_Rb_tree_nodeISC_E
FNDA:3,_ZNSt8_Rb_treeISt4pairIiN7doctest6StringEES0_IKS3_PFPNS1_9IReporterERKNS1_14ContextOptionsEEESt10_Select1stISC_ESt4lessIS3_ESaISC_EE12_M_drop_nodeEPSt13_Rb_tree_nodeISC_E
FN:648,_ZNSt8_Rb_treeIN7doctest6StringES1_St9_IdentityIS1_ESt4lessIS1_ESaIS1_EE12_M_drop_nodeEPSt13_Rb_tree_nodeIS1_E
FNDA:0,_ZNSt8_Rb_treeIN7doctest6StringES1_St9_IdentityIS1_ESt4lessIS1_ESaIS1_EE12_M_drop_nodeEPSt13_Rb_tree_nodeIS1_E
FN:648,_ZNSt8_Rb_treeIN7doctest6detail8TestCaseES2_St9_IdentityIS2_ESt4lessIS2_ESaIS2_EE12_M_drop_nodeEPSt13_Rb_tree_nodeIS2_E
FNDA:1,_ZNSt8_Rb_treeIN7doctest6detail8TestCaseES2_St9_IdentityIS2_ESt4lessIS2_ESaIS2_EE12_M_drop_nodeEPSt13_Rb_tree_nodeIS2_E
FN:680,_ZNSt8_Rb_treeISt6vectorIN7doctest16SubcaseSignatureESaIS2_EES4_St9_IdentityIS4_ESt4lessIS4_ESaIS4_EE13_Rb_tree_implIS8_Lb1EEC2Ev
FNDA:1,_ZNSt8_Rb_treeISt6vectorIN7doctest16SubcaseSignatureESaIS2_EES4_St9_IdentityIS4_ESt4lessIS4_ESaIS4_EE13_Rb_tree_implIS8_Lb1EEC2Ev
FN:680,_ZNSt8_Rb_treeIN7doctest6detail8TestCaseES2_St9_IdentityIS2_ESt4lessIS2_ESaIS2_EE13_Rb_tree_implIS6_Lb1EEC2Ev
FNDA:1,_ZNSt8_Rb_treeIN7doctest6detail8TestCaseES2_St9_IdentityIS2_ESt4lessIS2_ESaIS2_EE13_Rb_tree_implIS6_Lb1EEC2Ev
FN:680,_ZNSt8_Rb_treeISt4pairIiN7doctest6StringEES0_IKS3_PFPNS1_9IReporterERKNS1_14ContextOptionsEEESt10_Select1stISC_ESt4lessIS3_ESaISC_EE13_Rb_tree_implISG_Lb1EEC2Ev
FNDA:2,_ZNSt8_Rb_treeISt4pairIiN7doctest6StringEES0_IKS3_PFPNS1_9IReporterERKNS1_14ContextOptionsEEESt10_Select1stISC_ESt4lessIS3_ESaISC_EE13_Rb_tree_implISG_Lb1EEC2Ev
FN:680,_ZNSt8_Rb_treeIN7doctest6StringES1_St9_IdentityIS1_ESt4lessIS1_ESaIS1_EE13_Rb_tree_implIS5_Lb1EEC2Ev
FNDA:1,_ZNSt8_Rb_treeIN7doctest6StringES1_St9_IdentityIS1_ESt4lessIS1_ESaIS1_EE13_Rb_tree_implIS5_Lb1EEC2Ev
FN:744,_ZNSt8_Rb_treeIN7doctest6detail8TestCaseES2_St9_IdentityIS2_ESt4lessIS2_ESaIS2_EE8_M_beginEv
FNDA:2,_ZNSt8_Rb_treeIN7doctest6detail8TestCaseES2_St9_IdentityIS2_ESt4lessIS2_ESaIS2_EE8_M_beginEv
FN:744,_ZNSt8_Rb_treeIN7doctest6StringES1_St9_IdentityIS1_ESt4lessIS1_ESaIS1_EE8_M_beginEv
FNDA:1,_ZNSt8_Rb_treeIN7doctest6StringES1_St9_IdentityIS1_ESt4lessIS1_ESaIS1_EE8_M_beginEv
FN:744,_ZNSt8_Rb_treeISt4pairIiN7doctest6StringEES0_IKS3_PFPNS1_9IReporterERKNS1_14ContextOptionsEEESt10_Select1stISC_ESt4lessIS3_ESaISC_EE8_M_beginEv
FNDA:5,_ZNSt8_Rb_treeISt4pairIiN7doctest6StringEES0_IKS3_PFPNS1_9IReporterERKNS1_14ContextOptionsEEESt10_Select1stISC_ESt4lessIS3_ESaISC_EE8_M_beginEv
FN:744,_ZNSt8_Rb_treeISt6vectorIN7doctest16SubcaseSignatureESaIS2_EES4_St9_IdentityIS4_ESt4lessIS4_ESaIS4_EE8_M_beginEv
FNDA:2,_ZNSt8_Rb_treeISt6vectorIN7doctest16SubcaseSignatureESaIS2_EES4_St9_IdentityIS4_ESt4lessIS4_ESaIS4_EE8_M_beginEv
FN:748,_ZNKSt8_Rb_treeIN7doctest6StringES1_St9_IdentityIS1_ESt4lessIS1_ESaIS1_EE8_M_beginEv
FNDA:0,_ZNKSt8_Rb_treeIN7doctest6StringES1_St9_IdentityIS1_ESt4lessIS1_ESaIS1_EE8_M_beginEv
FN:748,_ZNKSt8_Rb_treeISt6vectorIN7doctest16SubcaseSignatureESaIS2_EES4_St9_IdentityIS4_ESt4lessIS4_ESaIS4_EE8_M_beginEv
FNDA:0,_ZNKSt8_Rb_treeISt6vectorIN7doctest16SubcaseSignatureESaIS2_EES4_St9_IdentityIS4_ESt4lessIS4_ESaIS4_EE8_M_beginEv
FN:755,_ZNSt8_Rb_treeISt4pairIiN7doctest6StringEES0_IKS3_PFPNS1_9IReporterERKNS1_14ContextOptionsEEESt10_Select1stISC_ESt4lessIS3_ESaISC_EE6_M_endEv
FNDA:6,_ZNSt8_Rb_treeISt4pairIiN7doctest6StringEES0_IKS3_PFPNS1_9IReporterERKNS1_14ContextOptionsEEESt10_Select1stISC_ESt4lessIS3_ESaISC_EE6_M_endEv
FN:755,_ZNSt8_Rb_treeIN7doctest6StringES1_St9_IdentityIS1_ESt4lessIS1_ESaIS1_EE6_M_endEv
FNDA:0,_ZNSt8_Rb_treeIN7doctest6StringES1_St9_IdentityIS1_ESt4lessIS1_ESaIS1_EE6_M_endEv
FN:755,_ZNSt8_Rb_treeISt6vectorIN7doctest16SubcaseSignatureESaIS2_EES4_St9_IdentityIS4_ESt4lessIS4_ESaIS4_EE6_M_endEv
FNDA:0,_ZNSt8_Rb_treeISt6vectorIN7doctest16SubcaseSignatureESaIS2_EES4_St9_IdentityIS4_ESt4lessIS4_ESaIS4_EE6_M_endEv
FN:755,_ZNSt8_Rb_treeIN7doctest6detail8TestCaseES2_St9_IdentityIS2_ESt4lessIS2_ESaIS2_EE6_M_endEv
FNDA:2,_ZNSt8_Rb_treeIN7doctest6detail8TestCaseES2_St9_IdentityIS2_ESt4lessIS2_ESaIS2_EE6_M_endEv
FN:759,_ZNKSt8_Rb_treeIN7doctest6StringES1_St9_IdentityIS1_ESt4lessIS1_ESaIS1_EE6_M_endEv
FNDA:0,_ZNKSt8_Rb_treeIN7doctest6StringES1_St9_IdentityIS1_ESt4lessIS1_ESaIS1_EE6_M_endEv
FN:759,_ZNKSt8_Rb_treeISt6vectorIN7doctest16SubcaseSignatureESaIS2_EES4_St9_IdentityIS4_ESt4lessIS4_ESaIS4_EE6_M_endEv
FNDA:0,_ZNKSt8_Rb_treeISt6vectorIN7doctest16SubcaseSignatureESaIS2_EES4_St9_IdentityIS4_ESt4lessIS4_ESaIS4_EE6_M_endEv
FN:767,_ZNSt8_Rb_treeIN7doctest6StringES1_St9_IdentityIS1_ESt4lessIS1_ESaIS1_EE6_S_keyEPKSt13_Rb_tree_nodeIS1_E
FNDA:0,_ZNSt8_Rb_treeIN7doctest6StringES1_St9_IdentityIS1_ESt4lessIS1_ESaIS1_EE6_S_keyEPKSt13_Rb_tree_nodeIS1_E
FN:767,_ZNSt8_Rb_treeISt4pairIiN7doctest6StringEES0_IKS3_PFPNS1_9IReporterERKNS1_14ContextOptionsEEESt10_Select1stISC_ESt4lessIS3_ESaISC_EE6_S_keyEPKSt13_Rb_tree_nodeISC_E
FNDA:5,_ZNSt8_Rb_treeISt4pairIiN7doctest6StringEES0_IKS3_PFPNS1_9IReporterERKNS1_14ContextOptionsEEESt10_Select1stISC_ESt4lessIS3_ESaISC_EE6_S_keyEPKSt13_Rb_tree_nodeISC_E
FN:767,_ZNSt8_Rb_treeIN7doctest6detail8TestCaseES2_St9_IdentityIS2_ESt4lessIS2_ESaIS2_EE6_S_keyEPKSt13_Rb_tree_nodeIS2_E
FNDA:0,_ZNSt8_Rb_treeIN7doctest6detail8TestCaseES2_St9_IdentityIS2_ESt4lessIS2_ESaIS2_EE6_S_keyEPKSt13_Rb_tree_nodeIS2_E
FN:767,_ZNSt8_Rb_treeISt6vectorIN7doctest16SubcaseSignatureESaIS2_EES4_St9_IdentityIS4_ESt4lessIS4_ESaIS4_EE6_S_keyEPKSt13_Rb_tree_nodeIS4_E
FNDA:0,_ZNSt8_Rb_treeISt6vectorIN7doctest16SubcaseSignatureESaIS2_EES4_St9_IdentityIS4_ESt4lessIS4_ESaIS4_EE6_S_keyEPKSt13_Rb_tree_nodeIS4_E
FN:789,_ZNSt8_Rb_treeISt6vectorIN7doctest16SubcaseSignatureESaIS2_EES4_St9_IdentityIS4_ESt4lessIS4_ESaIS4_EE7_S_leftEPSt18_Rb_tree_node_base
FNDA:0,_ZNSt8_Rb_treeISt6vectorIN7doctest16SubcaseSignatureESaIS2_EES4_St9_IdentityIS4_ESt4lessIS4_ESaIS4_EE7_S_leftEPSt18_Rb_tree_node_base
FN:789,_ZNSt8_Rb_treeISt4pairIiN7doctest6StringEES0_IKS3_PFPNS1_9IReporterERKNS1_14ContextOptionsEEESt10_Select1stISC_ESt4lessIS3_ESaISC_EE7_S_leftEPSt18_Rb_tree_node_base
FNDA:6,_ZNSt8_Rb_treeISt4pairIiN7doctest6StringEES0_IKS3_PFPNS1_9IReporterERKNS1_14ContextOptionsEEESt10_Select1stISC_ESt4lessIS3_ESaISC_EE7_S_leftEPSt18_Rb_tree_node_base
FN:789,_ZNSt8_Rb_treeIN7doctest6StringES1_St9_IdentityIS1_ESt4lessIS1_ESaIS1_EE7_S_leftEPSt18_Rb_tree_node_base
FNDA:0,_ZNSt8_Rb_treeIN7doctest6StringES1_St9_IdentityIS1_ESt4lessIS1_ESaIS1_EE7_S_leftEPSt18_Rb_tree_node_base
FN:789,_ZNSt8_Rb_treeIN7doctest6detail8TestCaseES2_St9_IdentityIS2_ESt4lessIS2_ESaIS2_EE7_S_leftEPSt18_Rb_tree_node_base
FNDA:1,_ZNSt8_Rb_treeIN7doctest6detail8TestCaseES2_St9_IdentityIS2_ESt4lessIS2_ESaIS2_EE7_S_leftEPSt18_Rb_tree_node_base
FN:793,_ZNSt8_Rb_treeIN7doctest6StringES1_St9_IdentityIS1_ESt4lessIS1_ESaIS1_EE7_S_leftEPKSt18_Rb_tree_node_base
FNDA:0,_ZNSt8_Rb_treeIN7doctest6StringES1_St9_IdentityIS1_ESt4lessIS1_ESaIS1_EE7_S_leftEPKSt18_Rb_tree_node_base
FN:793,_ZNSt8_Rb_treeISt6vectorIN7doctest16SubcaseSignatureESaIS2_EES4_St9_IdentityIS4_ESt4lessIS4_ESaIS4_EE7_S_leftEPKSt18_Rb_tree_node_base
FNDA:0,_ZNSt8_Rb_treeISt6vectorIN7doctest16SubcaseSignatureESaIS2_EES4_St9_IdentityIS4_ESt4lessIS4_ESaIS4_EE7_S_leftEPKSt18_Rb_tree_node_base
FN:797,_ZNSt8_Rb_treeIN7doctest6detail8TestCaseES2_St9_IdentityIS2_ESt4lessIS2_ESaIS2_EE8_S_rightEPSt18_Rb_tree_node_base
FNDA:1,_ZNSt8_Rb_treeIN7doctest6detail8TestCaseES2_St9_IdentityIS2_ESt4lessIS2_ESaIS2_EE8_S_rightEPSt18_Rb_tree_node_base
FN:797,_ZNSt8_Rb_treeISt4pairIiN7doctest6StringEES0_IKS3_PFPNS1_9IReporterERKNS1_14ContextOptionsEEESt10_Select1stISC_ESt4lessIS3_ESaISC_EE8_S_rightEPSt18_Rb_tree_node_base
FNDA:3,_ZNSt8_Rb_treeISt4pairIiN7doctest6StringEES0_IKS3_PFPNS1_9IReporterERKNS1_14ContextOptionsEEESt10_Select1stISC_ESt4lessIS3_ESaISC_EE8_S_rightEPSt18_Rb_tree_node_base
FN:797,_ZNSt8_Rb_treeIN7doctest6StringES1_St9_IdentityIS1_ESt4lessIS1_ESaIS1_EE8_S_rightEPSt18_Rb_tree_node_base
FNDA:0,_ZNSt8_Rb_treeIN7doctest6StringES1_St9_IdentityIS1_ESt4lessIS1_ESaIS1_EE8_S_rightEPSt18_Rb_tree_node_base
FN:797,_ZNSt8_Rb_treeISt6vectorIN7doctest16SubcaseSignatureESaIS2_EES4_St9_IdentityIS4_ESt4lessIS4_ESaIS4_EE8_S_rightEPSt18_Rb_tree_node_base
FNDA:0,_ZNSt8_Rb_treeISt6vectorIN7doctest16SubcaseSignatureESaIS2_EES4_St9_IdentityIS4_ESt4lessIS4_ESaIS4_EE8_S_rightEPSt18_Rb_tree_node_base
FN:801,_ZNSt8_Rb_treeISt6vectorIN7doctest16SubcaseSignatureESaIS2_EES4_St9_IdentityIS4_ESt4lessIS4_ESaIS4_EE8_S_rightEPKSt18_Rb_tree_node_base
FNDA:0,_ZNSt8_Rb_treeISt6vectorIN7doctest16SubcaseSignatureESaIS2_EES4_St9_IdentityIS4_ESt4lessIS4_ESaIS4_EE8_S_rightEPKSt18_Rb_tree_node_base
FN:801,_ZNSt8_Rb_treeIN7doctest6StringES1_St9_IdentityIS1_ESt4lessIS1_ESaIS1_EE8_S_rightEPKSt18_Rb_tree_node_base
FNDA:0,_ZNSt8_Rb_treeIN7doctest6StringES1_St9_IdentityIS1_ESt4lessIS1_ESaIS1_EE8_S_rightEPKSt18_Rb_tree_node_base
FN:809,_ZNSt8_Rb_treeIN7doctest6StringES1_St9_IdentityIS1_ESt4lessIS1_ESaIS1_EE6_S_keyEPKSt18_Rb_tree_node_base
FNDA:0,_ZNSt8_Rb_treeIN7doctest6StringES1_St9_IdentityIS1_ESt4lessIS1_ESaIS1_EE6_S_keyEPKSt18_Rb_tree_node_base
FN:809,_ZNSt8_Rb_treeIN7doctest6detail8TestCaseES2_St9_IdentityIS2_ESt4lessIS2_ESaIS2_EE6_S_keyEPKSt18_Rb_tree_node_base
FNDA:0,_ZNSt8_Rb_treeIN7doctest6detail8TestCaseES2_St9_IdentityIS2_ESt4lessIS2_ESaIS2_EE6_S_keyEPKSt18_Rb_tree_node_base
FN:809,_ZNSt8_Rb_treeISt4pairIiN7doctest6StringEES0_IKS3_PFPNS1_9IReporterERKNS1_14ContextOptionsEEESt10_Select1stISC_ESt4lessIS3_ESaISC_EE6_S_keyEPKSt18_Rb_tree_node_base
FNDA:2,_ZNSt8_Rb_treeISt4pairIiN7doctest6StringEES0_IKS3_PFPNS1_9IReporterERKNS1_14ContextOptionsEEESt10_Select1stISC_ESt4lessIS3_ESaISC_EE6_S_keyEPKSt18_Rb_tree_node_base
FN:809,_ZNSt8_Rb_treeISt6vectorIN7doctest16SubcaseSignatureESaIS2_EES4_St9_IdentityIS4_ESt4lessIS4_ESaIS4_EE6_S_keyEPKSt18_Rb_tree_node_base
FNDA:0,_ZNSt8_Rb_treeISt6vectorIN7doctest16SubcaseSignatureESaIS2_EES4_St9_IdentityIS4_ESt4lessIS4_ESaIS4_EE6_S_keyEPKSt18_Rb_tree_node_base
FN:939,_ZNSt8_Rb_treeIN7doctest6StringES1_St9_IdentityIS1_ESt4lessIS1_ESaIS1_EEC2Ev
FNDA:1,_ZNSt8_Rb_treeIN7doctest6StringES1_St9_IdentityIS1_ESt4lessIS1_ESaIS1_EEC2Ev
FN:939,_ZNSt8_Rb_treeISt4pairIiN7doctest6StringEES0_IKS3_PFPNS1_9IReporterERKNS1_14ContextOptionsEEESt10_Select1stISC_ESt4lessIS3_ESaISC_EEC2Ev
FNDA:2,_ZNSt8_Rb_treeISt4pairIiN7doctest6StringEES0_IKS3_PFPNS1_9IReporterERKNS1_14ContextOptionsEEESt10_Select1stISC_ESt4lessIS3_ESaISC_EEC2Ev
FN:939,_ZNSt8_Rb_treeISt6vectorIN7doctest16SubcaseSignatureESaIS2_EES4_St9_IdentityIS4_ESt4lessIS4_ESaIS4_EEC2Ev
FNDA:1,_ZNSt8_Rb_treeISt6vectorIN7doctest16SubcaseSignatureESaIS2_EES4_St9_IdentityIS4_ESt4lessIS4_ESaIS4_EEC2Ev
FN:939,_ZNSt8_Rb_treeIN7doctest6detail8TestCaseES2_St9_IdentityIS2_ESt4lessIS2_ESaIS2_EEC2Ev
FNDA:1,_ZNSt8_Rb_treeIN7doctest6detail8TestCaseES2_St9_IdentityIS2_ESt4lessIS2_ESaIS2_EEC2Ev
FN:994,_ZNSt8_Rb_treeIN7doctest6detail8TestCaseES2_St9_IdentityIS2_ESt4lessIS2_ESaIS2_EED2Ev
FNDA:1,_ZNSt8_Rb_treeIN7doctest6detail8TestCaseES2_St9_IdentityIS2_ESt4lessIS2_ESaIS2_EED2Ev
FN:994,_ZNSt8_Rb_treeISt6vectorIN7doctest16SubcaseSignatureESaIS2_EES4_St9_IdentityIS4_ESt4lessIS4_ESaIS4_EED2Ev
FNDA:1,_ZNSt8_Rb_treeISt6vectorIN7doctest16SubcaseSignatureESaIS2_EES4_St9_IdentityIS4_ESt4lessIS4_ESaIS4_EED2Ev
FN:994,_ZNSt8_Rb_treeISt4pairIiN7doctest6StringEES0_IKS3_PFPNS1_9IReporterERKNS1_14ContextOptionsEEESt10_Select1stISC_ESt4lessIS3_ESaISC_EED2Ev
FNDA:2,_ZNSt8_Rb_treeISt4pairIiN7doctest6StringEES0_IKS3_PFPNS1_9IReporterERKNS1_14ContextOptionsEEESt10_Select1stISC_ESt4lessIS3_ESaISC_EED2Ev
FN:994,_ZNSt8_Rb_treeIN7doctest6StringES1_St9_IdentityIS1_ESt4lessIS1_ESaIS1_EED2Ev
FNDA:1,_ZNSt8_Rb_treeIN7doctest6StringES1_St9_IdentityIS1_ESt4lessIS1_ESaIS1_EED2Ev
FN:1006,_ZNSt8_Rb_treeIN7doctest6StringES1_St9_IdentityIS1_ESt4lessIS1_ESaIS1_EE5beginEv
FNDA:0,_ZNSt8_Rb_treeIN7doctest6StringES1_St9_IdentityIS1_ESt4lessIS1_ESaIS1_EE5beginEv
FN:1006,_ZNSt8_Rb_treeISt6vectorIN7doctest16SubcaseSignatureESaIS2_EES4_St9_IdentityIS4_ESt4lessIS4_ESaIS4_EE5beginEv
FNDA:0,_ZNSt8_Rb_treeISt6vectorIN7doctest16SubcaseSignatureESaIS2_EES4_St9_IdentityIS4_ESt4lessIS4_ESaIS4_EE5beginEv
FN:1006,_ZNSt8_Rb_treeIN7doctest6detail8TestCaseES2_St9_IdentityIS2_ESt4lessIS2_ESaIS2_EE5beginEv
FNDA:1,_ZNSt8_Rb_treeIN7doctest6detail8TestCaseES2_St9_IdentityIS2_ESt4lessIS2_ESaIS2_EE5beginEv
FN:1006,_ZNSt8_Rb_treeISt4pairIiN7doctest6StringEES0_IKS3_PFPNS1_9IReporterERKNS1_14ContextOptionsEEESt10_Select1stISC_ESt4lessIS3_ESaISC_EE5beginEv
FNDA:5,_ZNSt8_Rb_treeISt4pairIiN7doctest6StringEES0_IKS3_PFPNS1_9IReporterERKNS1_14ContextOptionsEEESt10_Select1stISC_ESt4lessIS3_ESaISC_EE5beginEv
FN:1010,_ZNKSt8_Rb_treeISt4pairIiN7doctest6StringEES0_IKS3_PFPNS1_9IReporterERKNS1_14ContextOptionsEEESt10_Select1stISC_ESt4lessIS3_ESaISC_EE5beginEv
FNDA:0,_ZNKSt8_Rb_treeISt4pairIiN7doctest6StringEES0_IKS3_PFPNS1_9IReporterERKNS1_14ContextOptionsEEESt10_Select1stISC_ESt4lessIS3_ESaISC_EE5beginEv
FN:1010,_ZNKSt8_Rb_treeIN7doctest6detail8TestCaseES2_St9_IdentityIS2_ESt4lessIS2_ESaIS2_EE5beginEv
FNDA:1,_ZNKSt8_Rb_treeIN7doctest6detail8TestCaseES2_St9_IdentityIS2_ESt4lessIS2_ESaIS2_EE5beginEv
FN:1014,_ZNSt8_Rb_treeISt4pairIiN7doctest6StringEES0_IKS3_PFPNS1_9IReporterERKNS1_14ContextOptionsEEESt10_Select1stISC_ESt4lessIS3_ESaISC_EE3endEv
FNDA:2,_ZNSt8_Rb_treeISt4pairIiN7doctest6StringEES0_IKS3_PFPNS1_9IReporterERKNS1_14ContextOptionsEEESt10_Select1stISC_ESt4lessIS3_ESaISC_EE3endEv
FN:1018,_ZNKSt8_Rb_treeIN7doctest6detail8TestCaseES2_St9_IdentityIS2_ESt4lessIS2_ESaIS2_EE3endEv
FNDA:1,_ZNKSt8_Rb_treeIN7doctest6detail8TestCaseES2_St9_IdentityIS2_ESt4lessIS2_ESaIS2_EE3endEv
FN:1018,_ZNKSt8_Rb_treeISt6vectorIN7doctest16SubcaseSignatureESaIS2_EES4_St9_IdentityIS4_ESt4lessIS4_ESaIS4_EE3endEv
FNDA:0,_ZNKSt8_Rb_treeISt6vectorIN7doctest16SubcaseSignatureESaIS2_EES4_St9_IdentityIS4_ESt4lessIS4_ESaIS4_EE3endEv
FN:1018,_ZNKSt8_Rb_treeISt4pairIiN7doctest6StringEES0_IKS3_PFPNS1_9IReporterERKNS1_14ContextOptionsEEESt10_Select1stISC_ESt4lessIS3_ESaISC_EE3endEv
FNDA:0,_ZNKSt8_Rb_treeISt4pairIiN7doctest6StringEES0_IKS3_PFPNS1_9IReporterERKNS1_14ContextOptionsEEESt10_Select1stISC_ESt4lessIS3_ESaISC_EE3endEv
FN:1018,_ZNKSt8_Rb_treeIN7doctest6StringES1_St9_IdentityIS1_ESt4lessIS1_ESaIS1_EE3endEv
FNDA:0,_ZNKSt8_Rb_treeIN7doctest6StringES1_St9_IdentityIS1_ESt4lessIS1_ESaIS1_EE3endEv
FN:1042,_ZNKSt8_Rb_treeISt4pairIiN7doctest6StringEES0_IKS3_PFPNS1_9IReporterERKNS1_14ContextOptionsEEESt10_Select1stISC_ESt4lessIS3_ESaISC_EE4sizeEv
FNDA:0,_ZNKSt8_Rb_treeISt4pairIiN7doctest6StringEES0_IKS3_PFPNS1_9IReporterERKNS1_14ContextOptionsEEESt10_Select1stISC_ESt4lessIS3_ESaISC_EE4sizeEv
FN:1264,_ZNSt8_Rb_treeISt6vectorIN7doctest16SubcaseSignatureESaIS2_EES4_St9_IdentityIS4_ESt4lessIS4_ESaIS4_EE5clearEv
FNDA:1,_ZNSt8_Rb_treeISt6vectorIN7doctest16SubcaseSignatureESaIS2_EES4_St9_IdentityIS4_ESt4lessIS4_ESaIS4_EE5clearEv
FN:1797,_ZNSt8_Rb_treeIN7doctest6StringES1_St9_IdentityIS1_ESt4lessIS1_ESaIS1_EE10_M_insert_IS1_NS7_11_Alloc_nodeEEESt17_Rb_tree_iteratorIS1_EPSt18_Rb_tree_node_baseSD_OT_RT0_
FNDA:0,_ZNSt8_Rb_treeIN7doctest6StringES1_St9_IdentityIS1_ESt4lessIS1_ESaIS1_EE10_M_insert_IS1_NS7_11_Alloc_nodeEEESt17_Rb_tree_iteratorIS1_EPSt18_Rb_tree_node_baseSD_OT_RT0_
FN:1797,_ZNSt8_Rb_treeISt6vectorIN7doctest16SubcaseSignatureESaIS2_EES4_St9_IdentityIS4_ESt4lessIS4_ESaIS4_EE10_M_insert_IRKS4_NSA_11_Alloc_nodeEEESt17_Rb_tree_iteratorIS4_EPSt18_Rb_tree_node_baseSI_OT_RT0_
FNDA:0,_ZNSt8_Rb_treeISt6vectorIN7doctest16SubcaseSignatureESaIS2_EES4_St9_IdentityIS4_ESt4lessIS4_ESaIS4_EE10_M_insert_IRKS4_NSA_11_Alloc_nodeEEESt17_Rb_tree_iteratorIS4_EPSt18_Rb_tree_node_baseSI_OT_RT0_
FN:1797,_ZNSt8_Rb_treeISt4pairIiN7doctest6StringEES0_IKS3_PFPNS1_9IReporterERKNS1_14ContextOptionsEEESt10_Select1stISC_ESt4lessIS3_ESaISC_EE10_M_insert_ISC_NSI_11_Alloc_nodeEEESt17_Rb_tree_iteratorISC_EPSt18_Rb_tree_node_baseSO_OT_RT0_
FNDA:3,_ZNSt8_Rb_treeISt4pairIiN7doctest6StringEES0_IKS3_PFPNS1_9IReporterERKNS1_14ContextOptionsEEESt10_Select1stISC_ESt4lessIS3_ESaISC_EE10_M_insert_ISC_NSI_11_Alloc_nodeEEESt17_Rb_tree_iteratorISC_EPSt18_Rb_tree_node_baseSO_OT_RT0_
FN:1797,_ZNSt8_Rb_treeIN7doctest6detail8TestCaseES2_St9_IdentityIS2_ESt4lessIS2_ESaIS2_EE10_M_insert_IRKS2_NS8_11_Alloc_nodeEEESt17_Rb_tree_iteratorIS2_EPSt18_Rb_tree_node_baseSG_OT_RT0_
FNDA:1,_ZNSt8_Rb_treeIN7doctest6detail8TestCaseES2_St9_IdentityIS2_ESt4lessIS2_ESaIS2_EE10_M_insert_IRKS2_NS8_11_Alloc_nodeEEESt17_Rb_tree_iteratorIS2_EPSt18_Rb_tree_node_baseSG_OT_RT0_
FN:1907,_ZNSt8_Rb_treeISt6vectorIN7doctest16SubcaseSignatureESaIS2_EES4_St9_IdentityIS4_ESt4lessIS4_ESaIS4_EE8_M_eraseEPSt13_Rb_tree_nodeIS4_E
FNDA:2,_ZNSt8_Rb_treeISt6vectorIN7doctest16SubcaseSignatureESaIS2_EES4_St9_IdentityIS4_ESt4lessIS4_ESaIS4_EE8_M_eraseEPSt13_Rb_tree_nodeIS4_E
FN:1907,_ZNSt8_Rb_treeIN7doctest6StringES1_St9_IdentityIS1_ESt4lessIS1_ESaIS1_EE8_M_eraseEPSt13_Rb_tree_nodeIS1_E
FNDA:1,_ZNSt8_Rb_treeIN7doctest6StringES1_St9_IdentityIS1_ESt4lessIS1_ESaIS1_EE8_M_eraseEPSt13_Rb_tree_nodeIS1_E
FN:1907,_ZNSt8_Rb_treeISt4pairIiN7doctest6StringEES0_IKS3_PFPNS1_9IReporterERKNS1_14ContextOptionsEEESt10_Select1stISC_ESt4lessIS3_ESaISC_EE8_M_eraseEPSt13_Rb_tree_nodeISC_E
FNDA:5,_ZNSt8_Rb_treeISt4pairIiN7doctest6StringEES0_IKS3_PFPNS1_9IReporterERKNS1_14ContextOptionsEEESt10_Select1stISC_ESt4lessIS3_ESaISC_EE8_M_eraseEPSt13_Rb_tree_nodeISC_E
FN:1907,_ZNSt8_Rb_treeIN7doctest6detail8TestCaseES2_St9_IdentityIS2_ESt4lessIS2_ESaIS2_EE8_M_eraseEPSt13_Rb_tree_nodeIS2_E
FNDA:2,_ZNSt8_Rb_treeIN7doctest6detail8TestCaseES2_St9_IdentityIS2_ESt4lessIS2_ESaIS2_EE8_M_eraseEPSt13_Rb_tree_nodeIS2_E
FN:1940,_ZNKSt8_Rb_treeISt6vectorIN7doctest16SubcaseSignatureESaIS2_EES4_St9_IdentityIS4_ESt4lessIS4_ESaIS4_EE14_M_lower_boundEPKSt13_Rb_tree_nodeIS4_EPKSt18_Rb_tree_node_baseRKS4_
FNDA:0,_ZNKSt8_Rb_treeISt6vectorIN7doctest16SubcaseSignatureESaIS2_EES4_St9_IdentityIS4_ESt4lessIS4_ESaIS4_EE14_M_lower_boundEPKSt13_Rb_tree_nodeIS4_EPKSt18_Rb_tree_node_baseRKS4_
FN:1940,_ZNKSt8_Rb_treeIN7doctest6StringES1_St9_IdentityIS1_ESt4lessIS1_ESaIS1_EE14_M_lower_boundEPKSt13_Rb_tree_nodeIS1_EPKSt18_Rb_tree_node_baseRKS1_
FNDA:0,_ZNKSt8_Rb_treeIN7doctest6StringES1_St9_IdentityIS1_ESt4lessIS1_ESaIS1_EE14_M_lower_boundEPKSt13_Rb_tree_nodeIS1_EPKSt18_Rb_tree_node_baseRKS1_
FN:2085,_ZNSt8_Rb_treeISt6vectorIN7doctest16SubcaseSignatureESaIS2_EES4_St9_IdentityIS4_ESt4lessIS4_ESaIS4_EE24_M_get_insert_unique_posERKS4_
FNDA:0,_ZNSt8_Rb_treeISt6vectorIN7doctest16SubcaseSignatureESaIS2_EES4_St9_IdentityIS4_ESt4lessIS4_ESaIS4_EE24_M_get_insert_unique_posERKS4_
FN:2085,_ZNSt8_Rb_treeISt4pairIiN7doctest6StringEES0_IKS3_PFPNS1_9IReporterERKNS1_14ContextOptionsEEESt10_Select1stISC_ESt4lessIS3_ESaISC_EE24_M_get_insert_unique_posERS4_
FNDA:3,_ZNSt8_Rb_treeISt4pairIiN7doctest6StringEES0_IKS3_PFPNS1_9IReporterERKNS1_14ContextOptionsEEESt10_Select1stISC_ESt4lessIS3_ESaISC_EE24_M_get_insert_unique_posERS4_
FN:2085,_ZNSt8_Rb_treeIN7doctest6StringES1_St9_IdentityIS1_ESt4lessIS1_ESaIS1_EE24_M_get_insert_unique_posERKS1_
FNDA:0,_ZNSt8_Rb_treeIN7doctest6StringES1_St9_IdentityIS1_ESt4lessIS1_ESaIS1_EE24_M_get_insert_unique_posERKS1_
FN:2085,_ZNSt8_Rb_treeIN7doctest6detail8TestCaseES2_St9_IdentityIS2_ESt4lessIS2_ESaIS2_EE24_M_get_insert_unique_posERKS2_
FNDA:1,_ZNSt8_Rb_treeIN7doctest6detail8TestCaseES2_St9_IdentityIS2_ESt4lessIS2_ESaIS2_EE24_M_get_insert_unique_posERKS2_
FN:2139,_ZNSt8_Rb_treeIN7doctest6StringES1_St9_IdentityIS1_ESt4lessIS1_ESaIS1_EE16_M_insert_uniqueIS1_EESt4pairISt17_Rb_tree_iteratorIS1_EbEOT_
FNDA:0,_ZNSt8_Rb_treeIN7doctest6StringES1_St9_IdentityIS1_ESt4lessIS1_ESaIS1_EE16_M_insert_uniqueIS1_EESt4pairISt17_Rb_tree_iteratorIS1_EbEOT_
FN:2139,_ZNSt8_Rb_treeISt6vectorIN7doctest16SubcaseSignatureESaIS2_EES4_St9_IdentityIS4_ESt4lessIS4_ESaIS4_EE16_M_insert_uniqueIRKS4_EESt4pairISt17_Rb_tree_iteratorIS4_EbEOT_
FNDA:0,_ZNSt8_Rb_treeISt6vectorIN7doctest16SubcaseSignatureESaIS2_EES4_St9_IdentityIS4_ESt4lessIS4_ESaIS4_EE16_M_insert_uniqueIRKS4_EESt4pairISt17_Rb_tree_iteratorIS4_EbEOT_
FN:2139,_ZNSt8_Rb_treeISt4pairIiN7doctest6StringEES0_IKS3_PFPNS1_9IReporterERKNS1_14ContextOptionsEEESt10_Select1stISC_ESt4lessIS3_ESaISC_EE16_M_insert_uniqueISC_EES0_ISt17_Rb_tree_iteratorISC_EbEOT_
FNDA:3,_ZNSt8_Rb_treeISt4pairIiN7doctest6StringEES0_IKS3_PFPNS1_9IReporterERKNS1_14ContextOptionsEEESt10_Select1stISC_ESt4lessIS3_ESaISC_EE16_M_insert_uniqueISC_EES0_ISt17_Rb_tree_iteratorISC_EbEOT_
FN:2139,_ZNSt8_Rb_treeIN7doctest6detail8TestCaseES2_St9_IdentityIS2_ESt4lessIS2_ESaIS2_EE16_M_insert_uniqueIRKS2_EESt4pairISt17_Rb_tree_iteratorIS2_EbEOT_
FNDA:1,_ZNSt8_Rb_treeIN7doctest6detail8TestCaseES2_St9_IdentityIS2_ESt4lessIS2_ESaIS2_EE16_M_insert_uniqueIRKS2_EESt4pairISt17_Rb_tree_iteratorIS2_EbEOT_
FN:2567,_ZNKSt8_Rb_treeIN7doctest6StringES1_St9_IdentityIS1_ESt4lessIS1_ESaIS1_EE4findERKS1_
FNDA:0,_ZNKSt8_Rb_treeIN7doctest6StringES1_St9_IdentityIS1_ESt4lessIS1_ESaIS1_EE4findERKS1_
FN:2567,_ZNKSt8_Rb_treeISt6vectorIN7doctest16SubcaseSignatureESaIS2_EES4_St9_IdentityIS4_ESt4lessIS4_ESaIS4_EE4findERKS4_
FNDA:0,_ZNKSt8_Rb_treeISt6vectorIN7doctest16SubcaseSignatureESaIS2_EES4_St9_IdentityIS4_ESt4lessIS4_ESaIS4_EE4findERKS4_
DA:146,1
DA:150,1
DA:146,1
DA:150,1
DA:146,1
DA:150,1
DA:146,2
DA:150,2
DA:173,5
DA:174,5
DA:175,5
DA:176,5
DA:177,5
DA:206,6
DA:208,6
DA:209,6
DA:210,6
DA:211,6
DA:212,6
DA:234,0
DA:235,0
DA:234,0
DA:235,0
DA:234,2
DA:235,2
DA:234,9
DA:235,9
DA:238,0
DA:239,0
DA:238,0
DA:239,0
DA:238,1
DA:239,1
DA:238,5
DA:239,5
DA:273,0
DA:274,0
DA:273,13
DA:274,13
DA:273,3
DA:274,3
DA:273,0
DA:274,0
DA:277,3
DA:278,3
DA:285,3
DA:287,3
DA:288,3
DA:300,0
DA:302,0
DA:303,0
DA:300,0
DA:302,0
DA:303,0
DA:300,0
DA:302,0
DA:303,0
DA:300,0
DA:302,0
DA:303,0
DA:315,3
DA:316,3
DA:315,0
DA:316,0
DA:315,1
DA:316,1
DA:315,0
DA:316,0
DA:319,5
DA:320,5
DA:345,0
DA:346,0
DA:345,2
DA:346,2
DA:345,0
DA:346,0
DA:345,0
DA:346,0
DA:348,0
DA:349,0
DA:348,1
DA:349,1
DA:348,0
DA:349,0
DA:356,1
DA:357,1
DA:356,0
DA:357,0
DA:364,1
DA:366,1
DA:367,1
DA:364,0
DA:366,0
DA:367,0
DA:394,0
DA:395,0
DA:394,0
DA:395,0
DA:398,2
DA:399,2
DA:398,0
DA:399,0
DA:538,3
DA:539,3
DA:538,0
DA:539,0
DA:538,1
DA:539,1
DA:538,0
DA:539,0
DA:546,3
DA:548,3
DA:546,0
DA:548,0
DA:546,1
DA:548,1
DA:546,0
DA:548,0
DA:566,0
DA:567,0
DA:566,0
DA:567,0
DA:566,4
DA:567,4
DA:566,12
DA:567,12
DA:579,3
DA:580,3
DA:579,0
DA:580,0
DA:579,1
DA:580,1
DA:579,0
DA:580,0
DA:583,0
DA:584,0
DA:583,0
DA:584,0
DA:583,1
DA:584,1
DA:583,3
DA:584,3
DA:609,3
DA:613,3
DA:614,3
DA:618,0
DA:620,0
DA:621,0
DA:622,0
DA:624,3
DA:609,0
DA:613,0
DA:614,0
DA:618,0
DA:620,0
DA:621,0
DA:622,0
DA:624,0
DA:609,1
DA:613,1
DA:614,1
DA:618,0
DA:620,0
DA:621,0
DA:622,0
DA:624,1
DA:609,0
DA:613,0
DA:614,0
DA:618,0
DA:620,0
DA:621,0
DA:622,0
DA:624,0
DA:628,3
DA:630,3
DA:631,3
DA:632,3
DA:628,0
DA:630,0
DA:631,0
DA:632,0
DA:628,1
DA:630,1
DA:631,1
DA:632,1
DA:628,0
DA:630,0
DA:631,0
DA:632,0
DA:637,0
DA:642,0
DA:643,0
DA:645,0
DA:637,0
DA:642,0
DA:643,0
DA:645,0
DA:637,1
DA:642,1
DA:643,1
DA:645,1
DA:637,3
DA:642,3
DA:643,3
DA:645,3
DA:648,0
DA:650,0
DA:651,0
DA:652,0
DA:648,0
DA:650,0
DA:651,0
DA:652,0
DA:648,1
DA:650,1
DA:651,1
DA:652,1
DA:648,3
DA:650,3
DA:651,3
DA:652,3
DA:680,1
DA:684,1
DA:685,1
DA:680,1
DA:684,1
DA:685,1
DA:680,1
DA:684,1
DA:685,1
DA:680,2
DA:684,2
DA:685,2
DA:744,1
DA:745,1
DA:744,2
DA:745,2
DA:744,2
DA:745,2
DA:744,5
DA:745,5
DA:748,0
DA:751,0
DA:748,0
DA:751,0
DA:755,6
DA:756,6
DA:755,0
DA:756,0
DA:755,2
DA:756,2
DA:755,0
DA:756,0
DA:759,0
DA:760,0
DA:759,0
DA:760,0
DA:767,5
DA:785,5
DA:767,0
DA:785,0
DA:767,0
DA:785,0
DA:767,0
DA:785,0
DA:789,0
DA:790,0
DA:789,0
DA:790,0
DA:789,1
DA:790,1
DA:789,6
DA:790,6
DA:793,0
DA:794,0
DA:793,0
DA:794,0
DA:797,0
DA:798,0
DA:797,0
DA:798,0
DA:797,1
DA:798,1
DA:797,3
DA:798,3
DA:801,0
DA:802,0
DA:801,0
DA:802,0
DA:809,2
DA:810,2
DA:809,0
DA:810,0
DA:809,0
DA:810,0
DA:809,0
DA:810,0
DA:939,1
DA:939,1
DA:939,1
DA:939,2
DA:994,1
DA:995,1
DA:994,1
DA:995,1
DA:994,1
DA:995,1
DA:994,2
DA:995,2
DA:1006,0
DA:1007,0
DA:1006,1
DA:1007,1
DA:1006,0
DA:1007,0
DA:1006,5
DA:1007,5
DA:1010,1
DA:1011,1
DA:1010,0
DA:1011,0
DA:1014,2
DA:1015,2
DA:1018,0
DA:1019,0
DA:1018,1
DA:1019,1
DA:1018,0
DA:1019,0
DA:1018,0
DA:1019,0
DA:1042,0
DA:1043,0
DA:1264,1
DA:1266,1
DA:1267,1
DA:1268,1
DA:1797,3
DA:1806,3
DA:1807,6
DA:1810,3
DA:1812,3
DA:1813,3
DA:1814,3
DA:1815,3
DA:1797,0
DA:1806,0
DA:1807,0
DA:1810,0
DA:1812,0
DA:1813,0
DA:1814,0
DA:1815,0
DA:1797,1
DA:1806,1
DA:1807,2
DA:1810,1
DA:1812,1
DA:1813,1
DA:1814,1
DA:1815,1
DA:1797,0
DA:1806,0
DA:1807,0
DA:1810,0
DA:1812,0
DA:1813,0
DA:1814,0
DA:1815,0
DA:1907,1
DA:1911,1
DA:1913,0
DA:1914,0
DA:1915,0
DA:1916,0
DA:1918,1
DA:1907,2
DA:1911,2
DA:1913,0
DA:1914,0
DA:1915,0
DA:1916,0
DA:1918,2
DA:1907,3
DA:1911,3
DA:1913,1
DA:1914,1
DA:1915,1
DA:1916,1
DA:1918,2
DA:1907,8
DA:1911,8
DA:1913,3
DA:1914,3
DA:1915,3
DA:1916,3
DA:1918,5
DA:1940,0
DA:1944,0
DA:1945,0
DA:1946,0
DA:1948,0
DA:1949,0
DA:1940,0
DA:1944,0
DA:1945,0
DA:1946,0
DA:1948,0
DA:1949,0
DA:2085,3
DA:2089,3
DA:2090,3
DA:2091,3
DA:2092,6
DA:2094,3
DA:2095,3
DA:2096,3
DA:2098,3
DA:2099,3
DA:2101,3
DA:2102,3
DA:2104,0
DA:2106,0
DA:2107,0
DA:2108,0
DA:2085,0
DA:2089,0
DA:2090,0
DA:2091,0
DA:2092,0
DA:2094,0
DA:2095,0
DA:2096,0
DA:2098,0
DA:2099,0
DA:2101,0
DA:2102,0
DA:2104,0
DA:2106,0
DA:2107,0
DA:2108,0
DA:2085,1
DA:2089,1
DA:2090,1
DA:2091,1
DA:2092,1
DA:2094,0
DA:2095,0
DA:2096,0
DA:2098,1
DA:2099,1
DA:2101,1
DA:2102,1
DA:2104,0
DA:2106,0
DA:2107,0
DA:2108,0
DA:2085,0
DA:2089,0
DA:2090,0
DA:2091,0
DA:2092,0
DA:2094,0
DA:2095,0
DA:2096,0
DA:2098,0
DA:2099,0
DA:2101,0
DA:2102,0
DA:2104,0
DA:2106,0
DA:2107,0
DA:2108,0
DA:2139,3
DA:2147,3
DA:2148,3
DA:2150,3
DA:2152,3
DA:2153,3
DA:2155,6
DA:2158,0
DA:2139,0
DA:2147,0
DA:2148,0
DA:2150,0
DA:2152,0
DA:2153,0
DA:2155,0
DA:2158,0
DA:2139,1
DA:2147,1
DA:2148,1
DA:2150,1
DA:2152,1
DA:2153,1
DA:2155,2
DA:2158,0
DA:2139,0
DA:2147,0
DA:2148,0
DA:2150,0
DA:2152,0
DA:2153,0
DA:2155,0
DA:2158,0
DA:2567,0
DA:2570,0
DA:2571,0
DA:2572,0
DA:2573,0
DA:2567,0
DA:2570,0
DA:2571,0
DA:2572,0
DA:2573,0
end_of_record
SF:/usr/include/c++/9/bits/basic_string.h
FN:243,_ZNSt7__cxx1112basic_stringIcSt11char_traitsIcESaIcEE16_M_construct_auxIPcEEvT_S7_St12__false_type
FNDA:0,_ZNSt7__cxx1112basic_stringIcSt11char_traitsIcESaIcEE16_M_construct_auxIPcEEvT_S7_St12__false_type
FN:243,_ZNSt7__cxx1112basic_stringIcSt11char_traitsIcESaIcEE16_M_construct_auxIPKcEEvT_S8_St12__false_type
FNDA:0,_ZNSt7__cxx1112basic_stringIcSt11char_traitsIcESaIcEE16_M_construct_auxIPKcEEvT_S8_St12__false_type
FN:263,_ZNSt7__cxx1112basic_stringIcSt11char_traitsIcESaIcEE12_M_constructIPcEEvT_S7_
FNDA:0,_ZNSt7__cxx1112basic_stringIcSt11char_traitsIcESaIcEE12_M_constructIPcEEvT_S7_
FN:263,_ZNSt7__cxx1112basic_stringIcSt11char_traitsIcESaIcEE12_M_constructIPKcEEvT_S8_
FNDA:0,_ZNSt7__cxx1112basic_stringIcSt11char_traitsIcESaIcEE12_M_constructIPKcEEvT_S8_
FN:525,_ZNSt7__cxx1112basic_stringIcSt11char_traitsIcESaIcEEC2IS3_EEPKcRKS3_
FNDA:0,_ZNSt7__cxx1112basic_stringIcSt11char_traitsIcESaIcEEC2IS3_EEPKcRKS3_
FN:6121,_ZStplIcSt11char_traitsIcESaIcEENSt7__cxx1112basic_stringIT_T0_T1_EEOS8_PKS5_
FNDA:0,_ZStplIcSt11char_traitsIcESaIcEENSt7__cxx1112basic_stringIT_T0_T1_EEOS8_PKS5_
DA:243,0
DA:247,0
DA:248,0
DA:243,0
DA:247,0
DA:248,0
DA:263,0
DA:266,0
DA:267,0
DA:263,0
DA:266,0
DA:267,0
DA:525,0
DA:526,0
DA:527,0
DA:6121,0
DA:6123,0
end_of_record
SF:/usr/include/c++/9/bits/stl_iterator_base_types.h
FN:205,_ZSt19__iterator_categoryIPcENSt15iterator_traitsIT_E17iterator_categoryERKS2_
FNDA:0,_ZSt19__iterator_categoryIPcENSt15iterator_traitsIT_E17iterator_categoryERKS2_
FN:205,_ZSt19__iterator_categoryIPKcENSt15iterator_traitsIT_E17iterator_categoryERKS3_
FNDA:0,_ZSt19__iterator_categoryIPKcENSt15iterator_traitsIT_E17iterator_categoryERKS3_
FN:205,_ZSt19__iterator_categoryIN9__gnu_cxx17__normal_iteratorIPPKN7doctest6detail20IExceptionTranslatorESt6vectorIS6_SaIS6_EEEEENSt15iterator_traitsIT_E17iterator_categoryERKSD_
FNDA:0,_ZSt19__iterator_categoryIN9__gnu_cxx17__normal_iteratorIPPKN7doctest6detail20IExceptionTranslatorESt6vectorIS6_SaIS6_EEEEENSt15iterator_traitsIT_E17iterator_categoryERKSD_
DA:205,0
DA:206,0
DA:205,0
DA:206,0
DA:205,0
DA:206,0
end_of_record
SF:/usr/include/c++/9/ext/new_allocator.h
FN:80,_ZN9__gnu_cxx13new_allocatorIcEC2Ev
FNDA:0,_ZN9__gnu_cxx13new_allocatorIcEC2Ev
FN:80,_ZN9__gnu_cxx13new_allocatorIPKN7doctest12TestCaseDataEEC2Ev
FNDA:1,_ZN9__gnu_cxx13new_allocatorIPKN7doctest12TestCaseDataEEC2Ev
FN:80,_ZN9__gnu_cxx13new_allocatorISt13_Rb_tree_nodeIN7doctest6StringEEEC2Ev
FNDA:1,_ZN9__gnu_cxx13new_allocatorISt13_Rb_tree_nodeIN7doctest6StringEEEC2Ev
FN:80,_ZN9__gnu_cxx13new_allocatorIPKN7doctest6detail8TestCaseEEC2Ev
FNDA:1,_ZN9__gnu_cxx13new_allocatorIPKN7doctest6detail8TestCaseEEC2Ev
FN:80,_ZN9__gnu_cxx13new_allocatorISt13_Rb_tree_nodeISt6vectorIN7doctest16SubcaseSignatureESaIS4_EEEEC2Ev
FNDA:1,_ZN9__gnu_cxx13new_allocatorISt13_Rb_tree_nodeISt6vectorIN7doctest16SubcaseSignatureESaIS4_EEEEC2Ev
FN:80,_ZN9__gnu_cxx13new_allocatorIPN7doctest9IReporterEEC2Ev
FNDA:1,_ZN9__gnu_cxx13new_allocatorIPN7doctest9IReporterEEC2Ev
FN:80,_ZN9__gnu_cxx13new_allocatorIN7doctest16SubcaseSignatureEEC2Ev
FNDA:2,_ZN9__gnu_cxx13new_allocatorIN7doctest16SubcaseSignatureEEC2Ev
FN:80,_ZN9__gnu_cxx13new_allocatorIN7doctest12_GLOBAL__N_113JUnitReporter17JUnitTestCaseData13JUnitTestCaseEEC2Ev
FNDA:0,_ZN9__gnu_cxx13new_allocatorIN7doctest12_GLOBAL__N_113JUnitReporter17JUnitTestCaseData13JUnitTestCaseEEC2Ev
FN:80,_ZN9__gnu_cxx13new_allocatorIN7doctest6StringEEC2Ev
FNDA:10,_ZN9__gnu_cxx13new_allocatorIN7doctest6StringEEC2Ev
FN:80,_ZN9__gnu_cxx13new_allocatorIN7doctest12_GLOBAL__N_113JUnitReporter17JUnitTestCaseData16JUnitTestMessageEEC2Ev
FNDA:0,_ZN9__gnu_cxx13new_allocatorIN7doctest12_GLOBAL__N_113JUnitReporter17JUnitTestCaseData16JUnitTestMessageEEC2Ev
FN:80,_ZN9__gnu_cxx13new_allocatorINSt7__cxx1112basic_stringIcSt11char_traitsIcESaIcEEEEC2Ev
FNDA:0,_ZN9__gnu_cxx13new_allocatorINSt7__cxx1112basic_stringIcSt11char_traitsIcESaIcEEEEC2Ev
FN:80,_ZN9__gnu_cxx13new_allocatorIPN7doctest13IContextScopeEEC2Ev
FNDA:0,_ZN9__gnu_cxx13new_allocatorIPN7doctest13IContextScopeEEC2Ev
FN:80,_ZN9__gnu_cxx13new_allocatorIPKN7doctest6detail20IExceptionTranslatorEEC2Ev
FNDA:0,_ZN9__gnu_cxx13new_allocatorIPKN7doctest6detail20IExceptionTranslatorEEC2Ev
FN:80,_ZN9__gnu_cxx13new_allocatorISt13_Rb_tree_nodeIN7doctest6detail8TestCaseEEEC2Ev
FNDA:1,_ZN9__gnu_cxx13new_allocatorISt13_Rb_tree_nodeIN7doctest6detail8TestCaseEEEC2Ev
FN:80,_ZN9__gnu_cxx13new_allocatorISt13_Rb_tree_nodeISt4pairIKS2_IiN7doctest6StringEEPFPNS3_9IReporterERKNS3_14ContextOptionsEEEEEC2Ev
FNDA:2,_ZN9__gnu_cxx13new_allocatorISt13_Rb_tree_nodeISt4pairIKS2_IiN7doctest6StringEEPFPNS3_9IReporterERKNS3_14ContextOptionsEEEEEC2Ev
FN:80,_ZN9__gnu_cxx13new_allocatorISt6vectorIN7doctest6StringESaIS3_EEEC2Ev
FNDA:1,_ZN9__gnu_cxx13new_allocatorISt6vectorIN7doctest6StringESaIS3_EEEC2Ev
FN:83,_ZN9__gnu_cxx13new_allocatorIN7doctest12_GLOBAL__N_113JUnitReporter17JUnitTestCaseData16JUnitTestMessageEEC2ERKS6_
FNDA:0,_ZN9__gnu_cxx13new_allocatorIN7doctest12_GLOBAL__N_113JUnitReporter17JUnitTestCaseData16JUnitTestMessageEEC2ERKS6_
FN:83,_ZN9__gnu_cxx13new_allocatorIcEC2ERKS1_
FNDA:0,_ZN9__gnu_cxx13new_allocatorIcEC2ERKS1_
FN:83,_ZN9__gnu_cxx13new_allocatorISt6vectorIN7doctest6StringESaIS3_EEEC2ERKS6_
FNDA:2,_ZN9__gnu_cxx13new_allocatorISt6vectorIN7doctest6StringESaIS3_EEEC2ERKS6_
FN:83,_ZN9__gnu_cxx13new_allocatorIN7doctest6StringEEC2ERKS3_
FNDA:0,_ZN9__gnu_cxx13new_allocatorIN7doctest6StringEEC2ERKS3_
FN:83,_ZN9__gnu_cxx13new_allocatorIN7doctest16SubcaseSignatureEEC2ERKS3_
FNDA:0,_ZN9__gnu_cxx13new_allocatorIN7doctest16SubcaseSignatureEEC2ERKS3_
FN:89,_ZN9__gnu_cxx13new_allocatorIN7doctest16SubcaseSignatureEED2Ev
FNDA:2,_ZN9__gnu_cxx13new_allocatorIN7doctest16SubcaseSignatureEED2Ev
FN:89,_ZN9__gnu_cxx13new_allocatorIPKN7doctest12TestCaseDataEED2Ev
FNDA:1,_ZN9__gnu_cxx13new_allocatorIPKN7doctest12TestCaseDataEED2Ev
FN:89,_ZN9__gnu_cxx13new_allocatorISt13_Rb_tree_nodeIN7doctest6StringEEED2Ev
FNDA:1,_ZN9__gnu_cxx13new_allocatorISt13_Rb_tree_nodeIN7doctest6StringEEED2Ev
FN:89,_ZN9__gnu_cxx13new_allocatorIPKN7doctest6detail8TestCaseEED2Ev
FNDA:1,_ZN9__gnu_cxx13new_allocatorIPKN7doctest6detail8TestCaseEED2Ev
FN:89,_ZN9__gnu_cxx13new_allocatorISt13_Rb_tree_nodeISt6vectorIN7doctest16SubcaseSignatureESaIS4_EEEED2Ev
FNDA:1,_ZN9__gnu_cxx13new_allocatorISt13_Rb_tree_nodeISt6vectorIN7doctest16SubcaseSignatureESaIS4_EEEED2Ev
FN:89,_ZN9__gnu_cxx13new_allocatorIPN7doctest9IReporterEED2Ev
FNDA:1,_ZN9__gnu_cxx13new_allocatorIPN7doctest9IReporterEED2Ev
FN:89,_ZN9__gnu_cxx13new_allocatorIN7doctest12_GLOBAL__N_113JUnitReporter17JUnitTestCaseData13JUnitTestCaseEED2Ev
FNDA:0,_ZN9__gnu_cxx13new_allocatorIN7doctest12_GLOBAL__N_113JUnitReporter17JUnitTestCaseData13JUnitTestCaseEED2Ev
FN:89,_ZN9__gnu_cxx13new_allocatorIN7doctest6StringEED2Ev
FNDA:10,_ZN9__gnu_cxx13new_allocatorIN7doctest6StringEED2Ev
FN:89,_ZN9__gnu_cxx13new_allocatorIN7doctest12_GLOBAL__N_113JUnitReporter17JUnitTestCaseData16JUnitTestMessageEED2Ev
FNDA:0,_ZN9__gnu_cxx13new_allocatorIN7doctest12_GLOBAL__N_113JUnitReporter17JUnitTestCaseData16JUnitTestMessageEED2Ev
FN:89,_ZN9__gnu_cxx13new_allocatorINSt7__cxx1112basic_stringIcSt11char_traitsIcESaIcEEEED2Ev
FNDA:0,_ZN9__gnu_cxx13new_allocatorINSt7__cxx1112basic_stringIcSt11char_traitsIcESaIcEEEED2Ev
FN:89,_ZN9__gnu_cxx13new_allocatorIPN7doctest13IContextScopeEED2Ev
FNDA:0,_ZN9__gnu_cxx13new_allocatorIPN7doctest13IContextScopeEED2Ev
FN:89,_ZN9__gnu_cxx13new_allocatorIPKN7doctest6detail20IExceptionTranslatorEED2Ev
FNDA:0,_ZN9__gnu_cxx13new_allocatorIPKN7doctest6detail20IExceptionTranslatorEED2Ev
FN:89,_ZN9__gnu_cxx13new_allocatorISt13_Rb_tree_nodeIN7doctest6detail8TestCaseEEED2Ev
FNDA:1,_ZN9__gnu_cxx13new_allocatorISt13_Rb_tree_nodeIN7doctest6detail8TestCaseEEED2Ev
FN:89,_ZN9__gnu_cxx13new_allocatorISt13_Rb_tree_nodeISt4pairIKS2_IiN7doctest6StringEEPFPNS3_9IReporterERKNS3_14ContextOptionsEEEEED2Ev
FNDA:2,_ZN9__gnu_cxx13new_allocatorISt13_Rb_tree_nodeISt4pairIKS2_IiN7doctest6StringEEPFPNS3_9IReporterERKNS3_14ContextOptionsEEEEED2Ev
FN:89,_ZN9__gnu_cxx13new_allocatorISt6vectorIN7doctest6StringESaIS3_EEED2Ev
FNDA:3,_ZN9__gnu_cxx13new_allocatorISt6vectorIN7doctest6StringESaIS3_EEED2Ev
FN:89,_ZN9__gnu_cxx13new_allocatorIcED2Ev
FNDA:0,_ZN9__gnu_cxx13new_allocatorIcED2Ev
FN:102,_ZN9__gnu_cxx13new_allocatorIPKN7doctest12TestCaseDataEE8allocateEmPKv
FNDA:0,_ZN9__gnu_cxx13new_allocatorIPKN7doctest12TestCaseDataEE8allocateEmPKv
FN:102,_ZN9__gnu_cxx13new_allocatorISt13_Rb_tree_nodeISt4pairIKS2_IiN7doctest6StringEEPFPNS3_9IReporterERKNS3_14ContextOptionsEEEEE8allocateEmPKv
FNDA:3,_ZN9__gnu_cxx13new_allocatorISt13_Rb_tree_nodeISt4pairIKS2_IiN7doctest6StringEEPFPNS3_9IReporterERKNS3_14ContextOptionsEEEEE8allocateEmPKv
FN:102,_ZN9__gnu_cxx13new_allocatorISt13_Rb_tree_nodeIN7doctest6StringEEE8allocateEmPKv
FNDA:0,_ZN9__gnu_cxx13new_allocatorISt13_Rb_tree_nodeIN7doctest6StringEEE8allocateEmPKv
FN:102,_ZN9__gnu_cxx13new_allocatorISt13_Rb_tree_nodeIN7doctest6detail8TestCaseEEE8allocateEmPKv
FNDA:1,_ZN9__gnu_cxx13new_allocatorISt13_Rb_tree_nodeIN7doctest6detail8TestCaseEEE8allocateEmPKv
FN:102,_ZN9__gnu_cxx13new_allocatorISt13_Rb_tree_nodeISt6vectorIN7doctest16SubcaseSignatureESaIS4_EEEE8allocateEmPKv
FNDA:0,_ZN9__gnu_cxx13new_allocatorISt13_Rb_tree_nodeISt6vectorIN7doctest16SubcaseSignatureESaIS4_EEEE8allocateEmPKv
FN:102,_ZN9__gnu_cxx13new_allocatorIN7doctest16SubcaseSignatureEE8allocateEmPKv
FNDA:0,_ZN9__gnu_cxx13new_allocatorIN7doctest16SubcaseSignatureEE8allocateEmPKv
FN:102,_ZN9__gnu_cxx13new_allocatorIPKN7doctest6detail20IExceptionTranslatorEE8allocateEmPKv
FNDA:0,_ZN9__gnu_cxx13new_allocatorIPKN7doctest6detail20IExceptionTranslatorEE8allocateEmPKv
FN:102,_ZN9__gnu_cxx13new_allocatorIN7doctest12_GLOBAL__N_113JUnitReporter17JUnitTestCaseData13JUnitTestCaseEE8allocateEmPKv
FNDA:0,_ZN9__gnu_cxx13new_allocatorIN7doctest12_GLOBAL__N_113JUnitReporter17JUnitTestCaseData13JUnitTestCaseEE8allocateEmPKv
FN:102,_ZN9__gnu_cxx13new_allocatorIN7doctest12_GLOBAL__N_113JUnitReporter17JUnitTestCaseData16JUnitTestMessageEE8allocateEmPKv
FNDA:0,_ZN9__gnu_cxx13new_allocatorIN7doctest12_GLOBAL__N_113JUnitReporter17JUnitTestCaseData16JUnitTestMessageEE8allocateEmPKv
FN:102,_ZN9__gnu_cxx13new_allocatorINSt7__cxx1112basic_stringIcSt11char_traitsIcESaIcEEEE8allocateEmPKv
FNDA:0,_ZN9__gnu_cxx13new_allocatorINSt7__cxx1112basic_stringIcSt11char_traitsIcESaIcEEEE8allocateEmPKv
FN:102,_ZN9__gnu_cxx13new_allocatorISt6vectorIN7doctest6StringESaIS3_EEE8allocateEmPKv
FNDA:1,_ZN9__gnu_cxx13new_allocatorISt6vectorIN7doctest6StringESaIS3_EEE8allocateEmPKv
FN:102,_ZN9__gnu_cxx13new_allocatorIN7doctest6StringEE8allocateEmPKv
FNDA:1,_ZN9__gnu_cxx13new_allocatorIN7doctest6StringEE8allocateEmPKv
FN:102,_ZN9__gnu_cxx13new_allocatorIPN7doctest13IContextScopeEE8allocateEmPKv
FNDA:0,_ZN9__gnu_cxx13new_allocatorIPN7doctest13IContextScopeEE8allocateEmPKv
FN:102,_ZN9__gnu_cxx13new_allocatorIPKN7doctest6detail8TestCaseEE8allocateEmPKv
FNDA:1,_ZN9__gnu_cxx13new_allocatorIPKN7doctest6detail8TestCaseEE8allocateEmPKv
FN:102,_ZN9__gnu_cxx13new_allocatorIPN7doctest9IReporterEE8allocateEmPKv
FNDA:1,_ZN9__gnu_cxx13new_allocatorIPN7doctest9IReporterEE8allocateEmPKv
FN:119,_ZN9__gnu_cxx13new_allocatorIN7doctest12_GLOBAL__N_113JUnitReporter17JUnitTestCaseData16JUnitTestMessageEE10deallocateEPS5_m
FNDA:0,_ZN9__gnu_cxx13new_allocatorIN7doctest12_GLOBAL__N_113JUnitReporter17JUnitTestCaseData16JUnitTestMessageEE10deallocateEPS5_m
FN:119,_ZN9__gnu_cxx13new_allocatorISt13_Rb_tree_nodeISt4pairIKS2_IiN7doctest6StringEEPFPNS3_9IReporterERKNS3_14ContextOptionsEEEEE10deallocateEPSF_m
FNDA:3,_ZN9__gnu_cxx13new_allocatorISt13_Rb_tree_nodeISt4pairIKS2_IiN7doctest6StringEEPFPNS3_9IReporterERKNS3_14ContextOptionsEEEEE10deallocateEPSF_m
FN:119,_ZN9__gnu_cxx13new_allocatorISt13_Rb_tree_nodeIN7doctest6detail8TestCaseEEE10deallocateEPS5_m
FNDA:1,_ZN9__gnu_cxx13new_allocatorISt13_Rb_tree_nodeIN7doctest6detail8TestCaseEEE10deallocateEPS5_m
FN:119,_ZN9__gnu_cxx13new_allocatorIPKN7doctest6detail20IExceptionTranslatorEE10deallocateEPS5_m
FNDA:0,_ZN9__gnu_cxx13new_allocatorIPKN7doctest6detail20IExceptionTranslatorEE10deallocateEPS5_m
FN:119,_ZN9__gnu_cxx13new_allocatorIPN7doctest13IContextScopeEE10deallocateEPS3_m
FNDA:0,_ZN9__gnu_cxx13new_allocatorIPN7doctest13IContextScopeEE10deallocateEPS3_m
FN:119,_ZN9__gnu_cxx13new_allocatorINSt7__cxx1112basic_stringIcSt11char_traitsIcESaIcEEEE10deallocateEPS6_m
FNDA:0,_ZN9__gnu_cxx13new_allocatorINSt7__cxx1112basic_stringIcSt11char_traitsIcESaIcEEEE10deallocateEPS6_m
FN:119,_ZN9__gnu_cxx13new_allocatorISt13_Rb_tree_nodeISt6vectorIN7doctest16SubcaseSignatureESaIS4_EEEE10deallocateEPS7_m
FNDA:0,_ZN9__gnu_cxx13new_allocatorISt13_Rb_tree_nodeISt6vectorIN7doctest16SubcaseSignatureESaIS4_EEEE10deallocateEPS7_m
FN:119,_ZN9__gnu_cxx13new_allocatorIN7doctest6StringEE10deallocateEPS2_m
FNDA:1,_ZN9__gnu_cxx13new_allocatorIN7doctest6StringEE10deallocateEPS2_m
FN:119,_ZN9__gnu_cxx13new_allocatorIN7doctest12_GLOBAL__N_113JUnitReporter17JUnitTestCaseData13JUnitTestCaseEE10deallocateEPS5_m
FNDA:0,_ZN9__gnu_cxx13new_allocatorIN7doctest12_GLOBAL__N_113JUnitReporter17JUnitTestCaseData13JUnitTestCaseEE10deallocateEPS5_m
FN:119,_ZN9__gnu_cxx13new_allocatorISt6vectorIN7doctest6StringESaIS3_EEE10deallocateEPS5_m
FNDA:1,_ZN9__gnu_cxx13new_allocatorISt6vectorIN7doctest6StringESaIS3_EEE10deallocateEPS5_m
FN:119,_ZN9__gnu_cxx13new_allocatorIN7doctest16SubcaseSignatureEE10deallocateEPS2_m
FNDA:0,_ZN9__gnu_cxx13new_allocatorIN7doctest16SubcaseSignatureEE10deallocateEPS2_m
FN:119,_ZN9__gnu_cxx13new_allocatorIPN7doctest9IReporterEE10deallocateEPS3_m
FNDA:1,_ZN9__gnu_cxx13new_allocatorIPN7doctest9IReporterEE10deallocateEPS3_m
FN:119,_ZN9__gnu_cxx13new_allocatorISt13_Rb_tree_nodeIN7doctest6StringEEE10deallocateEPS4_m
FNDA:0,_ZN9__gnu_cxx13new_allocatorISt13_Rb_tree_nodeIN7doctest6StringEEE10deallocateEPS4_m
FN:119,_ZN9__gnu_cxx13new_allocatorIPKN7doctest6detail8TestCaseEE10deallocateEPS5_m
FNDA:1,_ZN9__gnu_cxx13new_allocatorIPKN7doctest6detail8TestCaseEE10deallocateEPS5_m
FN:119,_ZN9__gnu_cxx13new_allocatorIPKN7doctest12TestCaseDataEE10deallocateEPS4_m
FNDA:0,_ZN9__gnu_cxx13new_allocatorIPKN7doctest12TestCaseDataEE10deallocateEPS4_m
FN:132,_ZNK9__gnu_cxx13new_allocatorISt13_Rb_tree_nodeISt6vectorIN7doctest16SubcaseSignatureESaIS4_EEEE8max_sizeEv
FNDA:0,_ZNK9__gnu_cxx13new_allocatorISt13_Rb_tree_nodeISt6vectorIN7doctest16SubcaseSignatureESaIS4_EEEE8max_sizeEv
FN:132,_ZNK9__gnu_cxx13new_allocatorISt13_Rb_tree_nodeIN7doctest6detail8TestCaseEEE8max_sizeEv
FNDA:1,_ZNK9__gnu_cxx13new_allocatorISt13_Rb_tree_nodeIN7doctest6detail8TestCaseEEE8max_sizeEv
FN:132,_ZNK9__gnu_cxx13new_allocatorISt13_Rb_tree_nodeIN7doctest6StringEEE8max_sizeEv
FNDA:0,_ZNK9__gnu_cxx13new_allocatorISt13_Rb_tree_nodeIN7doctest6StringEEE8max_sizeEv
FN:132,_ZNK9__gnu_cxx13new_allocatorIN7doctest16SubcaseSignatureEE8max_sizeEv
FNDA:0,_ZNK9__gnu_cxx13new_allocatorIN7doctest16SubcaseSignatureEE8max_sizeEv
FN:132,_ZNK9__gnu_cxx13new_allocatorISt13_Rb_tree_nodeISt4pairIKS2_IiN7doctest6StringEEPFPNS3_9IReporterERKNS3_14ContextOptionsEEEEE8max_sizeEv
FNDA:3,_ZNK9__gnu_cxx13new_allocatorISt13_Rb_tree_nodeISt4pairIKS2_IiN7doctest6StringEEPFPNS3_9IReporterERKNS3_14ContextOptionsEEEEE8max_sizeEv
FN:132,_ZNK9__gnu_cxx13new_allocatorIPKN7doctest6detail20IExceptionTranslatorEE8max_sizeEv
FNDA:0,_ZNK9__gnu_cxx13new_allocatorIPKN7doctest6detail20IExceptionTranslatorEE8max_sizeEv
FN:132,_ZNK9__gnu_cxx13new_allocatorINSt7__cxx1112basic_stringIcSt11char_traitsIcESaIcEEEE8max_sizeEv
FNDA:0,_ZNK9__gnu_cxx13new_allocatorINSt7__cxx1112basic_stringIcSt11char_traitsIcESaIcEEEE8max_sizeEv
FN:132,_ZNK9__gnu_cxx13new_allocatorIN7doctest12_GLOBAL__N_113JUnitReporter17JUnitTestCaseData13JUnitTestCaseEE8max_sizeEv
FNDA:0,_ZNK9__gnu_cxx13new_allocatorIN7doctest12_GLOBAL__N_113JUnitReporter17JUnitTestCaseData13JUnitTestCaseEE8max_sizeEv
FN:132,_ZNK9__gnu_cxx13new_allocatorIN7doctest12_GLOBAL__N_113JUnitReporter17JUnitTestCaseData16JUnitTestMessageEE8max_sizeEv
FNDA:0,_ZNK9__gnu_cxx13new_allocatorIN7doctest12_GLOBAL__N_113JUnitReporter17JUnitTestCaseData16JUnitTestMessageEE8max_sizeEv
FN:132,_ZNK9__gnu_cxx13new_allocatorIPN7doctest13IContextScopeEE8max_sizeEv
FNDA:0,_ZNK9__gnu_cxx13new_allocatorIPN7doctest13IContextScopeEE8max_sizeEv
FN:132,_ZNK9__gnu_cxx13new_allocatorIN7doctest6StringEE8max_sizeEv
FNDA:3,_ZNK9__gnu_cxx13new_allocatorIN7doctest6StringEE8max_sizeEv
FN:132,_ZNK9__gnu_cxx13new_allocatorISt6vectorIN7doctest6StringESaIS3_EEE8max_sizeEv
FNDA:2,_ZNK9__gnu_cxx13new_allocatorISt6vectorIN7doctest6StringESaIS3_EEE8max_sizeEv
FN:132,_ZNK9__gnu_cxx13new_allocatorIPKN7doctest6detail8TestCaseEE8max_sizeEv
FNDA:3,_ZNK9__gnu_cxx13new_allocatorIPKN7doctest6detail8TestCaseEE8max_sizeEv
FN:132,_ZNK9__gnu_cxx13new_allocatorIPKN7doctest12TestCaseDataEE8max_sizeEv
FNDA:0,_ZNK9__gnu_cxx13new_allocatorIPKN7doctest12TestCaseDataEE8max_sizeEv
FN:132,_ZNK9__gnu_cxx13new_allocatorIPN7doctest9IReporterEE8max_sizeEv
FNDA:3,_ZNK9__gnu_cxx13new_allocatorIPN7doctest9IReporterEE8max_sizeEv
FN:144,_ZN9__gnu_cxx13new_allocatorISt13_Rb_tree_nodeIN7doctest6detail8TestCaseEEE9constructIS4_JRKS4_EEEvPT_DpOT0_
FNDA:1,_ZN9__gnu_cxx13new_allocatorISt13_Rb_tree_nodeIN7doctest6detail8TestCaseEEE9constructIS4_JRKS4_EEEvPT_DpOT0_
FN:144,_ZN9__gnu_cxx13new_allocatorIPKN7doctest12TestCaseDataEE9constructIS4_JS4_EEEvPT_DpOT0_
FNDA:0,_ZN9__gnu_cxx13new_allocatorIPKN7doctest12TestCaseDataEE9constructIS4_JS4_EEEvPT_DpOT0_
FN:144,_ZN9__gnu_cxx13new_allocatorIPKN7doctest6detail8TestCaseEE9constructIS5_JS5_EEEvPT_DpOT0_
FNDA:1,_ZN9__gnu_cxx13new_allocatorIPKN7doctest6detail8TestCaseEE9constructIS5_JS5_EEEvPT_DpOT0_
FN:144,_ZN9__gnu_cxx13new_allocatorIPN7doctest9IReporterEE9constructIS3_JS3_EEEvPT_DpOT0_
FNDA:1,_ZN9__gnu_cxx13new_allocatorIPN7doctest9IReporterEE9constructIS3_JS3_EEEvPT_DpOT0_
FN:144,_ZN9__gnu_cxx13new_allocatorIN7doctest6StringEE9constructIS2_JS2_EEEvPT_DpOT0_
FNDA:1,_ZN9__gnu_cxx13new_allocatorIN7doctest6StringEE9constructIS2_JS2_EEEvPT_DpOT0_
FN:144,_ZN9__gnu_cxx13new_allocatorIPN7doctest13IContextScopeEE9constructIS3_JS3_EEEvPT_DpOT0_
FNDA:0,_ZN9__gnu_cxx13new_allocatorIPN7doctest13IContextScopeEE9constructIS3_JS3_EEEvPT_DpOT0_
FN:144,_ZN9__gnu_cxx13new_allocatorISt13_Rb_tree_nodeISt6vectorIN7doctest16SubcaseSignatureESaIS4_EEEE9constructIS6_JRKS6_EEEvPT_DpOT0_
FNDA:0,_ZN9__gnu_cxx13new_allocatorISt13_Rb_tree_nodeISt6vectorIN7doctest16SubcaseSignatureESaIS4_EEEE9constructIS6_JRKS6_EEEvPT_DpOT0_
FN:144,_ZN9__gnu_cxx13new_allocatorIN7doctest12_GLOBAL__N_113JUnitReporter17JUnitTestCaseData16JUnitTestMessageEE9constructIS5_JRKNSt7__cxx1112basic_stringIcSt11char_traitsIcESaIcEEESF_EEEvPT_DpOT0_
FNDA:0,_ZN9__gnu_cxx13new_allocatorIN7doctest12_GLOBAL__N_113JUnitReporter17JUnitTestCaseData16JUnitTestMessageEE9constructIS5_JRKNSt7__cxx1112basic_stringIcSt11char_traitsIcESaIcEEESF_EEEvPT_DpOT0_
FN:144,_ZN9__gnu_cxx13new_allocatorISt13_Rb_tree_nodeIN7doctest6StringEEE9constructIS3_JS3_EEEvPT_DpOT0_
FNDA:0,_ZN9__gnu_cxx13new_allocatorISt13_Rb_tree_nodeIN7doctest6StringEEE9constructIS3_JS3_EEEvPT_DpOT0_
FN:144,_ZN9__gnu_cxx13new_allocatorIN7doctest6StringEE9constructIS2_JRKS2_EEEvPT_DpOT0_
FNDA:0,_ZN9__gnu_cxx13new_allocatorIN7doctest6StringEE9constructIS2_JRKS2_EEEvPT_DpOT0_
FN:144,_ZN9__gnu_cxx13new_allocatorINSt7__cxx1112basic_stringIcSt11char_traitsIcESaIcEEEE9constructIS6_JRKS6_EEEvPT_DpOT0_
FNDA:0,_ZN9__gnu_cxx13new_allocatorINSt7__cxx1112basic_stringIcSt11char_traitsIcESaIcEEEE9constructIS6_JRKS6_EEEvPT_DpOT0_
FN:144,_ZN9__gnu_cxx13new_allocatorIN7doctest12_GLOBAL__N_113JUnitReporter17JUnitTestCaseData16JUnitTestMessageEE9constructIS5_JRKNSt7__cxx1112basic_stringIcSt11char_traitsIcESaIcEEESF_SF_EEEvPT_DpOT0_
FNDA:0,_ZN9__gnu_cxx13new_allocatorIN7doctest12_GLOBAL__N_113JUnitReporter17JUnitTestCaseData16JUnitTestMessageEE9constructIS5_JRKNSt7__cxx1112basic_stringIcSt11char_traitsIcESaIcEEESF_SF_EEEvPT_DpOT0_
FN:144,_ZN9__gnu_cxx13new_allocatorIN7doctest12_GLOBAL__N_113JUnitReporter17JUnitTestCaseData13JUnitTestCaseEE9constructIS5_JRKNSt7__cxx1112basic_stringIcSt11char_traitsIcESaIcEEESF_EEEvPT_DpOT0_
FNDA:0,_ZN9__gnu_cxx13new_allocatorIN7doctest12_GLOBAL__N_113JUnitReporter17JUnitTestCaseData13JUnitTestCaseEE9constructIS5_JRKNSt7__cxx1112basic_stringIcSt11char_traitsIcESaIcEEESF_EEEvPT_DpOT0_
FN:144,_ZN9__gnu_cxx13new_allocatorISt13_Rb_tree_nodeISt4pairIKS2_IiN7doctest6StringEEPFPNS3_9IReporterERKNS3_14ContextOptionsEEEEE9constructISE_JSE_EEEvPT_DpOT0_
FNDA:3,_ZN9__gnu_cxx13new_allocatorISt13_Rb_tree_nodeISt4pairIKS2_IiN7doctest6StringEEPFPNS3_9IReporterERKNS3_14ContextOptionsEEEEE9constructISE_JSE_EEEvPT_DpOT0_
FN:144,_ZN9__gnu_cxx13new_allocatorIN7doctest16SubcaseSignatureEE9constructIS2_JRKS2_EEEvPT_DpOT0_
FNDA:0,_ZN9__gnu_cxx13new_allocatorIN7doctest16SubcaseSignatureEE9constructIS2_JRKS2_EEEvPT_DpOT0_
FN:144,_ZN9__gnu_cxx13new_allocatorINSt7__cxx1112basic_stringIcSt11char_traitsIcESaIcEEEE9constructIS6_JS6_EEEvPT_DpOT0_
FNDA:0,_ZN9__gnu_cxx13new_allocatorINSt7__cxx1112basic_stringIcSt11char_traitsIcESaIcEEEE9constructIS6_JS6_EEEvPT_DpOT0_
FN:144,_ZN9__gnu_cxx13new_allocatorIPKN7doctest6detail20IExceptionTranslatorEE9constructIS5_JRKS5_EEEvPT_DpOT0_
FNDA:0,_ZN9__gnu_cxx13new_allocatorIPKN7doctest6detail20IExceptionTranslatorEE9constructIS5_JRKS5_EEEvPT_DpOT0_
FN:144,_ZN9__gnu_cxx13new_allocatorIN7doctest12_GLOBAL__N_113JUnitReporter17JUnitTestCaseData13JUnitTestCaseEE9constructIS5_JS5_EEEvPT_DpOT0_
FNDA:0,_ZN9__gnu_cxx13new_allocatorIN7doctest12_GLOBAL__N_113JUnitReporter17JUnitTestCaseData13JUnitTestCaseEE9constructIS5_JS5_EEEvPT_DpOT0_
FN:144,_ZN9__gnu_cxx13new_allocatorIN7doctest12_GLOBAL__N_113JUnitReporter17JUnitTestCaseData16JUnitTestMessageEE9constructIS5_JS5_EEEvPT_DpOT0_
FNDA:0,_ZN9__gnu_cxx13new_allocatorIN7doctest12_GLOBAL__N_113JUnitReporter17JUnitTestCaseData16JUnitTestMessageEE9constructIS5_JS5_EEEvPT_DpOT0_
FN:151,_ZN9__gnu_cxx13new_allocatorIPN7doctest13IContextScopeEE7destroyIS3_EEvPT_
FNDA:0,_ZN9__gnu_cxx13new_allocatorIPN7doctest13IContextScopeEE7destroyIS3_EEvPT_
FN:151,_ZN9__gnu_cxx13new_allocatorISt13_Rb_tree_nodeISt4pairIKS2_IiN7doctest6StringEEPFPNS3_9IReporterERKNS3_14ContextOptionsEEEEE7destroyISE_EEvPT_
FNDA:3,_ZN9__gnu_cxx13new_allocatorISt13_Rb_tree_nodeISt4pairIKS2_IiN7doctest6StringEEPFPNS3_9IReporterERKNS3_14ContextOptionsEEEEE7destroyISE_EEvPT_
FN:151,_ZN9__gnu_cxx13new_allocatorIN7doctest12_GLOBAL__N_113JUnitReporter17JUnitTestCaseData13JUnitTestCaseEE7destroyIS5_EEvPT_
FNDA:0,_ZN9__gnu_cxx13new_allocatorIN7doctest12_GLOBAL__N_113JUnitReporter17JUnitTestCaseData13JUnitTestCaseEE7destroyIS5_EEvPT_
FN:151,_ZN9__gnu_cxx13new_allocatorISt13_Rb_tree_nodeISt6vectorIN7doctest16SubcaseSignatureESaIS4_EEEE7destroyIS6_EEvPT_
FNDA:0,_ZN9__gnu_cxx13new_allocatorISt13_Rb_tree_nodeISt6vectorIN7doctest16SubcaseSignatureESaIS4_EEEE7destroyIS6_EEvPT_
FN:151,_ZN9__gnu_cxx13new_allocatorIN7doctest12_GLOBAL__N_113JUnitReporter17JUnitTestCaseData16JUnitTestMessageEE7destroyIS5_EEvPT_
FNDA:0,_ZN9__gnu_cxx13new_allocatorIN7doctest12_GLOBAL__N_113JUnitReporter17JUnitTestCaseData16JUnitTestMessageEE7destroyIS5_EEvPT_
FN:151,_ZN9__gnu_cxx13new_allocatorIN7doctest6StringEE7destroyIS2_EEvPT_
FNDA:0,_ZN9__gnu_cxx13new_allocatorIN7doctest6StringEE7destroyIS2_EEvPT_
FN:151,_ZN9__gnu_cxx13new_allocatorINSt7__cxx1112basic_stringIcSt11char_traitsIcESaIcEEEE7destroyIS6_EEvPT_
FNDA:0,_ZN9__gnu_cxx13new_allocatorINSt7__cxx1112basic_stringIcSt11char_traitsIcESaIcEEEE7destroyIS6_EEvPT_
FN:151,_ZN9__gnu_cxx13new_allocatorISt13_Rb_tree_nodeIN7doctest6StringEEE7destroyIS3_EEvPT_
FNDA:0,_ZN9__gnu_cxx13new_allocatorISt13_Rb_tree_nodeIN7doctest6StringEEE7destroyIS3_EEvPT_
FN:151,_ZN9__gnu_cxx13new_allocatorISt13_Rb_tree_nodeIN7doctest6detail8TestCaseEEE7destroyIS4_EEvPT_
FNDA:1,_ZN9__gnu_cxx13new_allocatorISt13_Rb_tree_nodeIN7doctest6detail8TestCaseEEE7destroyIS4_EEvPT_
FN:151,_ZN9__gnu_cxx13new_allocatorIN7doctest16SubcaseSignatureEE7destroyIS2_EEvPT_
FNDA:0,_ZN9__gnu_cxx13new_allocatorIN7doctest16SubcaseSignatureEE7destroyIS2_EEvPT_
DA:80,1
DA:80,1
DA:80,1
DA:80,1
DA:80,1
DA:80,2
DA:80,0
DA:80,10
DA:80,0
DA:80,0
DA:80,0
DA:80,0
DA:80,1
DA:80,2
DA:80,1
DA:80,0
DA:83,0
DA:83,0
DA:83,0
DA:83,2
DA:83,0
DA:89,1
DA:89,1
DA:89,1
DA:89,1
DA:89,1
DA:89,2
DA:89,0
DA:89,10
DA:89,0
DA:89,0
DA:89,0
DA:89,0
DA:89,1
DA:89,2
DA:89,3
DA:89,0
DA:102,3
DA:104,3
DA:105,0
DA:114,3
DA:102,0
DA:104,0
DA:105,0
DA:114,0
DA:102,1
DA:104,1
DA:105,0
DA:114,1
DA:102,0
DA:104,0
DA:105,0
DA:114,0
DA:102,0
DA:104,0
DA:105,0
DA:114,0
DA:102,1
DA:104,1
DA:105,0
DA:114,1
DA:102,1
DA:104,1
DA:105,0
DA:114,1
DA:102,0
DA:104,0
DA:105,0
DA:114,0
DA:102,1
DA:104,1
DA:105,0
DA:114,1
DA:102,1
DA:104,1
DA:105,0
DA:114,1
DA:102,0
DA:104,0
DA:105,0
DA:114,0
DA:102,0
DA:104,0
DA:105,0
DA:114,0
DA:102,0
DA:104,0
DA:105,0
DA:114,0
DA:102,0
DA:104,0
DA:105,0
DA:114,0
DA:102,0
DA:104,0
DA:105,0
DA:114,0
DA:119,0
DA:128,0
DA:119,0
DA:128,0
DA:119,1
DA:128,1
DA:119,3
DA:128,3
DA:119,1
DA:128,1
DA:119,0
DA:128,0
DA:119,1
DA:128,1
DA:119,1
DA:128,1
DA:119,0
DA:128,0
DA:119,0
DA:128,0
DA:119,1
DA:128,1
DA:119,0
DA:128,0
DA:119,0
DA:128,0
DA:119,0
DA:128,0
DA:119,0
DA:128,0
DA:132,3
DA:135,3
DA:132,0
DA:135,0
DA:132,1
DA:135,1
DA:132,0
DA:135,0
DA:132,0
DA:135,0
DA:132,3
DA:135,3
DA:132,3
DA:135,3
DA:132,0
DA:135,0
DA:132,3
DA:135,3
DA:132,0
DA:135,0
DA:132,0
DA:135,0
DA:132,0
DA:135,0
DA:132,0
DA:135,0
DA:132,0
DA:135,0
DA:132,2
DA:135,2
DA:144,1
DA:147,1
DA:144,0
DA:147,0
DA:144,0
DA:147,0
DA:144,0
DA:147,0
DA:144,0
DA:147,0
DA:144,0
DA:147,0
DA:144,0
DA:147,0
DA:144,0
DA:147,0
DA:144,0
DA:147,0
DA:144,1
DA:147,1
DA:144,0
DA:147,0
DA:144,1
DA:147,1
DA:144,0
DA:147,0
DA:144,0
DA:147,0
DA:144,1
DA:147,1
DA:144,0
DA:147,0
DA:144,3
DA:147,3
DA:144,0
DA:147,0
DA:144,0
DA:147,0
DA:151,0
DA:153,0
DA:151,0
DA:153,0
DA:151,1
DA:153,1
DA:151,3
DA:153,3
DA:151,0
DA:153,0
DA:151,0
DA:153,0
DA:151,0
DA:153,0
DA:151,0
DA:153,0
DA:151,0
DA:153,0
DA:151,0
DA:153,0
end_of_record
SF:/usr/include/c++/9/bits/alloc_traits.h
FN:443,_ZNSt16allocator_traitsISaIN7doctest6StringEEE8allocateERS2_m
FNDA:1,_ZNSt16allocator_traitsISaIN7doctest6StringEEE8allocateERS2_m
FN:443,_ZNSt16allocator_traitsISaIPKN7doctest12TestCaseDataEEE8allocateERS4_m
FNDA:0,_ZNSt16allocator_traitsISaIPKN7doctest12TestCaseDataEEE8allocateERS4_m
FN:443,_ZNSt16allocator_traitsISaIPKN7doctest6detail8TestCaseEEE8allocateERS5_m
FNDA:1,_ZNSt16allocator_traitsISaIPKN7doctest6detail8TestCaseEEE8allocateERS5_m
FN:443,_ZNSt16allocator_traitsISaIPN7doctest9IReporterEEE8allocateERS3_m
FNDA:1,_ZNSt16allocator_traitsISaIPN7doctest9IReporterEEE8allocateERS3_m
FN:443,_ZNSt16allocator_traitsISaISt13_Rb_tree_nodeISt6vectorIN7doctest16SubcaseSignatureESaIS3_EEEEE8allocateERS7_m
FNDA:0,_ZNSt16allocator_traitsISaISt13_Rb_tree_nodeISt6vectorIN7doctest16SubcaseSignatureESaIS3_EEEEE8allocateERS7_m
FN:443,_ZNSt16allocator_traitsISaISt13_Rb_tree_nodeIN7doctest6detail8TestCaseEEEE8allocateERS5_m
FNDA:1,_ZNSt16allocator_traitsISaISt13_Rb_tree_nodeIN7doctest6detail8TestCaseEEEE8allocateERS5_m
FN:443,_ZNSt16allocator_traitsISaISt6vectorIN7doctest6StringESaIS2_EEEE8allocateERS5_m
FNDA:1,_ZNSt16allocator_traitsISaISt6vectorIN7doctest6StringESaIS2_EEEE8allocateERS5_m
FN:443,_ZNSt16allocator_traitsISaIPN7doctest13IContextScopeEEE8allocateERS3_m
FNDA:0,_ZNSt16allocator_traitsISaIPN7doctest13IContextScopeEEE8allocateERS3_m
FN:443,_ZNSt16allocator_traitsISaIN7doctest12_GLOBAL__N_113JUnitReporter17JUnitTestCaseData16JUnitTestMessageEEE8allocateERS5_m
FNDA:0,_ZNSt16allocator_traitsISaIN7doctest12_GLOBAL__N_113JUnitReporter17JUnitTestCaseData16JUnitTestMessageEEE8allocateERS5_m
FN:443,_ZNSt16allocator_traitsISaISt13_Rb_tree_nodeIN7doctest6StringEEEE8allocateERS4_m
FNDA:0,_ZNSt16allocator_traitsISaISt13_Rb_tree_nodeIN7doctest6StringEEEE8allocateERS4_m
FN:443,_ZNSt16allocator_traitsISaIN7doctest12_GLOBAL__N_113JUnitReporter17JUnitTestCaseData13JUnitTestCaseEEE8allocateERS5_m
FNDA:0,_ZNSt16allocator_traitsISaIN7doctest12_GLOBAL__N_113JUnitReporter17JUnitTestCaseData13JUnitTestCaseEEE8allocateERS5_m
FN:443,_ZNSt16allocator_traitsISaISt13_Rb_tree_nodeISt4pairIKS1_IiN7doctest6StringEEPFPNS2_9IReporterERKNS2_14ContextOptionsEEEEEE8allocateERSF_m
FNDA:3,_ZNSt16allocator_traitsISaISt13_Rb_tree_nodeISt4pairIKS1_IiN7doctest6StringEEPFPNS2_9IReporterERKNS2_14ContextOptionsEEEEEE8allocateERSF_m
FN:443,_ZNSt16allocator_traitsISaINSt7__cxx1112basic_stringIcSt11char_traitsIcESaIcEEEEE8allocateERS6_m
FNDA:0,_ZNSt16allocator_traitsISaINSt7__cxx1112basic_stringIcSt11char_traitsIcESaIcEEEEE8allocateERS6_m
FN:443,_ZNSt16allocator_traitsISaIPKN7doctest6detail20IExceptionTranslatorEEE8allocateERS5_m
FNDA:0,_ZNSt16allocator_traitsISaIPKN7doctest6detail20IExceptionTranslatorEEE8allocateERS5_m
FN:443,_ZNSt16allocator_traitsISaIN7doctest16SubcaseSignatureEEE8allocateERS2_m
FNDA:0,_ZNSt16allocator_traitsISaIN7doctest16SubcaseSignatureEEE8allocateERS2_m
FN:469,_ZNSt16allocator_traitsISaISt13_Rb_tree_nodeIN7doctest6detail8TestCaseEEEE10deallocateERS5_PS4_m
FNDA:1,_ZNSt16allocator_traitsISaISt13_Rb_tree_nodeIN7doctest6detail8TestCaseEEEE10deallocateERS5_PS4_m
FN:469,_ZNSt16allocator_traitsISaIN7doctest12_GLOBAL__N_113JUnitReporter17JUnitTestCaseData16JUnitTestMessageEEE10deallocateERS5_PS4_m
FNDA:0,_ZNSt16allocator_traitsISaIN7doctest12_GLOBAL__N_113JUnitReporter17JUnitTestCaseData16JUnitTestMessageEEE10deallocateERS5_PS4_m
FN:469,_ZNSt16allocator_traitsISaISt13_Rb_tree_nodeISt4pairIKS1_IiN7doctest6StringEEPFPNS2_9IReporterERKNS2_14ContextOptionsEEEEEE10deallocateERSF_PSE_m
FNDA:3,_ZNSt16allocator_traitsISaISt13_Rb_tree_nodeISt4pairIKS1_IiN7doctest6StringEEPFPNS2_9IReporterERKNS2_14ContextOptionsEEEEEE10deallocateERSF_PSE_m
FN:469,_ZNSt16allocator_traitsISaISt13_Rb_tree_nodeISt6vectorIN7doctest16SubcaseSignatureESaIS3_EEEEE10deallocateERS7_PS6_m
FNDA:0,_ZNSt16allocator_traitsISaISt13_Rb_tree_nodeISt6vectorIN7doctest16SubcaseSignatureESaIS3_EEEEE10deallocateERS7_PS6_m
FN:469,_ZNSt16allocator_traitsISaIPKN7doctest6detail8TestCaseEEE10deallocateERS5_PS4_m
FNDA:1,_ZNSt16allocator_traitsISaIPKN7doctest6detail8TestCaseEEE10deallocateERS5_PS4_m
FN:469,_ZNSt16allocator_traitsISaISt13_Rb_tree_nodeIN7doctest6StringEEEE10deallocateERS4_PS3_m
FNDA:0,_ZNSt16allocator_traitsISaISt13_Rb_tree_nodeIN7doctest6StringEEEE10deallocateERS4_PS3_m
FN:469,_ZNSt16allocator_traitsISaIPKN7doctest12TestCaseDataEEE10deallocateERS4_PS3_m
FNDA:0,_ZNSt16allocator_traitsISaIPKN7doctest12TestCaseDataEEE10deallocateERS4_PS3_m
FN:469,_ZNSt16allocator_traitsISaIPN7doctest9IReporterEEE10deallocateERS3_PS2_m
FNDA:1,_ZNSt16allocator_traitsISaIPN7doctest9IReporterEEE10deallocateERS3_PS2_m
FN:469,_ZNSt16allocator_traitsISaIN7doctest16SubcaseSignatureEEE10deallocateERS2_PS1_m
FNDA:0,_ZNSt16allocator_traitsISaIN7doctest16SubcaseSignatureEEE10deallocateERS2_PS1_m
FN:469,_ZNSt16allocator_traitsISaIN7doctest12_GLOBAL__N_113JUnitReporter17JUnitTestCaseData13JUnitTestCaseEEE10deallocateERS5_PS4_m
FNDA:0,_ZNSt16allocator_traitsISaIN7doctest12_GLOBAL__N_113JUnitReporter17JUnitTestCaseData13JUnitTestCaseEEE10deallocateERS5_PS4_m
FN:469,_ZNSt16allocator_traitsISaIN7doctest6StringEEE10deallocateERS2_PS1_m
FNDA:1,_ZNSt16allocator_traitsISaIN7doctest6StringEEE10deallocateERS2_PS1_m
FN:469,_ZNSt16allocator_traitsISaINSt7__cxx1112basic_stringIcSt11char_traitsIcESaIcEEEEE10deallocateERS6_PS5_m
FNDA:0,_ZNSt16allocator_traitsISaINSt7__cxx1112basic_stringIcSt11char_traitsIcESaIcEEEEE10deallocateERS6_PS5_m
FN:469,_ZNSt16allocator_traitsISaIPN7doctest13IContextScopeEEE10deallocateERS3_PS2_m
FNDA:0,_ZNSt16allocator_traitsISaIPN7doctest13IContextScopeEEE10deallocateERS3_PS2_m
FN:469,_ZNSt16allocator_traitsISaIPKN7doctest6detail20IExceptionTranslatorEEE10deallocateERS5_PS4_m
FNDA:0,_ZNSt16allocator_traitsISaIPKN7doctest6detail20IExceptionTranslatorEEE10deallocateERS5_PS4_m
FN:469,_ZNSt16allocator_traitsISaISt6vectorIN7doctest6StringESaIS2_EEEE10deallocateERS5_PS4_m
FNDA:1,_ZNSt16allocator_traitsISaISt6vectorIN7doctest6StringESaIS2_EEEE10deallocateERS5_PS4_m
FN:482,_ZNSt16allocator_traitsISaIPKN7doctest12TestCaseDataEEE9constructIS3_JS3_EEEvRS4_PT_DpOT0_
FNDA:0,_ZNSt16allocator_traitsISaIPKN7doctest12TestCaseDataEEE9constructIS3_JS3_EEEvRS4_PT_DpOT0_
FN:482,_ZNSt16allocator_traitsISaIPN7doctest9IReporterEEE9constructIS2_JS2_EEEvRS3_PT_DpOT0_
FNDA:1,_ZNSt16allocator_traitsISaIPN7doctest9IReporterEEE9constructIS2_JS2_EEEvRS3_PT_DpOT0_
FN:482,_ZNSt16allocator_traitsISaIPKN7doctest6detail8TestCaseEEE9constructIS4_JS4_EEEvRS5_PT_DpOT0_
FNDA:1,_ZNSt16allocator_traitsISaIPKN7doctest6detail8TestCaseEEE9constructIS4_JS4_EEEvRS5_PT_DpOT0_
FN:482,_ZNSt16allocator_traitsISaIN7doctest16SubcaseSignatureEEE9constructIS1_JRKS1_EEEvRS2_PT_DpOT0_
FNDA:0,_ZNSt16allocator_traitsISaIN7doctest16SubcaseSignatureEEE9constructIS1_JRKS1_EEEvRS2_PT_DpOT0_
FN:482,_ZNSt16allocator_traitsISaIN7doctest6StringEEE9constructIS1_JS1_EEEvRS2_PT_DpOT0_
FNDA:1,_ZNSt16allocator_traitsISaIN7doctest6StringEEE9constructIS1_JS1_EEEvRS2_PT_DpOT0_
FN:482,_ZNSt16allocator_traitsISaIPN7doctest13IContextScopeEEE9constructIS2_JS2_EEEvRS3_PT_DpOT0_
FNDA:0,_ZNSt16allocator_traitsISaIPN7doctest13IContextScopeEEE9constructIS2_JS2_EEEvRS3_PT_DpOT0_
FN:482,_ZNSt16allocator_traitsISaIN7doctest6StringEEE9constructIS1_JRKS1_EEEvRS2_PT_DpOT0_
FNDA:0,_ZNSt16allocator_traitsISaIN7doctest6StringEEE9constructIS1_JRKS1_EEEvRS2_PT_DpOT0_
FN:482,_ZNSt16allocator_traitsISaIN7doctest12_GLOBAL__N_113JUnitReporter17JUnitTestCaseData16JUnitTestMessageEEE9constructIS4_JRKNSt7__cxx1112basic_stringIcSt11char_traitsIcESaIcEEESF_EEEvRS5_PT_DpOT0_
FNDA:0,_ZNSt16allocator_traitsISaIN7doctest12_GLOBAL__N_113JUnitReporter17JUnitTestCaseData16JUnitTestMessageEEE9constructIS4_JRKNSt7__cxx1112basic_stringIcSt11char_traitsIcESaIcEEESF_EEEvRS5_PT_DpOT0_
FN:482,_ZNSt16allocator_traitsISaIN7doctest12_GLOBAL__N_113JUnitReporter17JUnitTestCaseData16JUnitTestMessageEEE9constructIS4_JRKNSt7__cxx1112basic_stringIcSt11char_traitsIcESaIcEEESF_SF_EEEvRS5_PT_DpOT0_
FNDA:0,_ZNSt16allocator_traitsISaIN7doctest12_GLOBAL__N_113JUnitReporter17JUnitTestCaseData16JUnitTestMessageEEE9constructIS4_JRKNSt7__cxx1112basic_stringIcSt11char_traitsIcESaIcEEESF_SF_EEEvRS5_PT_DpOT0_
FN:482,_ZNSt16allocator_traitsISaIN7doctest12_GLOBAL__N_113JUnitReporter17JUnitTestCaseData13JUnitTestCaseEEE9constructIS4_JRKNSt7__cxx1112basic_stringIcSt11char_traitsIcESaIcEEESF_EEEvRS5_PT_DpOT0_
FNDA:0,_ZNSt16allocator_traitsISaIN7doctest12_GLOBAL__N_113JUnitReporter17JUnitTestCaseData13JUnitTestCaseEEE9constructIS4_JRKNSt7__cxx1112basic_stringIcSt11char_traitsIcESaIcEEESF_EEEvRS5_PT_DpOT0_
FN:482,_ZNSt16allocator_traitsISaINSt7__cxx1112basic_stringIcSt11char_traitsIcESaIcEEEEE9constructIS5_JRKS5_EEEvRS6_PT_DpOT0_
FNDA:0,_ZNSt16allocator_traitsISaINSt7__cxx1112basic_stringIcSt11char_traitsIcESaIcEEEEE9constructIS5_JRKS5_EEEvRS6_PT_DpOT0_
FN:482,_ZNSt16allocator_traitsISaIPKN7doctest6detail20IExceptionTranslatorEEE9constructIS4_JRKS4_EEEvRS5_PT_DpOT0_
FNDA:0,_ZNSt16allocator_traitsISaIPKN7doctest6detail20IExceptionTranslatorEEE9constructIS4_JRKS4_EEEvRS5_PT_DpOT0_
FN:482,_ZNSt16allocator_traitsISaIN7doctest12_GLOBAL__N_113JUnitReporter17JUnitTestCaseData16JUnitTestMessageEEE9constructIS4_JS4_EEEvRS5_PT_DpOT0_
FNDA:0,_ZNSt16allocator_traitsISaIN7doctest12_GLOBAL__N_113JUnitReporter17JUnitTestCaseData16JUnitTestMessageEEE9constructIS4_JS4_EEEvRS5_PT_DpOT0_
FN:482,_ZNSt16allocator_traitsISaIN7doctest12_GLOBAL__N_113JUnitReporter17JUnitTestCaseData13JUnitTestCaseEEE9constructIS4_JS4_EEEvRS5_PT_DpOT0_
FNDA:0,_ZNSt16allocator_traitsISaIN7doctest12_GLOBAL__N_113JUnitReporter17JUnitTestCaseData13JUnitTestCaseEEE9constructIS4_JS4_EEEvRS5_PT_DpOT0_
FN:482,_ZNSt16allocator_traitsISaINSt7__cxx1112basic_stringIcSt11char_traitsIcESaIcEEEEE9constructIS5_JS5_EEEvRS6_PT_DpOT0_
FNDA:0,_ZNSt16allocator_traitsISaINSt7__cxx1112basic_stringIcSt11char_traitsIcESaIcEEEEE9constructIS5_JS5_EEEvRS6_PT_DpOT0_
FN:482,_ZNSt16allocator_traitsISaISt13_Rb_tree_nodeISt4pairIKS1_IiN7doctest6StringEEPFPNS2_9IReporterERKNS2_14ContextOptionsEEEEEE9constructISD_JSD_EEEvRSF_PT_DpOT0_
FNDA:3,_ZNSt16allocator_traitsISaISt13_Rb_tree_nodeISt4pairIKS1_IiN7doctest6StringEEPFPNS2_9IReporterERKNS2_14ContextOptionsEEEEEE9constructISD_JSD_EEEvRSF_PT_DpOT0_
FN:482,_ZNSt16allocator_traitsISaISt13_Rb_tree_nodeIN7doctest6StringEEEE9constructIS2_JS2_EEEvRS4_PT_DpOT0_
FNDA:0,_ZNSt16allocator_traitsISaISt13_Rb_tree_nodeIN7doctest6StringEEEE9constructIS2_JS2_EEEvRS4_PT_DpOT0_
FN:482,_ZNSt16allocator_traitsISaISt13_Rb_tree_nodeIN7doctest6detail8TestCaseEEEE9constructIS3_JRKS3_EEEvRS5_PT_DpOT0_
FNDA:1,_ZNSt16allocator_traitsISaISt13_Rb_tree_nodeIN7doctest6detail8TestCaseEEEE9constructIS3_JRKS3_EEEvRS5_PT_DpOT0_
FN:482,_ZNSt16allocator_traitsISaISt13_Rb_tree_nodeISt6vectorIN7doctest16SubcaseSignatureESaIS3_EEEEE9constructIS5_JRKS5_EEEvRS7_PT_DpOT0_
FNDA:0,_ZNSt16allocator_traitsISaISt13_Rb_tree_nodeISt6vectorIN7doctest16SubcaseSignatureESaIS3_EEEEE9constructIS5_JRKS5_EEEvRS7_PT_DpOT0_
FN:495,_ZNSt16allocator_traitsISaISt13_Rb_tree_nodeISt4pairIKS1_IiN7doctest6StringEEPFPNS2_9IReporterERKNS2_14ContextOptionsEEEEEE7destroyISD_EEvRSF_PT_
FNDA:3,_ZNSt16allocator_traitsISaISt13_Rb_tree_nodeISt4pairIKS1_IiN7doctest6StringEEPFPNS2_9IReporterERKNS2_14ContextOptionsEEEEEE7destroyISD_EEvRSF_PT_
FN:495,_ZNSt16allocator_traitsISaIN7doctest16SubcaseSignatureEEE7destroyIS1_EEvRS2_PT_
FNDA:0,_ZNSt16allocator_traitsISaIN7doctest16SubcaseSignatureEEE7destroyIS1_EEvRS2_PT_
FN:495,_ZNSt16allocator_traitsISaIPN7doctest13IContextScopeEEE7destroyIS2_EEvRS3_PT_
FNDA:0,_ZNSt16allocator_traitsISaIPN7doctest13IContextScopeEEE7destroyIS2_EEvRS3_PT_
FN:495,_ZNSt16allocator_traitsISaINSt7__cxx1112basic_stringIcSt11char_traitsIcESaIcEEEEE7destroyIS5_EEvRS6_PT_
FNDA:0,_ZNSt16allocator_traitsISaINSt7__cxx1112basic_stringIcSt11char_traitsIcESaIcEEEEE7destroyIS5_EEvRS6_PT_
FN:495,_ZNSt16allocator_traitsISaIN7doctest12_GLOBAL__N_113JUnitReporter17JUnitTestCaseData13JUnitTestCaseEEE7destroyIS4_EEvRS5_PT_
FNDA:0,_ZNSt16allocator_traitsISaIN7doctest12_GLOBAL__N_113JUnitReporter17JUnitTestCaseData13JUnitTestCaseEEE7destroyIS4_EEvRS5_PT_
FN:495,_ZNSt16allocator_traitsISaIN7doctest12_GLOBAL__N_113JUnitReporter17JUnitTestCaseData16JUnitTestMessageEEE7destroyIS4_EEvRS5_PT_
FNDA:0,_ZNSt16allocator_traitsISaIN7doctest12_GLOBAL__N_113JUnitReporter17JUnitTestCaseData16JUnitTestMessageEEE7destroyIS4_EEvRS5_PT_
FN:495,_ZNSt16allocator_traitsISaISt13_Rb_tree_nodeIN7doctest6detail8TestCaseEEEE7destroyIS3_EEvRS5_PT_
FNDA:1,_ZNSt16allocator_traitsISaISt13_Rb_tree_nodeIN7doctest6detail8TestCaseEEEE7destroyIS3_EEvRS5_PT_
FN:495,_ZNSt16allocator_traitsISaISt13_Rb_tree_nodeISt6vectorIN7doctest16SubcaseSignatureESaIS3_EEEEE7destroyIS5_EEvRS7_PT_
FNDA:0,_ZNSt16allocator_traitsISaISt13_Rb_tree_nodeISt6vectorIN7doctest16SubcaseSignatureESaIS3_EEEEE7destroyIS5_EEvRS7_PT_
FN:495,_ZNSt16allocator_traitsISaISt13_Rb_tree_nodeIN7doctest6StringEEEE7destroyIS2_EEvRS4_PT_
FNDA:0,_ZNSt16allocator_traitsISaISt13_Rb_tree_nodeIN7doctest6StringEEEE7destroyIS2_EEvRS4_PT_
FN:495,_ZNSt16allocator_traitsISaIN7doctest6StringEEE7destroyIS1_EEvRS2_PT_
FNDA:0,_ZNSt16allocator_traitsISaIN7doctest6StringEEE7destroyIS1_EEvRS2_PT_
FN:505,_ZNSt16allocator_traitsISaIN7doctest12_GLOBAL__N_113JUnitReporter17JUnitTestCaseData16JUnitTestMessageEEE8max_sizeERKS5_
FNDA:0,_ZNSt16allocator_traitsISaIN7doctest12_GLOBAL__N_113JUnitReporter17JUnitTestCaseData16JUnitTestMessageEEE8max_sizeERKS5_
FN:505,_ZNSt16allocator_traitsISaISt6vectorIN7doctest6StringESaIS2_EEEE8max_sizeERKS5_
FNDA:1,_ZNSt16allocator_traitsISaISt6vectorIN7doctest6StringESaIS2_EEEE8max_sizeERKS5_
FN:505,_ZNSt16allocator_traitsISaIN7doctest16SubcaseSignatureEEE8max_sizeERKS2_
FNDA:0,_ZNSt16allocator_traitsISaIN7doctest16SubcaseSignatureEEE8max_sizeERKS2_
FN:505,_ZNSt16allocator_traitsISaIPKN7doctest6detail20IExceptionTranslatorEEE8max_sizeERKS5_
FNDA:0,_ZNSt16allocator_traitsISaIPKN7doctest6detail20IExceptionTranslatorEEE8max_sizeERKS5_
FN:505,_ZNSt16allocator_traitsISaINSt7__cxx1112basic_stringIcSt11char_traitsIcESaIcEEEEE8max_sizeERKS6_
FNDA:0,_ZNSt16allocator_traitsISaINSt7__cxx1112basic_stringIcSt11char_traitsIcESaIcEEEEE8max_sizeERKS6_
FN:505,_ZNSt16allocator_traitsISaIPKN7doctest12TestCaseDataEEE8max_sizeERKS4_
FNDA:0,_ZNSt16allocator_traitsISaIPKN7doctest12TestCaseDataEEE8max_sizeERKS4_
FN:505,_ZNSt16allocator_traitsISaIPKN7doctest6detail8TestCaseEEE8max_sizeERKS5_
FNDA:2,_ZNSt16allocator_traitsISaIPKN7doctest6detail8TestCaseEEE8max_sizeERKS5_
FN:505,_ZNSt16allocator_traitsISaIPN7doctest9IReporterEEE8max_sizeERKS3_
FNDA:2,_ZNSt16allocator_traitsISaIPN7doctest9IReporterEEE8max_sizeERKS3_
FN:505,_ZNSt16allocator_traitsISaIPN7doctest13IContextScopeEEE8max_sizeERKS3_
FNDA:0,_ZNSt16allocator_traitsISaIPN7doctest13IContextScopeEEE8max_sizeERKS3_
FN:505,_ZNSt16allocator_traitsISaIN7doctest12_GLOBAL__N_113JUnitReporter17JUnitTestCaseData13JUnitTestCaseEEE8max_sizeERKS5_
FNDA:0,_ZNSt16allocator_traitsISaIN7doctest12_GLOBAL__N_113JUnitReporter17JUnitTestCaseData13JUnitTestCaseEEE8max_sizeERKS5_
FN:505,_ZNSt16allocator_traitsISaIN7doctest6StringEEE8max_sizeERKS2_
FNDA:2,_ZNSt16allocator_traitsISaIN7doctest6StringEEE8max_sizeERKS2_
FN:514,_ZNSt16allocator_traitsISaIN7doctest6StringEEE37select_on_container_copy_constructionERKS2_
FNDA:0,_ZNSt16allocator_traitsISaIN7doctest6StringEEE37select_on_container_copy_constructionERKS2_
FN:514,_ZNSt16allocator_traitsISaIcEE37select_on_container_copy_constructionERKS0_
FNDA:0,_ZNSt16allocator_traitsISaIcEE37select_on_container_copy_constructionERKS0_
FN:514,_ZNSt16allocator_traitsISaIN7doctest16SubcaseSignatureEEE37select_on_container_copy_constructionERKS2_
FNDA:0,_ZNSt16allocator_traitsISaIN7doctest16SubcaseSignatureEEE37select_on_container_copy_constructionERKS2_
DA:443,3
DA:444,3
DA:443,0
DA:444,0
DA:443,1
DA:444,1
DA:443,0
DA:444,0
DA:443,0
DA:444,0
DA:443,1
DA:444,1
DA:443,1
DA:444,1
DA:443,0
DA:444,0
DA:443,1
DA:444,1
DA:443,1
DA:444,1
DA:443,0
DA:444,0
DA:443,0
DA:444,0
DA:443,0
DA:444,0
DA:443,0
DA:444,0
DA:443,0
DA:444,0
DA:469,0
DA:470,0
DA:469,0
DA:470,0
DA:469,1
DA:470,1
DA:469,3
DA:470,3
DA:469,1
DA:470,1
DA:469,0
DA:470,0
DA:469,1
DA:470,1
DA:469,1
DA:470,1
DA:469,0
DA:470,0
DA:469,0
DA:470,0
DA:469,1
DA:470,1
DA:469,0
DA:470,0
DA:469,0
DA:470,0
DA:469,0
DA:470,0
DA:469,0
DA:470,0
DA:482,1
DA:484,1
DA:482,0
DA:484,0
DA:482,0
DA:484,0
DA:482,0
DA:484,0
DA:482,0
DA:484,0
DA:482,0
DA:484,0
DA:482,0
DA:484,0
DA:482,0
DA:484,0
DA:482,0
DA:484,0
DA:482,1
DA:484,1
DA:482,0
DA:484,0
DA:482,1
DA:484,1
DA:482,0
DA:484,0
DA:482,0
DA:484,0
DA:482,1
DA:484,1
DA:482,0
DA:484,0
DA:482,3
DA:484,3
DA:482,0
DA:484,0
DA:482,0
DA:484,0
DA:495,0
DA:497,0
DA:495,0
DA:497,0
DA:495,1
DA:497,1
DA:495,3
DA:497,3
DA:495,0
DA:497,0
DA:495,0
DA:497,0
DA:495,0
DA:497,0
DA:495,0
DA:497,0
DA:495,0
DA:497,0
DA:495,0
DA:497,0
DA:505,0
DA:506,0
DA:505,2
DA:506,2
DA:505,2
DA:506,2
DA:505,0
DA:506,0
DA:505,2
DA:506,2
DA:505,0
DA:506,0
DA:505,0
DA:506,0
DA:505,0
DA:506,0
DA:505,0
DA:506,0
DA:505,0
DA:506,0
DA:505,1
DA:506,1
DA:514,0
DA:515,0
DA:514,0
DA:515,0
DA:514,0
DA:515,0
end_of_record
SF:/usr/include/c++/9/bits/stl_vector.h
FN:94,_ZNSt12_Vector_baseIPKN7doctest6detail20IExceptionTranslatorESaIS4_EE17_Vector_impl_dataC2Ev
FNDA:0,_ZNSt12_Vector_baseIPKN7doctest6detail20IExceptionTranslatorESaIS4_EE17_Vector_impl_dataC2Ev
FN:94,_ZNSt12_Vector_baseISt6vectorIN7doctest6StringESaIS2_EESaIS4_EE17_Vector_impl_dataC2Ev
FNDA:1,_ZNSt12_Vector_baseISt6vectorIN7doctest6StringESaIS2_EESaIS4_EE17_Vector_impl_dataC2Ev
FN:94,_ZNSt12_Vector_baseIPKN7doctest12TestCaseDataESaIS3_EE17_Vector_impl_dataC2Ev
FNDA:1,_ZNSt12_Vector_baseIPKN7doctest12TestCaseDataESaIS3_EE17_Vector_impl_dataC2Ev
FN:94,_ZNSt12_Vector_baseIPKN7doctest6detail8TestCaseESaIS4_EE17_Vector_impl_dataC2Ev
FNDA:1,_ZNSt12_Vector_baseIPKN7doctest6detail8TestCaseESaIS4_EE17_Vector_impl_dataC2Ev
FN:94,_ZNSt12_Vector_baseIPN7doctest9IReporterESaIS2_EE17_Vector_impl_dataC2Ev
FNDA:1,_ZNSt12_Vector_baseIPN7doctest9IReporterESaIS2_EE17_Vector_impl_dataC2Ev
FN:94,_ZNSt12_Vector_baseIN7doctest16SubcaseSignatureESaIS1_EE17_Vector_impl_dataC2Ev
FNDA:2,_ZNSt12_Vector_baseIN7doctest16SubcaseSignatureESaIS1_EE17_Vector_impl_dataC2Ev
FN:94,_ZNSt12_Vector_baseIN7doctest12_GLOBAL__N_113JUnitReporter17JUnitTestCaseData13JUnitTestCaseESaIS4_EE17_Vector_impl_dataC2Ev
FNDA:0,_ZNSt12_Vector_baseIN7doctest12_GLOBAL__N_113JUnitReporter17JUnitTestCaseData13JUnitTestCaseESaIS4_EE17_Vector_impl_dataC2Ev
FN:94,_ZNSt12_Vector_baseIN7doctest6StringESaIS1_EE17_Vector_impl_dataC2Ev
FNDA:10,_ZNSt12_Vector_baseIN7doctest6StringESaIS1_EE17_Vector_impl_dataC2Ev
FN:94,_ZNSt12_Vector_baseIN7doctest12_GLOBAL__N_113JUnitReporter17JUnitTestCaseData16JUnitTestMessageESaIS4_EE17_Vector_impl_dataC2Ev
FNDA:0,_ZNSt12_Vector_baseIN7doctest12_GLOBAL__N_113JUnitReporter17JUnitTestCaseData16JUnitTestMessageESaIS4_EE17_Vector_impl_dataC2Ev
FN:94,_ZNSt12_Vector_baseINSt7__cxx1112basic_stringIcSt11char_traitsIcESaIcEEESaIS5_EE17_Vector_impl_dataC2Ev
FNDA:0,_ZNSt12_Vector_baseINSt7__cxx1112basic_stringIcSt11char_traitsIcESaIcEEESaIS5_EE17_Vector_impl_dataC2Ev
FN:94,_ZNSt12_Vector_baseIPN7doctest13IContextScopeESaIS2_EE17_Vector_impl_dataC2Ev
FNDA:0,_ZNSt12_Vector_baseIPN7doctest13IContextScopeESaIS2_EE17_Vector_impl_dataC2Ev
FN:99,_ZNSt12_Vector_baseIN7doctest12_GLOBAL__N_113JUnitReporter17JUnitTestCaseData16JUnitTestMessageESaIS4_EE17_Vector_impl_dataC2EOS7_
FNDA:0,_ZNSt12_Vector_baseIN7doctest12_GLOBAL__N_113JUnitReporter17JUnitTestCaseData16JUnitTestMessageESaIS4_EE17_Vector_impl_dataC2EOS7_
FN:128,_ZNSt12_Vector_baseIPKN7doctest12TestCaseDataESaIS3_EE12_Vector_implC2Ev
FNDA:1,_ZNSt12_Vector_baseIPKN7doctest12TestCaseDataESaIS3_EE12_Vector_implC2Ev
FN:128,_ZNSt12_Vector_baseIPKN7doctest6detail8TestCaseESaIS4_EE12_Vector_implC2Ev
FNDA:1,_ZNSt12_Vector_baseIPKN7doctest6detail8TestCaseESaIS4_EE12_Vector_implC2Ev
FN:128,_ZNSt12_Vector_baseIPN7doctest9IReporterESaIS2_EE12_Vector_implC2Ev
FNDA:1,_ZNSt12_Vector_baseIPN7doctest9IReporterESaIS2_EE12_Vector_implC2Ev
FN:128,_ZNSt12_Vector_baseIN7doctest16SubcaseSignatureESaIS1_EE12_Vector_implC2Ev
FNDA:2,_ZNSt12_Vector_baseIN7doctest16SubcaseSignatureESaIS1_EE12_Vector_implC2Ev
FN:128,_ZNSt12_Vector_baseIN7doctest12_GLOBAL__N_113JUnitReporter17JUnitTestCaseData13JUnitTestCaseESaIS4_EE12_Vector_implC2Ev
FNDA:0,_ZNSt12_Vector_baseIN7doctest12_GLOBAL__N_113JUnitReporter17JUnitTestCaseData13JUnitTestCaseESaIS4_EE12_Vector_implC2Ev
FN:128,_ZNSt12_Vector_baseIN7doctest6StringESaIS1_EE12_Vector_implC2Ev
FNDA:10,_ZNSt12_Vector_baseIN7doctest6StringESaIS1_EE12_Vector_implC2Ev
FN:128,_ZNSt12_Vector_baseIN7doctest12_GLOBAL__N_113JUnitReporter17JUnitTestCaseData16JUnitTestMessageESaIS4_EE12_Vector_implC2Ev
FNDA:0,_ZNSt12_Vector_baseIN7doctest12_GLOBAL__N_113JUnitReporter17JUnitTestCaseData16JUnitTestMessageESaIS4_EE12_Vector_implC2Ev
FN:128,_ZNSt12_Vector_baseIPN7doctest13IContextScopeESaIS2_EE12_Vector_implC2Ev
FNDA:0,_ZNSt12_Vector_baseIPN7doctest13IContextScopeESaIS2_EE12_Vector_implC2Ev
FN:128,_ZNSt12_Vector_baseIPKN7doctest6detail20IExceptionTranslatorESaIS4_EE12_Vector_implC2Ev
FNDA:0,_ZNSt12_Vector_baseIPKN7doctest6detail20IExceptionTranslatorESaIS4_EE12_Vector_implC2Ev
FN:128,_ZNSt12_Vector_baseINSt7__cxx1112basic_stringIcSt11char_traitsIcESaIcEEESaIS5_EE12_Vector_implC2Ev
FNDA:0,_ZNSt12_Vector_baseINSt7__cxx1112basic_stringIcSt11char_traitsIcESaIcEEESaIS5_EE12_Vector_implC2Ev
FN:133,_ZNSt12_Vector_baseIN7doctest6StringESaIS1_EE12_Vector_implC2ERKS2_
FNDA:0,_ZNSt12_Vector_baseIN7doctest6StringESaIS1_EE12_Vector_implC2ERKS2_
FN:133,_ZNSt12_Vector_baseISt6vectorIN7doctest6StringESaIS2_EESaIS4_EE12_Vector_implC2ERKS5_
FNDA:1,_ZNSt12_Vector_baseISt6vectorIN7doctest6StringESaIS2_EESaIS4_EE12_Vector_implC2ERKS5_
FN:133,_ZNSt12_Vector_baseIN7doctest16SubcaseSignatureESaIS1_EE12_Vector_implC2ERKS2_
FNDA:0,_ZNSt12_Vector_baseIN7doctest16SubcaseSignatureESaIS1_EE12_Vector_implC2ERKS2_
FN:140,_ZNSt12_Vector_baseIN7doctest12_GLOBAL__N_113JUnitReporter17JUnitTestCaseData16JUnitTestMessageESaIS4_EE12_Vector_implC2EOS7_
FNDA:0,_ZNSt12_Vector_baseIN7doctest12_GLOBAL__N_113JUnitReporter17JUnitTestCaseData16JUnitTestMessageESaIS4_EE12_Vector_implC2EOS7_
FN:273,_ZNSt12_Vector_baseIPN7doctest13IContextScopeESaIS2_EE19_M_get_Tp_allocatorEv
FNDA:0,_ZNSt12_Vector_baseIPN7doctest13IContextScopeESaIS2_EE19_M_get_Tp_allocatorEv
FN:273,_ZNSt12_Vector_baseIPKN7doctest12TestCaseDataESaIS3_EE19_M_get_Tp_allocatorEv
FNDA:1,_ZNSt12_Vector_baseIPKN7doctest12TestCaseDataESaIS3_EE19_M_get_Tp_allocatorEv
FN:273,_ZNSt12_Vector_baseIPKN7doctest6detail8TestCaseESaIS4_EE19_M_get_Tp_allocatorEv
FNDA:3,_ZNSt12_Vector_baseIPKN7doctest6detail8TestCaseESaIS4_EE19_M_get_Tp_allocatorEv
FN:273,_ZNSt12_Vector_baseIPN7doctest9IReporterESaIS2_EE19_M_get_Tp_allocatorEv
FNDA:4,_ZNSt12_Vector_baseIPN7doctest9IReporterESaIS2_EE19_M_get_Tp_allocatorEv
FN:273,_ZNSt12_Vector_baseIN7doctest16SubcaseSignatureESaIS1_EE19_M_get_Tp_allocatorEv
FNDA:2,_ZNSt12_Vector_baseIN7doctest16SubcaseSignatureESaIS1_EE19_M_get_Tp_allocatorEv
FN:273,_ZNSt12_Vector_baseIN7doctest12_GLOBAL__N_113JUnitReporter17JUnitTestCaseData13JUnitTestCaseESaIS4_EE19_M_get_Tp_allocatorEv
FNDA:0,_ZNSt12_Vector_baseIN7doctest12_GLOBAL__N_113JUnitReporter17JUnitTestCaseData13JUnitTestCaseESaIS4_EE19_M_get_Tp_allocatorEv
FN:273,_ZNSt12_Vector_baseIN7doctest6StringESaIS1_EE19_M_get_Tp_allocatorEv
FNDA:13,_ZNSt12_Vector_baseIN7doctest6StringESaIS1_EE19_M_get_Tp_allocatorEv
FN:273,_ZNSt12_Vector_baseIN7doctest12_GLOBAL__N_113JUnitReporter17JUnitTestCaseData16JUnitTestMessageESaIS4_EE19_M_get_Tp_allocatorEv
FNDA:0,_ZNSt12_Vector_baseIN7doctest12_GLOBAL__N_113JUnitReporter17JUnitTestCaseData16JUnitTestMessageESaIS4_EE19_M_get_Tp_allocatorEv
FN:273,_ZNSt12_Vector_baseINSt7__cxx1112basic_stringIcSt11char_traitsIcESaIcEEESaIS5_EE19_M_get_Tp_allocatorEv
FNDA:0,_ZNSt12_Vector_baseINSt7__cxx1112basic_stringIcSt11char_traitsIcESaIcEEESaIS5_EE19_M_get_Tp_allocatorEv
FN:273,_ZNSt12_Vector_baseIPKN7doctest6detail20IExceptionTranslatorESaIS4_EE19_M_get_Tp_allocatorEv
FNDA:0,_ZNSt12_Vector_baseIPKN7doctest6detail20IExceptionTranslatorESaIS4_EE19_M_get_Tp_allocatorEv
FN:273,_ZNSt12_Vector_baseISt6vectorIN7doctest6StringESaIS2_EESaIS4_EE19_M_get_Tp_allocatorEv
FNDA:2,_ZNSt12_Vector_baseISt6vectorIN7doctest6StringESaIS2_EESaIS4_EE19_M_get_Tp_allocatorEv
FN:277,_ZNKSt12_Vector_baseIPKN7doctest6detail8TestCaseESaIS4_EE19_M_get_Tp_allocatorEv
FNDA:2,_ZNKSt12_Vector_baseIPKN7doctest6detail8TestCaseESaIS4_EE19_M_get_Tp_allocatorEv
FN:277,_ZNKSt12_Vector_baseIPN7doctest13IContextScopeESaIS2_EE19_M_get_Tp_allocatorEv
FNDA:0,_ZNKSt12_Vector_baseIPN7doctest13IContextScopeESaIS2_EE19_M_get_Tp_allocatorEv
FN:277,_ZNKSt12_Vector_baseIN7doctest12_GLOBAL__N_113JUnitReporter17JUnitTestCaseData16JUnitTestMessageESaIS4_EE19_M_get_Tp_allocatorEv
FNDA:0,_ZNKSt12_Vector_baseIN7doctest12_GLOBAL__N_113JUnitReporter17JUnitTestCaseData16JUnitTestMessageESaIS4_EE19_M_get_Tp_allocatorEv
FN:277,_ZNKSt12_Vector_baseIPN7doctest9IReporterESaIS2_EE19_M_get_Tp_allocatorEv
FNDA:2,_ZNKSt12_Vector_baseIPN7doctest9IReporterESaIS2_EE19_M_get_Tp_allocatorEv
FN:277,_ZNKSt12_Vector_baseIN7doctest12_GLOBAL__N_113JUnitReporter17JUnitTestCaseData13JUnitTestCaseESaIS4_EE19_M_get_Tp_allocatorEv
FNDA:0,_ZNKSt12_Vector_baseIN7doctest12_GLOBAL__N_113JUnitReporter17JUnitTestCaseData13JUnitTestCaseESaIS4_EE19_M_get_Tp_allocatorEv
FN:277,_ZNKSt12_Vector_baseINSt7__cxx1112basic_stringIcSt11char_traitsIcESaIcEEESaIS5_EE19_M_get_Tp_allocatorEv
FNDA:0,_ZNKSt12_Vector_baseINSt7__cxx1112basic_stringIcSt11char_traitsIcESaIcEEESaIS5_EE19_M_get_Tp_allocatorEv
FN:277,_ZNKSt12_Vector_baseIN7doctest6StringESaIS1_EE19_M_get_Tp_allocatorEv
FNDA:2,_ZNKSt12_Vector_baseIN7doctest6StringESaIS1_EE19_M_get_Tp_allocatorEv
FN:277,_ZNKSt12_Vector_baseIPKN7doctest6detail20IExceptionTranslatorESaIS4_EE19_M_get_Tp_allocatorEv
FNDA:0,_ZNKSt12_Vector_baseIPKN7doctest6detail20IExceptionTranslatorESaIS4_EE19_M_get_Tp_allocatorEv
FN:277,_ZNKSt12_Vector_baseIPKN7doctest12TestCaseDataESaIS3_EE19_M_get_Tp_allocatorEv
FNDA:0,_ZNKSt12_Vector_baseIPKN7doctest12TestCaseDataESaIS3_EE19_M_get_Tp_allocatorEv
FN:277,_ZNKSt12_Vector_baseIN7doctest16SubcaseSignatureESaIS1_EE19_M_get_Tp_allocatorEv
FNDA:0,_ZNKSt12_Vector_baseIN7doctest16SubcaseSignatureESaIS1_EE19_M_get_Tp_allocatorEv
FN:285,_ZNSt12_Vector_baseIPN7doctest9IReporterESaIS2_EEC2Ev
FNDA:1,_ZNSt12_Vector_baseIPN7doctest9IReporterESaIS2_EEC2Ev
FN:285,_ZNSt12_Vector_baseIN7doctest12_GLOBAL__N_113JUnitReporter17JUnitTestCaseData16JUnitTestMessageESaIS4_EEC2Ev
FNDA:0,_ZNSt12_Vector_baseIN7doctest12_GLOBAL__N_113JUnitReporter17JUnitTestCaseData16JUnitTestMessageESaIS4_EEC2Ev
FN:285,_ZNSt12_Vector_baseIN7doctest6StringESaIS1_EEC2Ev
FNDA:10,_ZNSt12_Vector_baseIN7doctest6StringESaIS1_EEC2Ev
FN:285,_ZNSt12_Vector_baseINSt7__cxx1112basic_stringIcSt11char_traitsIcESaIcEEESaIS5_EEC2Ev
FNDA:0,_ZNSt12_Vector_baseINSt7__cxx1112basic_stringIcSt11char_traitsIcESaIcEEESaIS5_EEC2Ev
FN:285,_ZNSt12_Vector_baseIN7doctest12_GLOBAL__N_113JUnitReporter17JUnitTestCaseData13JUnitTestCaseESaIS4_EEC2Ev
FNDA:0,_ZNSt12_Vector_baseIN7doctest12_GLOBAL__N_113JUnitReporter17JUnitTestCaseData13JUnitTestCaseESaIS4_EEC2Ev
FN:285,_ZNSt12_Vector_baseIPKN7doctest6detail20IExceptionTranslatorESaIS4_EEC2Ev
FNDA:0,_ZNSt12_Vector_baseIPKN7doctest6detail20IExceptionTranslatorESaIS4_EEC2Ev
FN:285,_ZNSt12_Vector_baseIPKN7doctest6detail8TestCaseESaIS4_EEC2Ev
FNDA:1,_ZNSt12_Vector_baseIPKN7doctest6detail8TestCaseESaIS4_EEC2Ev
FN:285,_ZNSt12_Vector_baseIN7doctest16SubcaseSignatureESaIS1_EEC2Ev
FNDA:2,_ZNSt12_Vector_baseIN7doctest16SubcaseSignatureESaIS1_EEC2Ev
FN:285,_ZNSt12_Vector_baseIPN7doctest13IContextScopeESaIS2_EEC2Ev
FNDA:0,_ZNSt12_Vector_baseIPN7doctest13IContextScopeESaIS2_EEC2Ev
FN:285,_ZNSt12_Vector_baseIPKN7doctest12TestCaseDataESaIS3_EEC2Ev
FNDA:1,_ZNSt12_Vector_baseIPKN7doctest12TestCaseDataESaIS3_EEC2Ev
FN:300,_ZNSt12_Vector_baseISt6vectorIN7doctest6StringESaIS2_EESaIS4_EEC2EmRKS5_
FNDA:1,_ZNSt12_Vector_baseISt6vectorIN7doctest6StringESaIS2_EESaIS4_EEC2EmRKS5_
FN:300,_ZNSt12_Vector_baseIN7doctest6StringESaIS1_EEC2EmRKS2_
FNDA:0,_ZNSt12_Vector_baseIN7doctest6StringESaIS1_EEC2EmRKS2_
FN:300,_ZNSt12_Vector_baseIN7doctest16SubcaseSignatureESaIS1_EEC2EmRKS2_
FNDA:0,_ZNSt12_Vector_baseIN7doctest16SubcaseSignatureESaIS1_EEC2EmRKS2_
FN:305,_ZNSt12_Vector_baseIN7doctest12_GLOBAL__N_113JUnitReporter17JUnitTestCaseData16JUnitTestMessageESaIS4_EEC2EOS6_
FNDA:0,_ZNSt12_Vector_baseIN7doctest12_GLOBAL__N_113JUnitReporter17JUnitTestCaseData16JUnitTestMessageESaIS4_EEC2EOS6_
FN:330,_ZNSt12_Vector_baseIN7doctest16SubcaseSignatureESaIS1_EED2Ev
FNDA:2,_ZNSt12_Vector_baseIN7doctest16SubcaseSignatureESaIS1_EED2Ev
FN:330,_ZNSt12_Vector_baseISt6vectorIN7doctest6StringESaIS2_EESaIS4_EED2Ev
FNDA:1,_ZNSt12_Vector_baseISt6vectorIN7doctest6StringESaIS2_EESaIS4_EED2Ev
FN:330,_ZNSt12_Vector_baseIN7doctest12_GLOBAL__N_113JUnitReporter17JUnitTestCaseData16JUnitTestMessageESaIS4_EED2Ev
FNDA:0,_ZNSt12_Vector_baseIN7doctest12_GLOBAL__N_113JUnitReporter17JUnitTestCaseData16JUnitTestMessageESaIS4_EED2Ev
FN:330,_ZNSt12_Vector_baseIPKN7doctest12TestCaseDataESaIS3_EED2Ev
FNDA:1,_ZNSt12_Vector_baseIPKN7doctest12TestCaseDataESaIS3_EED2Ev
FN:330,_ZNSt12_Vector_baseIN7doctest6StringESaIS1_EED2Ev
FNDA:10,_ZNSt12_Vector_baseIN7doctest6StringESaIS1_EED2Ev
FN:330,_ZNSt12_Vector_baseINSt7__cxx1112basic_stringIcSt11char_traitsIcESaIcEEESaIS5_EED2Ev
FNDA:0,_ZNSt12_Vector_baseINSt7__cxx1112basic_stringIcSt11char_traitsIcESaIcEEESaIS5_EED2Ev
FN:330,_ZNSt12_Vector_baseIPN7doctest13IContextScopeESaIS2_EED2Ev
FNDA:0,_ZNSt12_Vector_baseIPN7doctest13IContextScopeESaIS2_EED2Ev
FN:330,_ZNSt12_Vector_baseIPKN7doctest6detail8TestCaseESaIS4_EED2Ev
FNDA:1,_ZNSt12_Vector_baseIPKN7doctest6detail8TestCaseESaIS4_EED2Ev
FN:330,_ZNSt12_Vector_baseIN7doctest12_GLOBAL__N_113JUnitReporter17JUnitTestCaseData13JUnitTestCaseESaIS4_EED2Ev
FNDA:0,_ZNSt12_Vector_baseIN7doctest12_GLOBAL__N_113JUnitReporter17JUnitTestCaseData13JUnitTestCaseESaIS4_EED2Ev
FN:330,_ZNSt12_Vector_baseIPN7doctest9IReporterESaIS2_EED2Ev
FNDA:1,_ZNSt12_Vector_baseIPN7doctest9IReporterESaIS2_EED2Ev
FN:330,_ZNSt12_Vector_baseIPKN7doctest6detail20IExceptionTranslatorESaIS4_EED2Ev
FNDA:0,_ZNSt12_Vector_baseIPKN7doctest6detail20IExceptionTranslatorESaIS4_EED2Ev
FN:340,_ZNSt12_Vector_baseIN7doctest16SubcaseSignatureESaIS1_EE11_M_allocateEm
FNDA:0,_ZNSt12_Vector_baseIN7doctest16SubcaseSignatureESaIS1_EE11_M_allocateEm
FN:340,_ZNSt12_Vector_baseIPKN7doctest6detail20IExceptionTranslatorESaIS4_EE11_M_allocateEm
FNDA:0,_ZNSt12_Vector_baseIPKN7doctest6detail20IExceptionTranslatorESaIS4_EE11_M_allocateEm
FN:340,_ZNSt12_Vector_baseINSt7__cxx1112basic_stringIcSt11char_traitsIcESaIcEEESaIS5_EE11_M_allocateEm
FNDA:0,_ZNSt12_Vector_baseINSt7__cxx1112basic_stringIcSt11char_traitsIcESaIcEEESaIS5_EE11_M_allocateEm
FN:340,_ZNSt12_Vector_baseIPKN7doctest12TestCaseDataESaIS3_EE11_M_allocateEm
FNDA:0,_ZNSt12_Vector_baseIPKN7doctest12TestCaseDataESaIS3_EE11_M_allocateEm
FN:340,_ZNSt12_Vector_baseIN7doctest12_GLOBAL__N_113JUnitReporter17JUnitTestCaseData13JUnitTestCaseESaIS4_EE11_M_allocateEm
FNDA:0,_ZNSt12_Vector_baseIN7doctest12_GLOBAL__N_113JUnitReporter17JUnitTestCaseData13JUnitTestCaseESaIS4_EE11_M_allocateEm
FN:340,_ZNSt12_Vector_baseIPN7doctest9IReporterESaIS2_EE11_M_allocateEm
FNDA:1,_ZNSt12_Vector_baseIPN7doctest9IReporterESaIS2_EE11_M_allocateEm
FN:340,_ZNSt12_Vector_baseIN7doctest12_GLOBAL__N_113JUnitReporter17JUnitTestCaseData16JUnitTestMessageESaIS4_EE11_M_allocateEm
FNDA:0,_ZNSt12_Vector_baseIN7doctest12_GLOBAL__N_113JUnitReporter17JUnitTestCaseData16JUnitTestMessageESaIS4_EE11_M_allocateEm
FN:340,_ZNSt12_Vector_baseIPKN7doctest6detail8TestCaseESaIS4_EE11_M_allocateEm
FNDA:1,_ZNSt12_Vector_baseIPKN7doctest6detail8TestCaseESaIS4_EE11_M_allocateEm
FN:340,_ZNSt12_Vector_baseIN7doctest6StringESaIS1_EE11_M_allocateEm
FNDA:1,_ZNSt12_Vector_baseIN7doctest6StringESaIS1_EE11_M_allocateEm
FN:340,_ZNSt12_Vector_baseISt6vectorIN7doctest6StringESaIS2_EESaIS4_EE11_M_allocateEm
FNDA:1,_ZNSt12_Vector_baseISt6vectorIN7doctest6StringESaIS2_EESaIS4_EE11_M_allocateEm
FN:340,_ZNSt12_Vector_baseIPN7doctest13IContextScopeESaIS2_EE11_M_allocateEm
FNDA:0,_ZNSt12_Vector_baseIPN7doctest13IContextScopeESaIS2_EE11_M_allocateEm
FN:347,_ZNSt12_Vector_baseIN7doctest12_GLOBAL__N_113JUnitReporter17JUnitTestCaseData13JUnitTestCaseESaIS4_EE13_M_deallocateEPS4_m
FNDA:0,_ZNSt12_Vector_baseIN7doctest12_GLOBAL__N_113JUnitReporter17JUnitTestCaseData13JUnitTestCaseESaIS4_EE13_M_deallocateEPS4_m
FN:347,_ZNSt12_Vector_baseIN7doctest12_GLOBAL__N_113JUnitReporter17JUnitTestCaseData16JUnitTestMessageESaIS4_EE13_M_deallocateEPS4_m
FNDA:0,_ZNSt12_Vector_baseIN7doctest12_GLOBAL__N_113JUnitReporter17JUnitTestCaseData16JUnitTestMessageESaIS4_EE13_M_deallocateEPS4_m
FN:347,_ZNSt12_Vector_baseINSt7__cxx1112basic_stringIcSt11char_traitsIcESaIcEEESaIS5_EE13_M_deallocateEPS5_m
FNDA:0,_ZNSt12_Vector_baseINSt7__cxx1112basic_stringIcSt11char_traitsIcESaIcEEESaIS5_EE13_M_deallocateEPS5_m
FN:347,_ZNSt12_Vector_baseIPKN7doctest12TestCaseDataESaIS3_EE13_M_deallocateEPS3_m
FNDA:1,_ZNSt12_Vector_baseIPKN7doctest12TestCaseDataESaIS3_EE13_M_deallocateEPS3_m
FN:347,_ZNSt12_Vector_baseIPN7doctest13IContextScopeESaIS2_EE13_M_deallocateEPS2_m
FNDA:0,_ZNSt12_Vector_baseIPN7doctest13IContextScopeESaIS2_EE13_M_deallocateEPS2_m
FN:347,_ZNSt12_Vector_baseISt6vectorIN7doctest6StringESaIS2_EESaIS4_EE13_M_deallocateEPS4_m
FNDA:1,_ZNSt12_Vector_baseISt6vectorIN7doctest6StringESaIS2_EESaIS4_EE13_M_deallocateEPS4_m
FN:347,_ZNSt12_Vector_baseIPKN7doctest6detail8TestCaseESaIS4_EE13_M_deallocateEPS4_m
FNDA:2,_ZNSt12_Vector_baseIPKN7doctest6detail8TestCaseESaIS4_EE13_M_deallocateEPS4_m
FN:347,_ZNSt12_Vector_baseIPKN7doctest6detail20IExceptionTranslatorESaIS4_EE13_M_deallocateEPS4_m
FNDA:0,_ZNSt12_Vector_baseIPKN7doctest6detail20IExceptionTranslatorESaIS4_EE13_M_deallocateEPS4_m
FN:347,_ZNSt12_Vector_baseIN7doctest6StringESaIS1_EE13_M_deallocateEPS1_m
FNDA:11,_ZNSt12_Vector_baseIN7doctest6StringESaIS1_EE13_M_deallocateEPS1_m
FN:347,_ZNSt12_Vector_baseIPN7doctest9IReporterESaIS2_EE13_M_deallocateEPS2_m
FNDA:2,_ZNSt12_Vector_baseIPN7doctest9IReporterESaIS2_EE13_M_deallocateEPS2_m
FN:347,_ZNSt12_Vector_baseIN7doctest16SubcaseSignatureESaIS1_EE13_M_deallocateEPS1_m
FNDA:2,_ZNSt12_Vector_baseIN7doctest16SubcaseSignatureESaIS1_EE13_M_deallocateEPS1_m
FN:356,_ZNSt12_Vector_baseIN7doctest6StringESaIS1_EE17_M_create_storageEm
FNDA:0,_ZNSt12_Vector_baseIN7doctest6StringESaIS1_EE17_M_create_storageEm
FN:356,_ZNSt12_Vector_baseIN7doctest16SubcaseSignatureESaIS1_EE17_M_create_storageEm
FNDA:0,_ZNSt12_Vector_baseIN7doctest16SubcaseSignatureESaIS1_EE17_M_create_storageEm
FN:356,_ZNSt12_Vector_baseISt6vectorIN7doctest6StringESaIS2_EESaIS4_EE17_M_create_storageEm
FNDA:1,_ZNSt12_Vector_baseISt6vectorIN7doctest6StringESaIS2_EESaIS4_EE17_M_create_storageEm
FN:450,_ZNSt6vectorIPN7doctest9IReporterESaIS2_EE14_S_do_relocateEPS2_S5_S5_RS3_St17integral_constantIbLb1EE
FNDA:2,_ZNSt6vectorIPN7doctest9IReporterESaIS2_EE14_S_do_relocateEPS2_S5_S5_RS3_St17integral_constantIbLb1EE
FN:450,_ZNSt6vectorINSt7__cxx1112basic_stringIcSt11char_traitsIcESaIcEEESaIS5_EE14_S_do_relocateEPS5_S8_S8_RS6_St17integral_constantIbLb1EE
FNDA:0,_ZNSt6vectorINSt7__cxx1112basic_stringIcSt11char_traitsIcESaIcEEESaIS5_EE14_S_do_relocateEPS5_S8_S8_RS6_St17integral_constantIbLb1EE
FN:450,_ZNSt6vectorIPKN7doctest12TestCaseDataESaIS3_EE14_S_do_relocateEPS3_S6_S6_RS4_St17integral_constantIbLb1EE
FNDA:0,_ZNSt6vectorIPKN7doctest12TestCaseDataESaIS3_EE14_S_do_relocateEPS3_S6_S6_RS4_St17integral_constantIbLb1EE
FN:450,_ZNSt6vectorIN7doctest12_GLOBAL__N_113JUnitReporter17JUnitTestCaseData16JUnitTestMessageESaIS4_EE14_S_do_relocateEPS4_S7_S7_RS5_St17integral_constantIbLb1EE
FNDA:0,_ZNSt6vectorIN7doctest12_GLOBAL__N_113JUnitReporter17JUnitTestCaseData16JUnitTestMessageESaIS4_EE14_S_do_relocateEPS4_S7_S7_RS5_St17integral_constantIbLb1EE
FN:450,_ZNSt6vectorIN7doctest12_GLOBAL__N_113JUnitReporter17JUnitTestCaseData13JUnitTestCaseESaIS4_EE14_S_do_relocateEPS4_S7_S7_RS5_St17integral_constantIbLb1EE
FNDA:0,_ZNSt6vectorIN7doctest12_GLOBAL__N_113JUnitReporter17JUnitTestCaseData13JUnitTestCaseESaIS4_EE14_S_do_relocateEPS4_S7_S7_RS5_St17integral_constantIbLb1EE
FN:450,_ZNSt6vectorIPKN7doctest6detail20IExceptionTranslatorESaIS4_EE14_S_do_relocateEPS4_S7_S7_RS5_St17integral_constantIbLb1EE
FNDA:0,_ZNSt6vectorIPKN7doctest6detail20IExceptionTranslatorESaIS4_EE14_S_do_relocateEPS4_S7_S7_RS5_St17integral_constantIbLb1EE
FN:450,_ZNSt6vectorIPKN7doctest6detail8TestCaseESaIS4_EE14_S_do_relocateEPS4_S7_S7_RS5_St17integral_constantIbLb1EE
FNDA:2,_ZNSt6vectorIPKN7doctest6detail8TestCaseESaIS4_EE14_S_do_relocateEPS4_S7_S7_RS5_St17integral_constantIbLb1EE
FN:450,_ZNSt6vectorIPN7doctest13IContextScopeESaIS2_EE14_S_do_relocateEPS2_S5_S5_RS3_St17integral_constantIbLb1EE
FNDA:0,_ZNSt6vectorIPN7doctest13IContextScopeESaIS2_EE14_S_do_relocateEPS2_S5_S5_RS3_St17integral_constantIbLb1EE
FN:462,_ZNSt6vectorIPKN7doctest6detail8TestCaseESaIS4_EE11_S_relocateEPS4_S7_S7_RS5_
FNDA:2,_ZNSt6vectorIPKN7doctest6detail8TestCaseESaIS4_EE11_S_relocateEPS4_S7_S7_RS5_
FN:462,_ZNSt6vectorIPN7doctest9IReporterESaIS2_EE11_S_relocateEPS2_S5_S5_RS3_
FNDA:2,_ZNSt6vectorIPN7doctest9IReporterESaIS2_EE11_S_relocateEPS2_S5_S5_RS3_
FN:462,_ZNSt6vectorIPKN7doctest12TestCaseDataESaIS3_EE11_S_relocateEPS3_S6_S6_RS4_
FNDA:0,_ZNSt6vectorIPKN7doctest12TestCaseDataESaIS3_EE11_S_relocateEPS3_S6_S6_RS4_
FN:462,_ZNSt6vectorIPN7doctest13IContextScopeESaIS2_EE11_S_relocateEPS2_S5_S5_RS3_
FNDA:0,_ZNSt6vectorIPN7doctest13IContextScopeESaIS2_EE11_S_relocateEPS2_S5_S5_RS3_
FN:462,_ZNSt6vectorIN7doctest12_GLOBAL__N_113JUnitReporter17JUnitTestCaseData16JUnitTestMessageESaIS4_EE11_S_relocateEPS4_S7_S7_RS5_
FNDA:0,_ZNSt6vectorIN7doctest12_GLOBAL__N_113JUnitReporter17JUnitTestCaseData16JUnitTestMessageESaIS4_EE11_S_relocateEPS4_S7_S7_RS5_
FN:462,_ZNSt6vectorIPKN7doctest6detail20IExceptionTranslatorESaIS4_EE11_S_relocateEPS4_S7_S7_RS5_
FNDA:0,_ZNSt6vectorIPKN7doctest6detail20IExceptionTranslatorESaIS4_EE11_S_relocateEPS4_S7_S7_RS5_
FN:462,_ZNSt6vectorINSt7__cxx1112basic_stringIcSt11char_traitsIcESaIcEEESaIS5_EE11_S_relocateEPS5_S8_S8_RS6_
FNDA:0,_ZNSt6vectorINSt7__cxx1112basic_stringIcSt11char_traitsIcESaIcEEESaIS5_EE11_S_relocateEPS5_S8_S8_RS6_
FN:462,_ZNSt6vectorIN7doctest12_GLOBAL__N_113JUnitReporter17JUnitTestCaseData13JUnitTestCaseESaIS4_EE11_S_relocateEPS4_S7_S7_RS5_
FNDA:0,_ZNSt6vectorIN7doctest12_GLOBAL__N_113JUnitReporter17JUnitTestCaseData13JUnitTestCaseESaIS4_EE11_S_relocateEPS4_S7_S7_RS5_
FN:484,_ZNSt6vectorIPKN7doctest6detail20IExceptionTranslatorESaIS4_EEC2Ev
FNDA:0,_ZNSt6vectorIPKN7doctest6detail20IExceptionTranslatorESaIS4_EEC2Ev
FN:484,_ZNSt6vectorIPKN7doctest12TestCaseDataESaIS3_EEC2Ev
FNDA:1,_ZNSt6vectorIPKN7doctest12TestCaseDataESaIS3_EEC2Ev
FN:484,_ZNSt6vectorIPKN7doctest6detail8TestCaseESaIS4_EEC2Ev
FNDA:1,_ZNSt6vectorIPKN7doctest6detail8TestCaseESaIS4_EEC2Ev
FN:484,_ZNSt6vectorIPN7doctest13IContextScopeESaIS2_EEC2Ev
FNDA:0,_ZNSt6vectorIPN7doctest13IContextScopeESaIS2_EEC2Ev
FN:484,_ZNSt6vectorIPN7doctest9IReporterESaIS2_EEC2Ev
FNDA:1,_ZNSt6vectorIPN7doctest9IReporterESaIS2_EEC2Ev
FN:484,_ZNSt6vectorIN7doctest16SubcaseSignatureESaIS1_EEC2Ev
FNDA:2,_ZNSt6vectorIN7doctest16SubcaseSignatureESaIS1_EEC2Ev
FN:484,_ZNSt6vectorIN7doctest12_GLOBAL__N_113JUnitReporter17JUnitTestCaseData13JUnitTestCaseESaIS4_EEC2Ev
FNDA:0,_ZNSt6vectorIN7doctest12_GLOBAL__N_113JUnitReporter17JUnitTestCaseData13JUnitTestCaseESaIS4_EEC2Ev
FN:484,_ZNSt6vectorINSt7__cxx1112basic_stringIcSt11char_traitsIcESaIcEEESaIS5_EEC2Ev
FNDA:0,_ZNSt6vectorINSt7__cxx1112basic_stringIcSt11char_traitsIcESaIcEEESaIS5_EEC2Ev
FN:484,_ZNSt6vectorIN7doctest6StringESaIS1_EEC2Ev
FNDA:10,_ZNSt6vectorIN7doctest6StringESaIS1_EEC2Ev
FN:484,_ZNSt6vectorIN7doctest12_GLOBAL__N_113JUnitReporter17JUnitTestCaseData16JUnitTestMessageESaIS4_EEC2Ev
FNDA:0,_ZNSt6vectorIN7doctest12_GLOBAL__N_113JUnitReporter17JUnitTestCaseData16JUnitTestMessageESaIS4_EEC2Ev
FN:507,_ZNSt6vectorIS_IN7doctest6StringESaIS1_EESaIS3_EEC2EmRKS4_
FNDA:1,_ZNSt6vectorIS_IN7doctest6StringESaIS1_EESaIS3_EEC2EmRKS4_
FN:550,_ZNSt6vectorIN7doctest6StringESaIS1_EEC2ERKS3_
FNDA:0,_ZNSt6vectorIN7doctest6StringESaIS1_EEC2ERKS3_
FN:550,_ZNSt6vectorIN7doctest16SubcaseSignatureESaIS1_EEC2ERKS3_
FNDA:0,_ZNSt6vectorIN7doctest16SubcaseSignatureESaIS1_EEC2ERKS3_
FN:569,_ZNSt6vectorIN7doctest12_GLOBAL__N_113JUnitReporter17JUnitTestCaseData16JUnitTestMessageESaIS4_EEC2EOS6_
FNDA:0,_ZNSt6vectorIN7doctest12_GLOBAL__N_113JUnitReporter17JUnitTestCaseData16JUnitTestMessageESaIS4_EEC2EOS6_
FN:675,_ZNSt6vectorIPKN7doctest12TestCaseDataESaIS3_EED2Ev
FNDA:1,_ZNSt6vectorIPKN7doctest12TestCaseDataESaIS3_EED2Ev
FN:675,_ZNSt6vectorIS_IN7doctest6StringESaIS1_EESaIS3_EED2Ev
FNDA:1,_ZNSt6vectorIS_IN7doctest6StringESaIS1_EESaIS3_EED2Ev
FN:675,_ZNSt6vectorINSt7__cxx1112basic_stringIcSt11char_traitsIcESaIcEEESaIS5_EED2Ev
FNDA:0,_ZNSt6vectorINSt7__cxx1112basic_stringIcSt11char_traitsIcESaIcEEESaIS5_EED2Ev
FN:675,_ZNSt6vectorIPN7doctest9IReporterESaIS2_EED2Ev
FNDA:1,_ZNSt6vectorIPN7doctest9IReporterESaIS2_EED2Ev
FN:675,_ZNSt6vectorIN7doctest12_GLOBAL__N_113JUnitReporter17JUnitTestCaseData16JUnitTestMessageESaIS4_EED2Ev
FNDA:0,_ZNSt6vectorIN7doctest12_GLOBAL__N_113JUnitReporter17JUnitTestCaseData16JUnitTestMessageESaIS4_EED2Ev
FN:675,_ZNSt6vectorIN7doctest12_GLOBAL__N_113JUnitReporter17JUnitTestCaseData13JUnitTestCaseESaIS4_EED2Ev
FNDA:0,_ZNSt6vectorIN7doctest12_GLOBAL__N_113JUnitReporter17JUnitTestCaseData13JUnitTestCaseESaIS4_EED2Ev
FN:675,_ZNSt6vectorIN7doctest6StringESaIS1_EED2Ev
FNDA:10,_ZNSt6vectorIN7doctest6StringESaIS1_EED2Ev
FN:675,_ZNSt6vectorIN7doctest16SubcaseSignatureESaIS1_EED2Ev
FNDA:2,_ZNSt6vectorIN7doctest16SubcaseSignatureESaIS1_EED2Ev
FN:675,_ZNSt6vectorIPKN7doctest6detail8TestCaseESaIS4_EED2Ev
FNDA:1,_ZNSt6vectorIPKN7doctest6detail8TestCaseESaIS4_EED2Ev
FN:675,_ZNSt6vectorIPKN7doctest6detail20IExceptionTranslatorESaIS4_EED2Ev
FNDA:0,_ZNSt6vectorIPKN7doctest6detail20IExceptionTranslatorESaIS4_EED2Ev
FN:675,_ZNSt6vectorIPN7doctest13IContextScopeESaIS2_EED2Ev
FNDA:0,_ZNSt6vectorIPN7doctest13IContextScopeESaIS2_EED2Ev
FN:808,_ZNSt6vectorIPKN7doctest6detail8TestCaseESaIS4_EE5beginEv
FNDA:3,_ZNSt6vectorIPKN7doctest6detail8TestCaseESaIS4_EE5beginEv
FN:808,_ZNSt6vectorIN7doctest12_GLOBAL__N_113JUnitReporter17JUnitTestCaseData13JUnitTestCaseESaIS4_EE5beginEv
FNDA:0,_ZNSt6vectorIN7doctest12_GLOBAL__N_113JUnitReporter17JUnitTestCaseData13JUnitTestCaseESaIS4_EE5beginEv
FN:808,_ZNSt6vectorINSt7__cxx1112basic_stringIcSt11char_traitsIcESaIcEEESaIS5_EE5beginEv
FNDA:0,_ZNSt6vectorINSt7__cxx1112basic_stringIcSt11char_traitsIcESaIcEEESaIS5_EE5beginEv
FN:808,_ZNSt6vectorIN7doctest6StringESaIS1_EE5beginEv
FNDA:1,_ZNSt6vectorIN7doctest6StringESaIS1_EE5beginEv
FN:808,_ZNSt6vectorIS_IN7doctest6StringESaIS1_EESaIS3_EE5beginEv
FNDA:0,_ZNSt6vectorIS_IN7doctest6StringESaIS1_EESaIS3_EE5beginEv
FN:808,_ZNSt6vectorIPN7doctest13IContextScopeESaIS2_EE5beginEv
FNDA:0,_ZNSt6vectorIPN7doctest13IContextScopeESaIS2_EE5beginEv
FN:808,_ZNSt6vectorIN7doctest12_GLOBAL__N_113JUnitReporter17JUnitTestCaseData16JUnitTestMessageESaIS4_EE5beginEv
FNDA:0,_ZNSt6vectorIN7doctest12_GLOBAL__N_113JUnitReporter17JUnitTestCaseData16JUnitTestMessageESaIS4_EE5beginEv
FN:808,_ZNSt6vectorIN7doctest16SubcaseSignatureESaIS1_EE5beginEv
FNDA:0,_ZNSt6vectorIN7doctest16SubcaseSignatureESaIS1_EE5beginEv
FN:808,_ZNSt6vectorIPN7doctest9IReporterESaIS2_EE5beginEv
FNDA:7,_ZNSt6vectorIPN7doctest9IReporterESaIS2_EE5beginEv
FN:808,_ZNSt6vectorIPKN7doctest12TestCaseDataESaIS3_EE5beginEv
FNDA:0,_ZNSt6vectorIPKN7doctest12TestCaseDataESaIS3_EE5beginEv
FN:808,_ZNSt6vectorIPKN7doctest6detail20IExceptionTranslatorESaIS4_EE5beginEv
FNDA:0,_ZNSt6vectorIPKN7doctest6detail20IExceptionTranslatorESaIS4_EE5beginEv
FN:817,_ZNKSt6vectorIN7doctest12_GLOBAL__N_113JUnitReporter17JUnitTestCaseData16JUnitTestMessageESaIS4_EE5beginEv
FNDA:0,_ZNKSt6vectorIN7doctest12_GLOBAL__N_113JUnitReporter17JUnitTestCaseData16JUnitTestMessageESaIS4_EE5beginEv
FN:817,_ZNKSt6vectorIN7doctest6StringESaIS1_EE5beginEv
FNDA:16,_ZNKSt6vectorIN7doctest6StringESaIS1_EE5beginEv
FN:817,_ZNKSt6vectorIN7doctest16SubcaseSignatureESaIS1_EE5beginEv
FNDA:0,_ZNKSt6vectorIN7doctest16SubcaseSignatureESaIS1_EE5beginEv
FN:817,_ZNKSt6vectorINSt7__cxx1112basic_stringIcSt11char_traitsIcESaIcEEESaIS5_EE5beginEv
FNDA:0,_ZNKSt6vectorINSt7__cxx1112basic_stringIcSt11char_traitsIcESaIcEEESaIS5_EE5beginEv
FN:817,_ZNKSt6vectorIPKN7doctest6detail8TestCaseESaIS4_EE5beginEv
FNDA:1,_ZNKSt6vectorIPKN7doctest6detail8TestCaseESaIS4_EE5beginEv
FN:826,_ZNSt6vectorIPN7doctest13IContextScopeESaIS2_EE3endEv
FNDA:0,_ZNSt6vectorIPN7doctest13IContextScopeESaIS2_EE3endEv
FN:826,_ZNSt6vectorIPKN7doctest12TestCaseDataESaIS3_EE3endEv
FNDA:0,_ZNSt6vectorIPKN7doctest12TestCaseDataESaIS3_EE3endEv
FN:826,_ZNSt6vectorIN7doctest12_GLOBAL__N_113JUnitReporter17JUnitTestCaseData16JUnitTestMessageESaIS4_EE3endEv
FNDA:0,_ZNSt6vectorIN7doctest12_GLOBAL__N_113JUnitReporter17JUnitTestCaseData16JUnitTestMessageESaIS4_EE3endEv
FN:826,_ZNSt6vectorIPKN7doctest6detail8TestCaseESaIS4_EE3endEv
FNDA:4,_ZNSt6vectorIPKN7doctest6detail8TestCaseESaIS4_EE3endEv
FN:826,_ZNSt6vectorIN7doctest6StringESaIS1_EE3endEv
FNDA:2,_ZNSt6vectorIN7doctest6StringESaIS1_EE3endEv
FN:826,_ZNSt6vectorIPKN7doctest6detail20IExceptionTranslatorESaIS4_EE3endEv
FNDA:0,_ZNSt6vectorIPKN7doctest6detail20IExceptionTranslatorESaIS4_EE3endEv
FN:826,_ZNSt6vectorINSt7__cxx1112basic_stringIcSt11char_traitsIcESaIcEEESaIS5_EE3endEv
FNDA:0,_ZNSt6vectorINSt7__cxx1112basic_stringIcSt11char_traitsIcESaIcEEESaIS5_EE3endEv
FN:826,_ZNSt6vectorIS_IN7doctest6StringESaIS1_EESaIS3_EE3endEv
FNDA:0,_ZNSt6vectorIS_IN7doctest6StringESaIS1_EESaIS3_EE3endEv
FN:826,_ZNSt6vectorIPN7doctest9IReporterESaIS2_EE3endEv
FNDA:8,_ZNSt6vectorIPN7doctest9IReporterESaIS2_EE3endEv
FN:826,_ZNSt6vectorIN7doctest12_GLOBAL__N_113JUnitReporter17JUnitTestCaseData13JUnitTestCaseESaIS4_EE3endEv
FNDA:0,_ZNSt6vectorIN7doctest12_GLOBAL__N_113JUnitReporter17JUnitTestCaseData13JUnitTestCaseESaIS4_EE3endEv
FN:826,_ZNSt6vectorIN7doctest16SubcaseSignatureESaIS1_EE3endEv
FNDA:0,_ZNSt6vectorIN7doctest16SubcaseSignatureESaIS1_EE3endEv
FN:835,_ZNKSt6vectorIPKN7doctest6detail8TestCaseESaIS4_EE3endEv
FNDA:1,_ZNKSt6vectorIPKN7doctest6detail8TestCaseESaIS4_EE3endEv
FN:835,_ZNKSt6vectorINSt7__cxx1112basic_stringIcSt11char_traitsIcESaIcEEESaIS5_EE3endEv
FNDA:0,_ZNKSt6vectorINSt7__cxx1112basic_stringIcSt11char_traitsIcESaIcEEESaIS5_EE3endEv
FN:835,_ZNKSt6vectorIN7doctest12_GLOBAL__N_113JUnitReporter17JUnitTestCaseData16JUnitTestMessageESaIS4_EE3endEv
FNDA:0,_ZNKSt6vectorIN7doctest12_GLOBAL__N_113JUnitReporter17JUnitTestCaseData16JUnitTestMessageESaIS4_EE3endEv
FN:835,_ZNKSt6vectorIN7doctest16SubcaseSignatureESaIS1_EE3endEv
FNDA:0,_ZNKSt6vectorIN7doctest16SubcaseSignatureESaIS1_EE3endEv
FN:835,_ZNKSt6vectorIN7doctest6StringESaIS1_EE3endEv
FNDA:16,_ZNKSt6vectorIN7doctest6StringESaIS1_EE3endEv
FN:881,_ZNKSt6vectorIPN7doctest9IReporterESaIS2_EE6cbeginEv
FNDA:0,_ZNKSt6vectorIPN7doctest9IReporterESaIS2_EE6cbeginEv
FN:890,_ZNKSt6vectorIPN7doctest9IReporterESaIS2_EE4cendEv
FNDA:0,_ZNKSt6vectorIPN7doctest9IReporterESaIS2_EE4cendEv
FN:915,_ZNKSt6vectorIPN7doctest9IReporterESaIS2_EE4sizeEv
FNDA:4,_ZNKSt6vectorIPN7doctest9IReporterESaIS2_EE4sizeEv
FN:915,_ZNKSt6vectorIPKN7doctest6detail20IExceptionTranslatorESaIS4_EE4sizeEv
FNDA:0,_ZNKSt6vectorIPKN7doctest6detail20IExceptionTranslatorESaIS4_EE4sizeEv
FN:915,_ZNKSt6vectorIPKN7doctest6detail8TestCaseESaIS4_EE4sizeEv
FNDA:5,_ZNKSt6vectorIPKN7doctest6detail8TestCaseESaIS4_EE4sizeEv
FN:915,_ZNKSt6vectorIPKN7doctest12TestCaseDataESaIS3_EE4sizeEv
FNDA:0,_ZNKSt6vectorIPKN7doctest12TestCaseDataESaIS3_EE4sizeEv
FN:915,_ZNKSt6vectorIPN7doctest13IContextScopeESaIS2_EE4sizeEv
FNDA:0,_ZNKSt6vectorIPN7doctest13IContextScopeESaIS2_EE4sizeEv
FN:915,_ZNKSt6vectorIN7doctest6StringESaIS1_EE4sizeEv
FNDA:4,_ZNKSt6vectorIN7doctest6StringESaIS1_EE4sizeEv
FN:915,_ZNKSt6vectorIN7doctest12_GLOBAL__N_113JUnitReporter17JUnitTestCaseData13JUnitTestCaseESaIS4_EE4sizeEv
FNDA:0,_ZNKSt6vectorIN7doctest12_GLOBAL__N_113JUnitReporter17JUnitTestCaseData13JUnitTestCaseESaIS4_EE4sizeEv
FN:915,_ZNKSt6vectorIN7doctest12_GLOBAL__N_113JUnitReporter17JUnitTestCaseData16JUnitTestMessageESaIS4_EE4sizeEv
FNDA:0,_ZNKSt6vectorIN7doctest12_GLOBAL__N_113JUnitReporter17JUnitTestCaseData16JUnitTestMessageESaIS4_EE4sizeEv
FN:915,_ZNKSt6vectorIN7doctest16SubcaseSignatureESaIS1_EE4sizeEv
FNDA:0,_ZNKSt6vectorIN7doctest16SubcaseSignatureESaIS1_EE4sizeEv
FN:915,_ZNKSt6vectorINSt7__cxx1112basic_stringIcSt11char_traitsIcESaIcEEESaIS5_EE4sizeEv
FNDA:0,_ZNKSt6vectorINSt7__cxx1112basic_stringIcSt11char_traitsIcESaIcEEESaIS5_EE4sizeEv
FN:920,_ZNKSt6vectorIPKN7doctest6detail8TestCaseESaIS4_EE8max_sizeEv
FNDA:2,_ZNKSt6vectorIPKN7doctest6detail8TestCaseESaIS4_EE8max_sizeEv
FN:920,_ZNKSt6vectorIPKN7doctest12TestCaseDataESaIS3_EE8max_sizeEv
FNDA:0,_ZNKSt6vectorIPKN7doctest12TestCaseDataESaIS3_EE8max_sizeEv
FN:920,_ZNKSt6vectorINSt7__cxx1112basic_stringIcSt11char_traitsIcESaIcEEESaIS5_EE8max_sizeEv
FNDA:0,_ZNKSt6vectorINSt7__cxx1112basic_stringIcSt11char_traitsIcESaIcEEESaIS5_EE8max_sizeEv
FN:920,_ZNKSt6vectorIPN7doctest9IReporterESaIS2_EE8max_sizeEv
FNDA:2,_ZNKSt6vectorIPN7doctest9IReporterESaIS2_EE8max_sizeEv
FN:920,_ZNKSt6vectorIN7doctest16SubcaseSignatureESaIS1_EE8max_sizeEv
FNDA:0,_ZNKSt6vectorIN7doctest16SubcaseSignatureESaIS1_EE8max_sizeEv
FN:920,_ZNKSt6vectorIPN7doctest13IContextScopeESaIS2_EE8max_sizeEv
FNDA:0,_ZNKSt6vectorIPN7doctest13IContextScopeESaIS2_EE8max_sizeEv
FN:920,_ZNKSt6vectorIN7doctest6StringESaIS1_EE8max_sizeEv
FNDA:2,_ZNKSt6vectorIN7doctest6StringESaIS1_EE8max_sizeEv
FN:920,_ZNKSt6vectorIN7doctest12_GLOBAL__N_113JUnitReporter17JUnitTestCaseData16JUnitTestMessageESaIS4_EE8max_sizeEv
FNDA:0,_ZNKSt6vectorIN7doctest12_GLOBAL__N_113JUnitReporter17JUnitTestCaseData16JUnitTestMessageESaIS4_EE8max_sizeEv
FN:920,_ZNKSt6vectorIN7doctest12_GLOBAL__N_113JUnitReporter17JUnitTestCaseData13JUnitTestCaseESaIS4_EE8max_sizeEv
FNDA:0,_ZNKSt6vectorIN7doctest12_GLOBAL__N_113JUnitReporter17JUnitTestCaseData13JUnitTestCaseESaIS4_EE8max_sizeEv
FN:920,_ZNKSt6vectorIPKN7doctest6detail20IExceptionTranslatorESaIS4_EE8max_sizeEv
FNDA:0,_ZNKSt6vectorIPKN7doctest6detail20IExceptionTranslatorESaIS4_EE8max_sizeEv
FN:1004,_ZNKSt6vectorIN7doctest6StringESaIS1_EE5emptyEv
FNDA:10,_ZNKSt6vectorIN7doctest6StringESaIS1_EE5emptyEv
FN:1004,_ZNKSt6vectorINSt7__cxx1112basic_stringIcSt11char_traitsIcESaIcEEESaIS5_EE5emptyEv
FNDA:0,_ZNKSt6vectorINSt7__cxx1112basic_stringIcSt11char_traitsIcESaIcEEESaIS5_EE5emptyEv
FN:1004,_ZNKSt6vectorIPKN7doctest6detail8TestCaseESaIS4_EE5emptyEv
FNDA:1,_ZNKSt6vectorIPKN7doctest6detail8TestCaseESaIS4_EE5emptyEv
FN:1040,_ZNSt6vectorIN7doctest6StringESaIS1_EEixEm
FNDA:0,_ZNSt6vectorIN7doctest6StringESaIS1_EEixEm
FN:1040,_ZNSt6vectorIPN7doctest13IContextScopeESaIS2_EEixEm
FNDA:0,_ZNSt6vectorIPN7doctest13IContextScopeESaIS2_EEixEm
FN:1040,_ZNSt6vectorIPKN7doctest6detail8TestCaseESaIS4_EEixEm
FNDA:0,_ZNSt6vectorIPKN7doctest6detail8TestCaseESaIS4_EEixEm
FN:1040,_ZNSt6vectorIS_IN7doctest6StringESaIS1_EESaIS3_EEixEm
FNDA:29,_ZNSt6vectorIS_IN7doctest6StringESaIS1_EESaIS3_EEixEm
FN:1040,_ZNSt6vectorIN7doctest16SubcaseSignatureESaIS1_EEixEm
FNDA:0,_ZNSt6vectorIN7doctest16SubcaseSignatureESaIS1_EEixEm
FN:1140,_ZNSt6vectorINSt7__cxx1112basic_stringIcSt11char_traitsIcESaIcEEESaIS5_EE4backEv
FNDA:0,_ZNSt6vectorINSt7__cxx1112basic_stringIcSt11char_traitsIcESaIcEEESaIS5_EE4backEv
FN:1140,_ZNSt6vectorIPKN7doctest6detail8TestCaseESaIS4_EE4backEv
FNDA:1,_ZNSt6vectorIPKN7doctest6detail8TestCaseESaIS4_EE4backEv
FN:1140,_ZNSt6vectorIPKN7doctest12TestCaseDataESaIS3_EE4backEv
FNDA:0,_ZNSt6vectorIPKN7doctest12TestCaseDataESaIS3_EE4backEv
FN:1140,_ZNSt6vectorIN7doctest12_GLOBAL__N_113JUnitReporter17JUnitTestCaseData13JUnitTestCaseESaIS4_EE4backEv
FNDA:0,_ZNSt6vectorIN7doctest12_GLOBAL__N_113JUnitReporter17JUnitTestCaseData13JUnitTestCaseESaIS4_EE4backEv
FN:1140,_ZNSt6vectorIPN7doctest9IReporterESaIS2_EE4backEv
FNDA:1,_ZNSt6vectorIPN7doctest9IReporterESaIS2_EE4backEv
FN:1140,_ZNSt6vectorIN7doctest12_GLOBAL__N_113JUnitReporter17JUnitTestCaseData16JUnitTestMessageESaIS4_EE4backEv
FNDA:0,_ZNSt6vectorIN7doctest12_GLOBAL__N_113JUnitReporter17JUnitTestCaseData16JUnitTestMessageESaIS4_EE4backEv
FN:1140,_ZNSt6vectorIPN7doctest13IContextScopeESaIS2_EE4backEv
FNDA:0,_ZNSt6vectorIPN7doctest13IContextScopeESaIS2_EE4backEv
FN:1140,_ZNSt6vectorIN7doctest6StringESaIS1_EE4backEv
FNDA:1,_ZNSt6vectorIN7doctest6StringESaIS1_EE4backEv
FN:1165,_ZNSt6vectorIPKN7doctest12TestCaseDataESaIS3_EE4dataEv
FNDA:0,_ZNSt6vectorIPKN7doctest12TestCaseDataESaIS3_EE4dataEv
FN:1184,_ZNSt6vectorIPKN7doctest6detail20IExceptionTranslatorESaIS4_EE9push_backERKS4_
FNDA:0,_ZNSt6vectorIPKN7doctest6detail20IExceptionTranslatorESaIS4_EE9push_backERKS4_
FN:1184,_ZNSt6vectorIN7doctest16SubcaseSignatureESaIS1_EE9push_backERKS1_
FNDA:0,_ZNSt6vectorIN7doctest16SubcaseSignatureESaIS1_EE9push_backERKS1_
FN:1184,_ZNSt6vectorINSt7__cxx1112basic_stringIcSt11char_traitsIcESaIcEEESaIS5_EE9push_backERKS5_
FNDA:0,_ZNSt6vectorINSt7__cxx1112basic_stringIcSt11char_traitsIcESaIcEEESaIS5_EE9push_backERKS5_
FN:1184,_ZNSt6vectorIN7doctest6StringESaIS1_EE9push_backERKS1_
FNDA:0,_ZNSt6vectorIN7doctest6StringESaIS1_EE9push_backERKS1_
FN:1200,_ZNSt6vectorIN7doctest6StringESaIS1_EE9push_backEOS1_
FNDA:1,_ZNSt6vectorIN7doctest6StringESaIS1_EE9push_backEOS1_
FN:1200,_ZNSt6vectorIPN7doctest13IContextScopeESaIS2_EE9push_backEOS2_
FNDA:0,_ZNSt6vectorIPN7doctest13IContextScopeESaIS2_EE9push_backEOS2_
FN:1200,_ZNSt6vectorIPKN7doctest12TestCaseDataESaIS3_EE9push_backEOS3_
FNDA:0,_ZNSt6vectorIPKN7doctest12TestCaseDataESaIS3_EE9push_backEOS3_
FN:1200,_ZNSt6vectorIPKN7doctest6detail8TestCaseESaIS4_EE9push_backEOS4_
FNDA:1,_ZNSt6vectorIPKN7doctest6detail8TestCaseESaIS4_EE9push_backEOS4_
FN:1200,_ZNSt6vectorIPN7doctest9IReporterESaIS2_EE9push_backEOS2_
FNDA:1,_ZNSt6vectorIPN7doctest9IReporterESaIS2_EE9push_backEOS2_
FN:1222,_ZNSt6vectorIPN7doctest13IContextScopeESaIS2_EE8pop_backEv
FNDA:0,_ZNSt6vectorIPN7doctest13IContextScopeESaIS2_EE8pop_backEv
FN:1222,_ZNSt6vectorINSt7__cxx1112basic_stringIcSt11char_traitsIcESaIcEEESaIS5_EE8pop_backEv
FNDA:0,_ZNSt6vectorINSt7__cxx1112basic_stringIcSt11char_traitsIcESaIcEEESaIS5_EE8pop_backEv
FN:1222,_ZNSt6vectorIN7doctest16SubcaseSignatureESaIS1_EE8pop_backEv
FNDA:0,_ZNSt6vectorIN7doctest16SubcaseSignatureESaIS1_EE8pop_backEv
FN:1290,_ZNSt6vectorIPN7doctest9IReporterESaIS2_EE6insertEN9__gnu_cxx17__normal_iteratorIPKS2_S4_EEOS2_
FNDA:0,_ZNSt6vectorIPN7doctest9IReporterESaIS2_EE6insertEN9__gnu_cxx17__normal_iteratorIPKS2_S4_EEOS2_
FN:1495,_ZNSt6vectorIPN7doctest9IReporterESaIS2_EE5clearEv
FNDA:1,_ZNSt6vectorIPN7doctest9IReporterESaIS2_EE5clearEv
FN:1495,_ZNSt6vectorIN7doctest16SubcaseSignatureESaIS1_EE5clearEv
FNDA:2,_ZNSt6vectorIN7doctest16SubcaseSignatureESaIS1_EE5clearEv
FN:1495,_ZNSt6vectorIN7doctest6StringESaIS1_EE5clearEv
FNDA:1,_ZNSt6vectorIN7doctest6StringESaIS1_EE5clearEv
FN:1600,_ZNSt6vectorIS_IN7doctest6StringESaIS1_EESaIS3_EE21_M_default_initializeEm
FNDA:1,_ZNSt6vectorIS_IN7doctest6StringESaIS1_EESaIS3_EE21_M_default_initializeEm
FN:1753,_ZNKSt6vectorINSt7__cxx1112basic_stringIcSt11char_traitsIcESaIcEEESaIS5_EE12_M_check_lenEmPKc
FNDA:0,_ZNKSt6vectorINSt7__cxx1112basic_stringIcSt11char_traitsIcESaIcEEESaIS5_EE12_M_check_lenEmPKc
FN:1753,_ZNKSt6vectorIN7doctest12_GLOBAL__N_113JUnitReporter17JUnitTestCaseData13JUnitTestCaseESaIS4_EE12_M_check_lenEmPKc
FNDA:0,_ZNKSt6vectorIN7doctest12_GLOBAL__N_113JUnitReporter17JUnitTestCaseData13JUnitTestCaseESaIS4_EE12_M_check_lenEmPKc
FN:1753,_ZNKSt6vectorIN7doctest12_GLOBAL__N_113JUnitReporter17JUnitTestCaseData16JUnitTestMessageESaIS4_EE12_M_check_lenEmPKc
FNDA:0,_ZNKSt6vectorIN7doctest12_GLOBAL__N_113JUnitReporter17JUnitTestCaseData16JUnitTestMessageESaIS4_EE12_M_check_lenEmPKc
FN:1753,_ZNKSt6vectorIN7doctest6StringESaIS1_EE12_M_check_lenEmPKc
FNDA:1,_ZNKSt6vectorIN7doctest6StringESaIS1_EE12_M_check_lenEmPKc
FN:1753,_ZNKSt6vectorIPN7doctest13IContextScopeESaIS2_EE12_M_check_lenEmPKc
FNDA:0,_ZNKSt6vectorIPN7doctest13IContextScopeESaIS2_EE12_M_check_lenEmPKc
FN:1753,_ZNKSt6vectorIPKN7doctest6detail20IExceptionTranslatorESaIS4_EE12_M_check_lenEmPKc
FNDA:0,_ZNKSt6vectorIPKN7doctest6detail20IExceptionTranslatorESaIS4_EE12_M_check_lenEmPKc
FN:1753,_ZNKSt6vectorIN7doctest16SubcaseSignatureESaIS1_EE12_M_check_lenEmPKc
FNDA:0,_ZNKSt6vectorIN7doctest16SubcaseSignatureESaIS1_EE12_M_check_lenEmPKc
FN:1753,_ZNKSt6vectorIPN7doctest9IReporterESaIS2_EE12_M_check_lenEmPKc
FNDA:1,_ZNKSt6vectorIPN7doctest9IReporterESaIS2_EE12_M_check_lenEmPKc
FN:1753,_ZNKSt6vectorIPKN7doctest6detail8TestCaseESaIS4_EE12_M_check_lenEmPKc
FNDA:1,_ZNKSt6vectorIPKN7doctest6detail8TestCaseESaIS4_EE12_M_check_lenEmPKc
FN:1753,_ZNKSt6vectorIPKN7doctest12TestCaseDataESaIS3_EE12_M_check_lenEmPKc
FNDA:0,_ZNKSt6vectorIPKN7doctest12TestCaseDataESaIS3_EE12_M_check_lenEmPKc
FN:1764,_ZNSt6vectorIS_IN7doctest6StringESaIS1_EESaIS3_EE17_S_check_init_lenEmRKS4_
FNDA:1,_ZNSt6vectorIS_IN7doctest6StringESaIS1_EESaIS3_EE17_S_check_init_lenEmRKS4_
FN:1773,_ZNSt6vectorIPN7doctest13IContextScopeESaIS2_EE11_S_max_sizeERKS3_
FNDA:0,_ZNSt6vectorIPN7doctest13IContextScopeESaIS2_EE11_S_max_sizeERKS3_
FN:1773,_ZNSt6vectorIN7doctest6StringESaIS1_EE11_S_max_sizeERKS2_
FNDA:2,_ZNSt6vectorIN7doctest6StringESaIS1_EE11_S_max_sizeERKS2_
FN:1773,_ZNSt6vectorIN7doctest12_GLOBAL__N_113JUnitReporter17JUnitTestCaseData16JUnitTestMessageESaIS4_EE11_S_max_sizeERKS5_
FNDA:0,_ZNSt6vectorIN7doctest12_GLOBAL__N_113JUnitReporter17JUnitTestCaseData16JUnitTestMessageESaIS4_EE11_S_max_sizeERKS5_
FN:1773,_ZNSt6vectorIN7doctest12_GLOBAL__N_113JUnitReporter17JUnitTestCaseData13JUnitTestCaseESaIS4_EE11_S_max_sizeERKS5_
FNDA:0,_ZNSt6vectorIN7doctest12_GLOBAL__N_113JUnitReporter17JUnitTestCaseData13JUnitTestCaseESaIS4_EE11_S_max_sizeERKS5_
FN:1773,_ZNSt6vectorINSt7__cxx1112basic_stringIcSt11char_traitsIcESaIcEEESaIS5_EE11_S_max_sizeERKS6_
FNDA:0,_ZNSt6vectorINSt7__cxx1112basic_stringIcSt11char_traitsIcESaIcEEESaIS5_EE11_S_max_sizeERKS6_
FN:1773,_ZNSt6vectorIPKN7doctest6detail20IExceptionTranslatorESaIS4_EE11_S_max_sizeERKS5_
FNDA:0,_ZNSt6vectorIPKN7doctest6detail20IExceptionTranslatorESaIS4_EE11_S_max_sizeERKS5_
FN:1773,_ZNSt6vectorIN7doctest16SubcaseSignatureESaIS1_EE11_S_max_sizeERKS2_
FNDA:0,_ZNSt6vectorIN7doctest16SubcaseSignatureESaIS1_EE11_S_max_sizeERKS2_
FN:1773,_ZNSt6vectorIPKN7doctest12TestCaseDataESaIS3_EE11_S_max_sizeERKS4_
FNDA:0,_ZNSt6vectorIPKN7doctest12TestCaseDataESaIS3_EE11_S_max_sizeERKS4_
FN:1773,_ZNSt6vectorIPKN7doctest6detail8TestCaseESaIS4_EE11_S_max_sizeERKS5_
FNDA:2,_ZNSt6vectorIPKN7doctest6detail8TestCaseESaIS4_EE11_S_max_sizeERKS5_
FN:1773,_ZNSt6vectorIPN7doctest9IReporterESaIS2_EE11_S_max_sizeERKS3_
FNDA:2,_ZNSt6vectorIPN7doctest9IReporterESaIS2_EE11_S_max_sizeERKS3_
FN:1773,_ZNSt6vectorIS_IN7doctest6StringESaIS1_EESaIS3_EE11_S_max_sizeERKS4_
FNDA:1,_ZNSt6vectorIS_IN7doctest6StringESaIS1_EESaIS3_EE11_S_max_sizeERKS4_
FN:1789,_ZNSt6vectorIN7doctest6StringESaIS1_EE15_M_erase_at_endEPS1_
FNDA:1,_ZNSt6vectorIN7doctest6StringESaIS1_EE15_M_erase_at_endEPS1_
FN:1789,_ZNSt6vectorIN7doctest16SubcaseSignatureESaIS1_EE15_M_erase_at_endEPS1_
FNDA:2,_ZNSt6vectorIN7doctest16SubcaseSignatureESaIS1_EE15_M_erase_at_endEPS1_
FN:1789,_ZNSt6vectorIPN7doctest9IReporterESaIS2_EE15_M_erase_at_endEPS2_
FNDA:1,_ZNSt6vectorIPN7doctest9IReporterESaIS2_EE15_M_erase_at_endEPS2_
FN:1840,_ZNKSt6vectorIPKN7doctest12TestCaseDataESaIS3_EE11_M_data_ptrIS3_EEPT_S8_
FNDA:0,_ZNKSt6vectorIPKN7doctest12TestCaseDataESaIS3_EE11_M_data_ptrIS3_EEPT_S8_
FN:1905,_ZStltIN7doctest16SubcaseSignatureESaIS1_EEbRKSt6vectorIT_T0_ES8_
FNDA:0,_ZStltIN7doctest16SubcaseSignatureESaIS1_EEbRKSt6vectorIT_T0_ES8_
DA:94,1
DA:95,1
DA:96,1
DA:94,1
DA:95,1
DA:96,1
DA:94,1
DA:95,1
DA:96,1
DA:94,1
DA:95,1
DA:96,1
DA:94,2
DA:95,2
DA:96,2
DA:94,0
DA:95,0
DA:96,0
DA:94,10
DA:95,10
DA:96,10
DA:94,0
DA:95,0
DA:96,0
DA:94,0
DA:95,0
DA:96,0
DA:94,0
DA:95,0
DA:96,0
DA:94,0
DA:95,0
DA:96,0
DA:99,0
DA:100,0
DA:101,0
DA:102,0
DA:128,1
DA:130,1
DA:131,1
DA:128,1
DA:130,1
DA:131,1
DA:128,1
DA:130,1
DA:131,1
DA:128,2
DA:130,2
DA:131,2
DA:128,0
DA:130,0
DA:131,0
DA:128,10
DA:130,10
DA:131,10
DA:128,0
DA:130,0
DA:131,0
DA:128,0
DA:130,0
DA:131,0
DA:128,0
DA:130,0
DA:131,0
DA:128,0
DA:130,0
DA:131,0
DA:133,0
DA:134,0
DA:135,0
DA:133,0
DA:134,0
DA:135,0
DA:133,1
DA:134,1
DA:135,1
DA:140,0
DA:141,0
DA:142,0
DA:273,0
DA:274,0
DA:273,1
DA:274,1
DA:273,3
DA:274,3
DA:273,4
DA:274,4
DA:273,2
DA:274,2
DA:273,0
DA:274,0
DA:273,13
DA:274,13
DA:273,0
DA:274,0
DA:273,0
DA:274,0
DA:273,0
DA:274,0
DA:273,2
DA:274,2
DA:277,0
DA:278,0
DA:277,2
DA:278,2
DA:277,2
DA:278,2
DA:277,0
DA:278,0
DA:277,0
DA:278,0
DA:277,0
DA:278,0
DA:277,0
DA:278,0
DA:277,0
DA:278,0
DA:277,0
DA:278,0
DA:277,2
DA:278,2
DA:285,1
DA:285,1
DA:285,1
DA:285,2
DA:285,0
DA:285,10
DA:285,0
DA:285,0
DA:285,0
DA:285,0
DA:300,0
DA:301,0
DA:302,0
DA:300,0
DA:301,0
DA:302,0
DA:300,1
DA:301,1
DA:302,1
DA:305,0
DA:330,1
DA:332,1
DA:333,1
DA:334,1
DA:330,1
DA:332,1
DA:333,1
DA:334,1
DA:330,1
DA:332,1
DA:333,1
DA:334,1
DA:330,1
DA:332,1
DA:333,1
DA:334,1
DA:330,2
DA:332,2
DA:333,2
DA:334,2
DA:330,0
DA:332,0
DA:333,0
DA:334,0
DA:330,10
DA:332,10
DA:333,10
DA:334,10
DA:330,0
DA:332,0
DA:333,0
DA:334,0
DA:330,0
DA:332,0
DA:333,0
DA:334,0
DA:330,0
DA:332,0
DA:333,0
DA:334,0
DA:330,0
DA:332,0
DA:333,0
DA:334,0
DA:340,0
DA:343,0
DA:340,1
DA:343,1
DA:340,1
DA:343,1
DA:340,0
DA:343,0
DA:340,1
DA:343,1
DA:340,1
DA:343,1
DA:340,0
DA:343,0
DA:340,0
DA:343,0
DA:340,0
DA:343,0
DA:340,0
DA:343,0
DA:340,0
DA:343,0
DA:347,1
DA:350,1
DA:351,1
DA:352,1
DA:347,1
DA:350,1
DA:351,0
DA:352,1
DA:347,2
DA:350,2
DA:351,1
DA:352,2
DA:347,2
DA:350,2
DA:351,1
DA:352,2
DA:347,2
DA:350,2
DA:351,0
DA:352,2
DA:347,0
DA:350,0
DA:351,0
DA:352,0
DA:347,11
DA:350,11
DA:351,1
DA:352,11
DA:347,0
DA:350,0
DA:351,0
DA:352,0
DA:347,0
DA:350,0
DA:351,0
DA:352,0
DA:347,0
DA:350,0
DA:351,0
DA:352,0
DA:347,0
DA:350,0
DA:351,0
DA:352,0
DA:356,0
DA:358,0
DA:359,0
DA:360,0
DA:361,0
DA:356,0
DA:358,0
DA:359,0
DA:360,0
DA:361,0
DA:356,1
DA:358,1
DA:359,1
DA:360,1
DA:361,1
DA:450,0
DA:453,0
DA:450,2
DA:453,2
DA:450,2
DA:453,2
DA:450,0
DA:453,0
DA:450,0
DA:453,0
DA:450,0
DA:453,0
DA:450,0
DA:453,0
DA:450,0
DA:453,0
DA:462,0
DA:466,0
DA:462,2
DA:466,2
DA:462,2
DA:466,2
DA:462,0
DA:466,0
DA:462,0
DA:466,0
DA:462,0
DA:466,0
DA:462,0
DA:466,0
DA:462,0
DA:466,0
DA:484,1
DA:484,1
DA:484,1
DA:484,2
DA:484,0
DA:484,10
DA:484,0
DA:484,0
DA:484,0
DA:484,0
DA:507,1
DA:508,1
DA:509,1
DA:550,0
DA:552,0
DA:554,0
DA:555,0
DA:557,0
DA:558,0
DA:550,0
DA:552,0
DA:554,0
DA:555,0
DA:557,0
DA:558,0
DA:569,0
DA:675,0
DA:677,0
DA:678,0
DA:680,0
DA:675,1
DA:677,1
DA:678,1
DA:680,1
DA:675,1
DA:677,1
DA:678,1
DA:680,1
DA:675,1
DA:677,1
DA:678,1
DA:680,1
DA:675,2
DA:677,2
DA:678,2
DA:680,2
DA:675,0
DA:677,0
DA:678,0
DA:680,0
DA:675,10
DA:677,10
DA:678,10
DA:680,10
DA:675,0
DA:677,0
DA:678,0
DA:680,0
DA:675,0
DA:677,0
DA:678,0
DA:680,0
DA:675,0
DA:677,0
DA:678,0
DA:680,0
DA:675,1
DA:677,1
DA:678,1
DA:680,1
DA:808,0
DA:809,0
DA:808,0
DA:809,0
DA:808,0
DA:809,0
DA:808,0
DA:809,0
DA:808,0
DA:809,0
DA:808,3
DA:809,3
DA:808,0
DA:809,0
DA:808,0
DA:809,0
DA:808,1
DA:809,1
DA:808,0
DA:809,0
DA:808,7
DA:809,7
DA:817,0
DA:818,0
DA:817,1
DA:818,1
DA:817,0
DA:818,0
DA:817,0
DA:818,0
DA:817,16
DA:818,16
DA:826,0
DA:827,0
DA:826,0
DA:827,0
DA:826,0
DA:827,0
DA:826,0
DA:827,0
DA:826,0
DA:827,0
DA:826,4
DA:827,4
DA:826,0
DA:827,0
DA:826,0
DA:827,0
DA:826,2
DA:827,2
DA:826,0
DA:827,0
DA:826,8
DA:827,8
DA:835,0
DA:836,0
DA:835,1
DA:836,1
DA:835,0
DA:836,0
DA:835,0
DA:836,0
DA:835,16
DA:836,16
DA:881,0
DA:882,0
DA:890,0
DA:891,0
DA:915,4
DA:916,4
DA:915,0
DA:916,0
DA:915,0
DA:916,0
DA:915,0
DA:916,0
DA:915,0
DA:916,0
DA:915,4
DA:916,4
DA:915,0
DA:916,0
DA:915,0
DA:916,0
DA:915,5
DA:916,5
DA:915,0
DA:916,0
DA:920,0
DA:921,0
DA:920,2
DA:921,2
DA:920,2
DA:921,2
DA:920,0
DA:921,0
DA:920,2
DA:921,2
DA:920,0
DA:921,0
DA:920,0
DA:921,0
DA:920,0
DA:921,0
DA:920,0
DA:921,0
DA:920,0
DA:921,0
DA:1004,1
DA:1005,1
DA:1004,0
DA:1005,0
DA:1004,10
DA:1005,10
DA:1040,0
DA:1043,0
DA:1040,0
DA:1043,0
DA:1040,0
DA:1043,0
DA:1040,0
DA:1043,0
DA:1040,29
DA:1043,29
DA:1140,0
DA:1143,0
DA:1140,1
DA:1143,1
DA:1140,1
DA:1143,1
DA:1140,1
DA:1143,1
DA:1140,0
DA:1143,0
DA:1140,0
DA:1143,0
DA:1140,0
DA:1143,0
DA:1140,0
DA:1143,0
DA:1165,0
DA:1166,0
DA:1184,0
DA:1186,0
DA:1189,0
DA:1191,0
DA:1195,0
DA:1196,0
DA:1184,0
DA:1186,0
DA:1189,0
DA:1191,0
DA:1195,0
DA:1196,0
DA:1184,0
DA:1186,0
DA:1189,0
DA:1191,0
DA:1195,0
DA:1196,0
DA:1184,0
DA:1186,0
DA:1189,0
DA:1191,0
DA:1195,0
DA:1196,0
DA:1200,0
DA:1201,0
DA:1200,1
DA:1201,1
DA:1200,1
DA:1201,1
DA:1200,1
DA:1201,1
DA:1200,0
DA:1201,0
DA:1222,0
DA:1225,0
DA:1226,0
DA:1228,0
DA:1222,0
DA:1225,0
DA:1226,0
DA:1228,0
DA:1222,0
DA:1225,0
DA:1226,0
DA:1228,0
DA:1290,0
DA:1291,0
DA:1495,1
DA:1496,1
DA:1495,2
DA:1496,2
DA:1495,1
DA:1496,1
DA:1600,1
DA:1602,1
DA:1603,1
DA:1604,1
DA:1605,1
DA:1753,0
DA:1755,0
DA:1756,0
DA:1758,0
DA:1759,0
DA:1753,1
DA:1755,1
DA:1756,0
DA:1758,1
DA:1759,1
DA:1753,1
DA:1755,1
DA:1756,0
DA:1758,1
DA:1759,1
DA:1753,0
DA:1755,0
DA:1756,0
DA:1758,0
DA:1759,0
DA:1753,1
DA:1755,1
DA:1756,0
DA:1758,1
DA:1759,1
DA:1753,0
DA:1755,0
DA:1756,0
DA:1758,0
DA:1759,0
DA:1753,0
DA:1755,0
DA:1756,0
DA:1758,0
DA:1759,0
DA:1753,0
DA:1755,0
DA:1756,0
DA:1758,0
DA:1759,0
DA:1753,0
DA:1755,0
DA:1756,0
DA:1758,0
DA:1759,0
DA:1753,0
DA:1755,0
DA:1756,0
DA:1758,0
DA:1759,0
DA:1764,1
DA:1766,1
DA:1767,0
DA:1769,1
DA:1773,0
DA:1778,0
DA:1780,0
DA:1781,0
DA:1773,2
DA:1778,2
DA:1780,2
DA:1781,2
DA:1773,2
DA:1778,2
DA:1780,2
DA:1781,2
DA:1773,0
DA:1778,0
DA:1780,0
DA:1781,0
DA:1773,2
DA:1778,2
DA:1780,2
DA:1781,2
DA:1773,0
DA:1778,0
DA:1780,0
DA:1781,0
DA:1773,0
DA:1778,0
DA:1780,0
DA:1781,0
DA:1773,0
DA:1778,0
DA:1780,0
DA:1781,0
DA:1773,0
DA:1778,0
DA:1780,0
DA:1781,0
DA:1773,0
DA:1778,0
DA:1780,0
DA:1781,0
DA:1773,1
DA:1778,1
DA:1780,1
DA:1781,1
DA:1789,1
DA:1791,1
DA:1793,1
DA:1794,1
DA:1795,1
DA:1798,1
DA:1789,2
DA:1791,2
DA:1793,0
DA:1794,0
DA:1795,0
DA:1798,2
DA:1789,1
DA:1791,1
DA:1793,0
DA:1794,0
DA:1795,0
DA:1798,1
DA:1840,0
DA:1841,0
DA:1905,0
DA:1906,0
DA:1907,0
end_of_record
SF:/usr/include/c++/9/new
FN:173,_ZnwmPv
FNDA:20,_ZnwmPv
FN:179,_ZdlPvS_
FNDA:0,_ZdlPvS_
DA:173,20
DA:174,20
DA:179,0
end_of_record
SF:/usr/include/c++/9/bits/stl_set.h
FN:167,_ZNSt3setIN7doctest6StringESt4lessIS1_ESaIS1_EEC2Ev
FNDA:1,_ZNSt3setIN7doctest6StringESt4lessIS1_ESaIS1_EEC2Ev
FN:167,_ZNSt3setISt6vectorIN7doctest16SubcaseSignatureESaIS2_EESt4lessIS4_ESaIS4_EEC2Ev
FNDA:1,_ZNSt3setISt6vectorIN7doctest16SubcaseSignatureESaIS2_EESt4lessIS4_ESaIS4_EEC2Ev
FN:167,_ZNSt3setIN7doctest6detail8TestCaseESt4lessIS2_ESaIS2_EEC2Ev
FNDA:1,_ZNSt3setIN7doctest6detail8TestCaseESt4lessIS2_ESaIS2_EEC2Ev
FN:281,_ZNSt3setIN7doctest6StringESt4lessIS1_ESaIS1_EED2Ev
FNDA:1,_ZNSt3setIN7doctest6StringESt4lessIS1_ESaIS1_EED2Ev
FN:281,_ZNSt3setISt6vectorIN7doctest16SubcaseSignatureESaIS2_EESt4lessIS4_ESaIS4_EED2Ev
FNDA:1,_ZNSt3setISt6vectorIN7doctest16SubcaseSignatureESaIS2_EESt4lessIS4_ESaIS4_EED2Ev
FN:281,_ZNSt3setIN7doctest6detail8TestCaseESt4lessIS2_ESaIS2_EED2Ev
FNDA:1,_ZNSt3setIN7doctest6detail8TestCaseESt4lessIS2_ESaIS2_EED2Ev
FN:344,_ZNKSt3setIN7doctest6detail8TestCaseESt4lessIS2_ESaIS2_EE5beginEv
FNDA:1,_ZNKSt3setIN7doctest6detail8TestCaseESt4lessIS2_ESaIS2_EE5beginEv
FN:353,_ZNKSt3setIN7doctest6detail8TestCaseESt4lessIS2_ESaIS2_EE3endEv
FNDA:1,_ZNKSt3setIN7doctest6detail8TestCaseESt4lessIS2_ESaIS2_EE3endEv
FN:509,_ZNSt3setIN7doctest6detail8TestCaseESt4lessIS2_ESaIS2_EE6insertERKS2_
FNDA:1,_ZNSt3setIN7doctest6detail8TestCaseESt4lessIS2_ESaIS2_EE6insertERKS2_
FN:509,_ZNSt3setISt6vectorIN7doctest16SubcaseSignatureESaIS2_EESt4lessIS4_ESaIS4_EE6insertERKS4_
FNDA:0,_ZNSt3setISt6vectorIN7doctest16SubcaseSignatureESaIS2_EESt4lessIS4_ESaIS4_EE6insertERKS4_
FN:518,_ZNSt3setIN7doctest6StringESt4lessIS1_ESaIS1_EE6insertEOS1_
FNDA:0,_ZNSt3setIN7doctest6StringESt4lessIS1_ESaIS1_EE6insertEOS1_
FN:733,_ZNSt3setISt6vectorIN7doctest16SubcaseSignatureESaIS2_EESt4lessIS4_ESaIS4_EE5clearEv
FNDA:1,_ZNSt3setISt6vectorIN7doctest16SubcaseSignatureESaIS2_EESt4lessIS4_ESaIS4_EE5clearEv
FN:748,_ZNKSt3setIN7doctest6StringESt4lessIS1_ESaIS1_EE5countERKS1_
FNDA:0,_ZNKSt3setIN7doctest6StringESt4lessIS1_ESaIS1_EE5countERKS1_
FN:748,_ZNKSt3setISt6vectorIN7doctest16SubcaseSignatureESaIS2_EESt4lessIS4_ESaIS4_EE5countERKS4_
FNDA:0,_ZNKSt3setISt6vectorIN7doctest16SubcaseSignatureESaIS2_EESt4lessIS4_ESaIS4_EE5countERKS4_
DA:167,1
DA:167,1
DA:167,1
DA:281,1
DA:281,1
DA:281,1
DA:344,1
DA:345,1
DA:353,1
DA:354,1
DA:509,1
DA:511,1
DA:513,1
DA:509,0
DA:511,0
DA:513,0
DA:518,0
DA:520,0
DA:521,0
DA:522,0
DA:733,1
DA:734,1
DA:748,0
DA:749,0
DA:748,0
DA:749,0
end_of_record
SF:/usr/include/c++/9/ext/alloc_traits.h
FN:97,_ZN9__gnu_cxx14__alloc_traitsISaIN7doctest16SubcaseSignatureEES2_E17_S_select_on_copyERKS3_
FNDA:0,_ZN9__gnu_cxx14__alloc_traitsISaIN7doctest16SubcaseSignatureEES2_E17_S_select_on_copyERKS3_
FN:97,_ZN9__gnu_cxx14__alloc_traitsISaIN7doctest6StringEES2_E17_S_select_on_copyERKS3_
FNDA:0,_ZN9__gnu_cxx14__alloc_traitsISaIN7doctest6StringEES2_E17_S_select_on_copyERKS3_
FN:97,_ZN9__gnu_cxx14__alloc_traitsISaIcEcE17_S_select_on_copyERKS1_
FNDA:0,_ZN9__gnu_cxx14__alloc_traitsISaIcEcE17_S_select_on_copyERKS1_
DA:97,0
DA:98,0
DA:97,0
DA:98,0
DA:97,0
DA:98,0
end_of_record
SF:/usr/include/c++/9/atomic
FN:80,_ZNSt6atomicIbEaSEb
FNDA:1,_ZNSt6atomicIbEaSEb
FN:87,_ZNKSt6atomicIbEcvbEv
FNDA:0,_ZNKSt6atomicIbEcvbEv
DA:80,1
DA:81,1
DA:87,0
DA:88,0
end_of_record
SF:/usr/include/c++/9/ext/type_traits.h
FN:152,_ZN9__gnu_cxx17__is_null_pointerIcEEbPT_
FNDA:0,_ZN9__gnu_cxx17__is_null_pointerIcEEbPT_
FN:152,_ZN9__gnu_cxx17__is_null_pointerIKcEEbPT_
FNDA:0,_ZN9__gnu_cxx17__is_null_pointerIKcEEbPT_
DA:152,0
DA:153,0
DA:152,0
DA:153,0
end_of_record
SF:/usr/include/x86_64-linux-gnu/c++/9/bits/gthr-default.h
FN:248,_ZL18__gthread_active_pv
FNDA:0,_ZL18__gthread_active_pv
FN:746,_ZL20__gthread_mutex_lockP15pthread_mutex_t
FNDA:0,_ZL20__gthread_mutex_lockP15pthread_mutex_t
FN:776,_ZL22__gthread_mutex_unlockP15pthread_mutex_t
FNDA:0,_ZL22__gthread_mutex_unlockP15pthread_mutex_t
DA:248,0
DA:252,0
DA:746,0
DA:748,0
DA:749,0
DA:751,0
DA:776,0
DA:778,0
DA:779,0
DA:781,0
end_of_record
SF:/usr/include/c++/9/bits/atomic_base.h
FN:99,_ZStanSt12memory_orderSt23__memory_order_modifier
FNDA:193,_ZStanSt12memory_orderSt23__memory_order_modifier
FN:288,_ZNSt13__atomic_baseIbEaSEb
FNDA:1,_ZNSt13__atomic_baseIbEaSEb
FN:302,_ZNSt13__atomic_baseImEppEi
FNDA:1,_ZNSt13__atomic_baseImEppEi
DA:99,193
DA:101,193
DA:288,1
DA:290,1
DA:291,1
DA:302,1
DA:303,1
DA:392,65
DA:397,65
DA:398,65
DA:415,128
DA:419,128
DA:541,2
end_of_record
SF:/usr/include/c++/9/bits/ios_base.h
FN:83,_ZStanSt13_Ios_FmtflagsS_
FNDA:2,_ZStanSt13_Ios_FmtflagsS_
FN:87,_ZStorSt13_Ios_FmtflagsS_
FNDA:1,_ZStorSt13_Ios_FmtflagsS_
FN:95,_ZStcoSt13_Ios_Fmtflags
FNDA:1,_ZStcoSt13_Ios_Fmtflags
FN:99,_ZStoRRSt13_Ios_FmtflagsS_
FNDA:1,_ZStoRRSt13_Ios_FmtflagsS_
FN:103,_ZStaNRSt13_Ios_FmtflagsS_
FNDA:1,_ZStaNRSt13_Ios_FmtflagsS_
FN:626,_ZNKSt8ios_base5flagsEv
FNDA:0,_ZNKSt8ios_base5flagsEv
FN:637,_ZNSt8ios_base5flagsESt13_Ios_Fmtflags
FNDA:0,_ZNSt8ios_base5flagsESt13_Ios_Fmtflags
FN:653,_ZNSt8ios_base4setfESt13_Ios_Fmtflags
FNDA:0,_ZNSt8ios_base4setfESt13_Ios_Fmtflags
FN:670,_ZNSt8ios_base4setfESt13_Ios_FmtflagsS0_
FNDA:1,_ZNSt8ios_base4setfESt13_Ios_FmtflagsS0_
FN:685,_ZNSt8ios_base6unsetfESt13_Ios_Fmtflags
FNDA:0,_ZNSt8ios_base6unsetfESt13_Ios_Fmtflags
FN:885,_ZSt9boolalphaRSt8ios_base
FNDA:0,_ZSt9boolalphaRSt8ios_base
FN:893,_ZSt11noboolalphaRSt8ios_base
FNDA:0,_ZSt11noboolalphaRSt8ios_base
FN:965,_ZSt9uppercaseRSt8ios_base
FNDA:0,_ZSt9uppercaseRSt8ios_base
FN:1023,_ZSt3decRSt8ios_base
FNDA:1,_ZSt3decRSt8ios_base
FN:1031,_ZSt3hexRSt8ios_base
FNDA:0,_ZSt3hexRSt8ios_base
FN:1048,_ZSt5fixedRSt8ios_base
FNDA:0,_ZSt5fixedRSt8ios_base
DA:83,2
DA:84,2
DA:87,1
DA:88,1
DA:95,1
DA:96,1
DA:99,1
DA:100,1
DA:103,1
DA:104,1
DA:626,0
DA:627,0
DA:637,0
DA:639,0
DA:640,0
DA:641,0
DA:653,0
DA:655,0
DA:656,0
DA:657,0
DA:670,1
DA:672,1
DA:673,1
DA:674,1
DA:675,1
DA:685,0
DA:686,0
DA:885,0
DA:887,0
DA:888,0
DA:893,0
DA:895,0
DA:896,0
DA:965,0
DA:967,0
DA:968,0
DA:1023,1
DA:1025,1
DA:1026,1
DA:1031,0
DA:1033,0
DA:1034,0
DA:1048,0
DA:1050,0
DA:1051,0
end_of_record
SF:/usr/include/c++/9/bits/stl_uninitialized.h
FN:76,_ZNSt20__uninitialized_copyILb0EE13__uninit_copyIN9__gnu_cxx17__normal_iteratorIPKN7doctest16SubcaseSignatureESt6vectorIS5_SaIS5_EEEEPS5_EET0_T_SE_SD_
FNDA:0,_ZNSt20__uninitialized_copyILb0EE13__uninit_copyIN9__gnu_cxx17__normal_iteratorIPKN7doctest16SubcaseSignatureESt6vectorIS5_SaIS5_EEEEPS5_EET0_T_SE_SD_
FN:76,_ZNSt20__uninitialized_copyILb0EE13__uninit_copyIN9__gnu_cxx17__normal_iteratorIPKN7doctest6StringESt6vectorIS5_SaIS5_EEEEPS5_EET0_T_SE_SD_
FNDA:0,_ZNSt20__uninitialized_copyILb0EE13__uninit_copyIN9__gnu_cxx17__normal_iteratorIPKN7doctest6StringESt6vectorIS5_SaIS5_EEEEPS5_EET0_T_SE_SD_
FN:76,_ZNSt20__uninitialized_copyILb0EE13__uninit_copyIPKN7doctest16SubcaseSignatureEPS3_EET0_T_S8_S7_
FNDA:0,_ZNSt20__uninitialized_copyILb0EE13__uninit_copyIPKN7doctest16SubcaseSignatureEPS3_EET0_T_S8_S7_
FN:76,_ZNSt20__uninitialized_copyILb0EE13__uninit_copyIPKN7doctest6StringEPS3_EET0_T_S8_S7_
FNDA:2,_ZNSt20__uninitialized_copyILb0EE13__uninit_copyIPKN7doctest6StringEPS3_EET0_T_S8_S7_
FN:115,_ZSt18uninitialized_copyIN9__gnu_cxx17__normal_iteratorIPKN7doctest16SubcaseSignatureESt6vectorIS3_SaIS3_EEEEPS3_ET0_T_SC_SB_
FNDA:0,_ZSt18uninitialized_copyIN9__gnu_cxx17__normal_iteratorIPKN7doctest16SubcaseSignatureESt6vectorIS3_SaIS3_EEEEPS3_ET0_T_SC_SB_
FN:115,_ZSt18uninitialized_copyIN9__gnu_cxx17__normal_iteratorIPKN7doctest6StringESt6vectorIS3_SaIS3_EEEEPS3_ET0_T_SC_SB_
FNDA:0,_ZSt18uninitialized_copyIN9__gnu_cxx17__normal_iteratorIPKN7doctest6StringESt6vectorIS3_SaIS3_EEEEPS3_ET0_T_SC_SB_
FN:115,_ZSt18uninitialized_copyIPKN7doctest16SubcaseSignatureEPS1_ET0_T_S6_S5_
FNDA:0,_ZSt18uninitialized_copyIPKN7doctest16SubcaseSignatureEPS1_ET0_T_S6_S5_
FN:115,_ZSt18uninitialized_copyIPKN7doctest6StringEPS1_ET0_T_S6_S5_
FNDA:2,_ZSt18uninitialized_copyIPKN7doctest6StringEPS1_ET0_T_S6_S5_
FN:305,_ZSt22__uninitialized_copy_aIN9__gnu_cxx17__normal_iteratorIPKN7doctest6StringESt6vectorIS3_SaIS3_EEEEPS3_S3_ET0_T_SC_SB_RSaIT1_E
FNDA:0,_ZSt22__uninitialized_copy_aIN9__gnu_cxx17__normal_iteratorIPKN7doctest6StringESt6vectorIS3_SaIS3_EEEEPS3_S3_ET0_T_SC_SB_RSaIT1_E
FN:305,_ZSt22__uninitialized_copy_aIPKN7doctest16SubcaseSignatureEPS1_S1_ET0_T_S6_S5_RSaIT1_E
FNDA:0,_ZSt22__uninitialized_copy_aIPKN7doctest16SubcaseSignatureEPS1_S1_ET0_T_S6_S5_RSaIT1_E
FN:305,_ZSt22__uninitialized_copy_aIPKN7doctest6StringEPS1_S1_ET0_T_S6_S5_RSaIT1_E
FNDA:2,_ZSt22__uninitialized_copy_aIPKN7doctest6StringEPS1_S1_ET0_T_S6_S5_RSaIT1_E
FN:305,_ZSt22__uninitialized_copy_aIN9__gnu_cxx17__normal_iteratorIPKN7doctest16SubcaseSignatureESt6vectorIS3_SaIS3_EEEEPS3_S3_ET0_T_SC_SB_RSaIT1_E
FNDA:0,_ZSt22__uninitialized_copy_aIN9__gnu_cxx17__normal_iteratorIPKN7doctest16SubcaseSignatureESt6vectorIS3_SaIS3_EEEEPS3_S3_ET0_T_SC_SB_RSaIT1_E
FN:323,_ZSt34__uninitialized_move_if_noexcept_aIPN7doctest16SubcaseSignatureES2_SaIS1_EET0_T_S5_S4_RT1_
FNDA:0,_ZSt34__uninitialized_move_if_noexcept_aIPN7doctest16SubcaseSignatureES2_SaIS1_EET0_T_S5_S4_RT1_
FN:323,_ZSt34__uninitialized_move_if_noexcept_aIPN7doctest6StringES2_SaIS1_EET0_T_S5_S4_RT1_
FNDA:2,_ZSt34__uninitialized_move_if_noexcept_aIPN7doctest6StringES2_SaIS1_EET0_T_S5_S4_RT1_
FN:539,_ZNSt27__uninitialized_default_n_1ILb0EE18__uninit_default_nIPSt6vectorIN7doctest6StringESaIS4_EEmEET_S8_T0_
FNDA:1,_ZNSt27__uninitialized_default_n_1ILb0EE18__uninit_default_nIPSt6vectorIN7doctest6StringESaIS4_EEmEET_S8_T0_
FN:592,_ZSt25__uninitialized_default_nIPSt6vectorIN7doctest6StringESaIS2_EEmET_S6_T0_
FNDA:1,_ZSt25__uninitialized_default_nIPSt6vectorIN7doctest6StringESaIS2_EEmET_S6_T0_
FN:661,_ZSt27__uninitialized_default_n_aIPSt6vectorIN7doctest6StringESaIS2_EEmS4_ET_S6_T0_RSaIT1_E
FNDA:1,_ZSt27__uninitialized_default_n_aIPSt6vectorIN7doctest6StringESaIS2_EEmS4_ET_S6_T0_RSaIT1_E
FN:905,_ZSt19__relocate_object_aINSt7__cxx1112basic_stringIcSt11char_traitsIcESaIcEEES5_SaIS5_EEvPT_PT0_RT1_
FNDA:0,_ZSt19__relocate_object_aINSt7__cxx1112basic_stringIcSt11char_traitsIcESaIcEEES5_SaIS5_EEvPT_PT0_RT1_
FN:905,_ZSt19__relocate_object_aIN7doctest12_GLOBAL__N_113JUnitReporter17JUnitTestCaseData16JUnitTestMessageES4_SaIS4_EEvPT_PT0_RT1_
FNDA:0,_ZSt19__relocate_object_aIN7doctest12_GLOBAL__N_113JUnitReporter17JUnitTestCaseData16JUnitTestMessageES4_SaIS4_EEvPT_PT0_RT1_
FN:905,_ZSt19__relocate_object_aIN7doctest12_GLOBAL__N_113JUnitReporter17JUnitTestCaseData13JUnitTestCaseES4_SaIS4_EEvPT_PT0_RT1_
FNDA:0,_ZSt19__relocate_object_aIN7doctest12_GLOBAL__N_113JUnitReporter17JUnitTestCaseData13JUnitTestCaseES4_SaIS4_EEvPT_PT0_RT1_
FN:924,_ZSt14__relocate_a_1IPKN7doctest12TestCaseDataES3_ENSt9enable_ifIXsrSt24__is_bitwise_relocatableIT_vE5valueEPS6_E4typeES8_S8_S8_RSaIT0_E
FNDA:0,_ZSt14__relocate_a_1IPKN7doctest12TestCaseDataES3_ENSt9enable_ifIXsrSt24__is_bitwise_relocatableIT_vE5valueEPS6_E4typeES8_S8_S8_RSaIT0_E
FN:924,_ZSt14__relocate_a_1IPN7doctest13IContextScopeES2_ENSt9enable_ifIXsrSt24__is_bitwise_relocatableIT_vE5valueEPS5_E4typeES7_S7_S7_RSaIT0_E
FNDA:0,_ZSt14__relocate_a_1IPN7doctest13IContextScopeES2_ENSt9enable_ifIXsrSt24__is_bitwise_relocatableIT_vE5valueEPS5_E4typeES7_S7_S7_RSaIT0_E
FN:924,_ZSt14__relocate_a_1IPKN7doctest6detail20IExceptionTranslatorES4_ENSt9enable_ifIXsrSt24__is_bitwise_relocatableIT_vE5valueEPS7_E4typeES9_S9_S9_RSaIT0_E
FNDA:0,_ZSt14__relocate_a_1IPKN7doctest6detail20IExceptionTranslatorES4_ENSt9enable_ifIXsrSt24__is_bitwise_relocatableIT_vE5valueEPS7_E4typeES9_S9_S9_RSaIT0_E
FN:924,_ZSt14__relocate_a_1IPKN7doctest6detail8TestCaseES4_ENSt9enable_ifIXsrSt24__is_bitwise_relocatableIT_vE5valueEPS7_E4typeES9_S9_S9_RSaIT0_E
FNDA:2,_ZSt14__relocate_a_1IPKN7doctest6detail8TestCaseES4_ENSt9enable_ifIXsrSt24__is_bitwise_relocatableIT_vE5valueEPS7_E4typeES9_S9_S9_RSaIT0_E
FN:924,_ZSt14__relocate_a_1IPN7doctest9IReporterES2_ENSt9enable_ifIXsrSt24__is_bitwise_relocatableIT_vE5valueEPS5_E4typeES7_S7_S7_RSaIT0_E
FNDA:2,_ZSt14__relocate_a_1IPN7doctest9IReporterES2_ENSt9enable_ifIXsrSt24__is_bitwise_relocatableIT_vE5valueEPS5_E4typeES7_S7_S7_RSaIT0_E
FN:936,_ZSt14__relocate_a_1IPNSt7__cxx1112basic_stringIcSt11char_traitsIcESaIcEEES6_SaIS5_EET0_T_S9_S8_RT1_
FNDA:0,_ZSt14__relocate_a_1IPNSt7__cxx1112basic_stringIcSt11char_traitsIcESaIcEEES6_SaIS5_EET0_T_S9_S8_RT1_
FN:936,_ZSt14__relocate_a_1IPN7doctest12_GLOBAL__N_113JUnitReporter17JUnitTestCaseData13JUnitTestCaseES5_SaIS4_EET0_T_S8_S7_RT1_
FNDA:0,_ZSt14__relocate_a_1IPN7doctest12_GLOBAL__N_113JUnitReporter17JUnitTestCaseData13JUnitTestCaseES5_SaIS4_EET0_T_S8_S7_RT1_
FN:936,_ZSt14__relocate_a_1IPN7doctest12_GLOBAL__N_113JUnitReporter17JUnitTestCaseData16JUnitTestMessageES5_SaIS4_EET0_T_S8_S7_RT1_
FNDA:0,_ZSt14__relocate_a_1IPN7doctest12_GLOBAL__N_113JUnitReporter17JUnitTestCaseData16JUnitTestMessageES5_SaIS4_EET0_T_S8_S7_RT1_
FN:958,_ZSt12__relocate_aIPNSt7__cxx1112basic_stringIcSt11char_traitsIcESaIcEEES6_SaIS5_EET0_T_S9_S8_RT1_
FNDA:0,_ZSt12__relocate_aIPNSt7__cxx1112basic_stringIcSt11char_traitsIcESaIcEEES6_SaIS5_EET0_T_S9_S8_RT1_
FN:958,_ZSt12__relocate_aIPPKN7doctest6detail20IExceptionTranslatorES5_SaIS4_EET0_T_S8_S7_RT1_
FNDA:0,_ZSt12__relocate_aIPPKN7doctest6detail20IExceptionTranslatorES5_SaIS4_EET0_T_S8_S7_RT1_
FN:958,_ZSt12__relocate_aIPPKN7doctest6detail8TestCaseES5_SaIS4_EET0_T_S8_S7_RT1_
FNDA:2,_ZSt12__relocate_aIPPKN7doctest6detail8TestCaseES5_SaIS4_EET0_T_S8_S7_RT1_
FN:958,_ZSt12__relocate_aIPN7doctest12_GLOBAL__N_113JUnitReporter17JUnitTestCaseData13JUnitTestCaseES5_SaIS4_EET0_T_S8_S7_RT1_
FNDA:0,_ZSt12__relocate_aIPN7doctest12_GLOBAL__N_113JUnitReporter17JUnitTestCaseData13JUnitTestCaseES5_SaIS4_EET0_T_S8_S7_RT1_
FN:958,_ZSt12__relocate_aIPN7doctest12_GLOBAL__N_113JUnitReporter17JUnitTestCaseData16JUnitTestMessageES5_SaIS4_EET0_T_S8_S7_RT1_
FNDA:0,_ZSt12__relocate_aIPN7doctest12_GLOBAL__N_113JUnitReporter17JUnitTestCaseData16JUnitTestMessageES5_SaIS4_EET0_T_S8_S7_RT1_
FN:958,_ZSt12__relocate_aIPPN7doctest13IContextScopeES3_SaIS2_EET0_T_S6_S5_RT1_
FNDA:0,_ZSt12__relocate_aIPPN7doctest13IContextScopeES3_SaIS2_EET0_T_S6_S5_RT1_
FN:958,_ZSt12__relocate_aIPPKN7doctest12TestCaseDataES4_SaIS3_EET0_T_S7_S6_RT1_
FNDA:0,_ZSt12__relocate_aIPPKN7doctest12TestCaseDataES4_SaIS3_EET0_T_S7_S6_RT1_
FN:958,_ZSt12__relocate_aIPPN7doctest9IReporterES3_SaIS2_EET0_T_S6_S5_RT1_
FNDA:2,_ZSt12__relocate_aIPPN7doctest9IReporterES3_SaIS2_EET0_T_S6_S5_RT1_
DA:76,0
DA:79,0
DA:82,0
DA:83,0
DA:84,0
DA:86,0
DA:88,0
DA:89,0
DA:76,2
DA:79,2
DA:82,2
DA:83,0
DA:84,2
DA:86,0
DA:88,0
DA:89,0
DA:76,0
DA:79,0
DA:82,0
DA:83,0
DA:84,0
DA:86,0
DA:88,0
DA:89,0
DA:76,0
DA:79,0
DA:82,0
DA:83,0
DA:84,0
DA:86,0
DA:88,0
DA:89,0
DA:115,0
DA:134,0
DA:140,0
DA:115,2
DA:134,2
DA:140,2
DA:115,0
DA:134,0
DA:140,0
DA:115,0
DA:134,0
DA:140,0
DA:305,0
DA:307,0
DA:305,2
DA:307,2
DA:305,0
DA:307,0
DA:305,0
DA:307,0
DA:323,2
DA:329,2
DA:330,2
DA:323,0
DA:329,0
DA:330,0
DA:539,1
DA:541,1
DA:544,10
DA:545,9
DA:546,1
DA:592,1
DA:597,1
DA:601,1
DA:661,1
DA:663,1
DA:905,0
DA:912,0
DA:913,0
DA:914,0
DA:905,0
DA:912,0
DA:913,0
DA:914,0
DA:905,0
DA:912,0
DA:913,0
DA:914,0
DA:924,0
DA:927,0
DA:928,0
DA:929,0
DA:930,0
DA:924,2
DA:927,2
DA:928,2
DA:929,0
DA:930,2
DA:924,2
DA:927,2
DA:928,2
DA:929,0
DA:930,2
DA:924,0
DA:927,0
DA:928,0
DA:929,0
DA:930,0
DA:924,0
DA:927,0
DA:928,0
DA:929,0
DA:930,0
DA:936,0
DA:948,0
DA:949,0
DA:950,0
DA:952,0
DA:936,0
DA:948,0
DA:949,0
DA:950,0
DA:952,0
DA:936,0
DA:948,0
DA:949,0
DA:950,0
DA:952,0
DA:958,0
DA:964,0
DA:966,0
DA:958,2
DA:964,2
DA:966,2
DA:958,2
DA:964,2
DA:966,2
DA:958,0
DA:964,0
DA:966,0
DA:958,0
DA:964,0
DA:966,0
DA:958,0
DA:964,0
DA:966,0
DA:958,0
DA:964,0
DA:966,0
DA:958,0
DA:964,0
DA:966,0
end_of_record
SF:/usr/include/c++/9/bits/stl_iterator.h
FN:806,_ZN9__gnu_cxx17__normal_iteratorIPPKN7doctest6detail8TestCaseESt6vectorIS5_SaIS5_EEEC2ERKS6_
FNDA:9,_ZN9__gnu_cxx17__normal_iteratorIPPKN7doctest6detail8TestCaseESt6vectorIS5_SaIS5_EEEC2ERKS6_
FN:806,_ZN9__gnu_cxx17__normal_iteratorIPPN7doctest13IContextScopeESt6vectorIS3_SaIS3_EEEC2ERKS4_
FNDA:0,_ZN9__gnu_cxx17__normal_iteratorIPPN7doctest13IContextScopeESt6vectorIS3_SaIS3_EEEC2ERKS4_
FN:806,_ZN9__gnu_cxx17__normal_iteratorIPKPKN7doctest6detail8TestCaseESt6vectorIS5_SaIS5_EEEC2ERKS7_
FNDA:2,_ZN9__gnu_cxx17__normal_iteratorIPKPKN7doctest6detail8TestCaseESt6vectorIS5_SaIS5_EEEC2ERKS7_
FN:806,_ZN9__gnu_cxx17__normal_iteratorIPN7doctest12_GLOBAL__N_113JUnitReporter17JUnitTestCaseData16JUnitTestMessageESt6vectorIS5_SaIS5_EEEC2ERKS6_
FNDA:0,_ZN9__gnu_cxx17__normal_iteratorIPN7doctest12_GLOBAL__N_113JUnitReporter17JUnitTestCaseData16JUnitTestMessageESt6vectorIS5_SaIS5_EEEC2ERKS6_
FN:806,_ZN9__gnu_cxx17__normal_iteratorIPNSt7__cxx1112basic_stringIcSt11char_traitsIcESaIcEEESt6vectorIS6_SaIS6_EEEC2ERKS7_
FNDA:0,_ZN9__gnu_cxx17__normal_iteratorIPNSt7__cxx1112basic_stringIcSt11char_traitsIcESaIcEEESt6vectorIS6_SaIS6_EEEC2ERKS7_
FN:806,_ZN9__gnu_cxx17__normal_iteratorIPKPN7doctest9IReporterESt6vectorIS3_SaIS3_EEEC2ERKS5_
FNDA:0,_ZN9__gnu_cxx17__normal_iteratorIPKPN7doctest9IReporterESt6vectorIS3_SaIS3_EEEC2ERKS5_
FN:806,_ZN9__gnu_cxx17__normal_iteratorIPKNSt7__cxx1112basic_stringIcSt11char_traitsIcESaIcEEESt6vectorIS6_SaIS6_EEEC2ERKS8_
FNDA:0,_ZN9__gnu_cxx17__normal_iteratorIPKNSt7__cxx1112basic_stringIcSt11char_traitsIcESaIcEEESt6vectorIS6_SaIS6_EEEC2ERKS8_
FN:806,_ZN9__gnu_cxx17__normal_iteratorIPN7doctest16SubcaseSignatureESt6vectorIS2_SaIS2_EEEC2ERKS3_
FNDA:0,_ZN9__gnu_cxx17__normal_iteratorIPN7doctest16SubcaseSignatureESt6vectorIS2_SaIS2_EEEC2ERKS3_
FN:806,_ZN9__gnu_cxx17__normal_iteratorIPPKN7doctest12TestCaseDataESt6vectorIS4_SaIS4_EEEC2ERKS5_
FNDA:0,_ZN9__gnu_cxx17__normal_iteratorIPPKN7doctest12TestCaseDataESt6vectorIS4_SaIS4_EEEC2ERKS5_
FN:806,_ZN9__gnu_cxx17__normal_iteratorIPSt6vectorIN7doctest6StringESaIS3_EES1_IS5_SaIS5_EEEC2ERKS6_
FNDA:0,_ZN9__gnu_cxx17__normal_iteratorIPSt6vectorIN7doctest6StringESaIS3_EES1_IS5_SaIS5_EEEC2ERKS6_
FN:806,_ZN9__gnu_cxx17__normal_iteratorIPKN7doctest12_GLOBAL__N_113JUnitReporter17JUnitTestCaseData16JUnitTestMessageESt6vectorIS5_SaIS5_EEEC2ERKS7_
FNDA:0,_ZN9__gnu_cxx17__normal_iteratorIPKN7doctest12_GLOBAL__N_113JUnitReporter17JUnitTestCaseData16JUnitTestMessageESt6vectorIS5_SaIS5_EEEC2ERKS7_
FN:806,_ZN9__gnu_cxx17__normal_iteratorIPN7doctest12_GLOBAL__N_113JUnitReporter17JUnitTestCaseData13JUnitTestCaseESt6vectorIS5_SaIS5_EEEC2ERKS6_
FNDA:0,_ZN9__gnu_cxx17__normal_iteratorIPN7doctest12_GLOBAL__N_113JUnitReporter17JUnitTestCaseData13JUnitTestCaseESt6vectorIS5_SaIS5_EEEC2ERKS6_
FN:806,_ZN9__gnu_cxx17__normal_iteratorIPN7doctest6StringESt6vectorIS2_SaIS2_EEEC2ERKS3_
FNDA:4,_ZN9__gnu_cxx17__normal_iteratorIPN7doctest6StringESt6vectorIS2_SaIS2_EEEC2ERKS3_
FN:806,_ZN9__gnu_cxx17__normal_iteratorIPKN7doctest16SubcaseSignatureESt6vectorIS2_SaIS2_EEEC2ERKS4_
FNDA:0,_ZN9__gnu_cxx17__normal_iteratorIPKN7doctest16SubcaseSignatureESt6vectorIS2_SaIS2_EEEC2ERKS4_
FN:806,_ZN9__gnu_cxx17__normal_iteratorIPPKN7doctest6detail20IExceptionTranslatorESt6vectorIS5_SaIS5_EEEC2ERKS6_
FNDA:0,_ZN9__gnu_cxx17__normal_iteratorIPPKN7doctest6detail20IExceptionTranslatorESt6vectorIS5_SaIS5_EEEC2ERKS6_
FN:806,_ZN9__gnu_cxx17__normal_iteratorIPPN7doctest9IReporterESt6vectorIS3_SaIS3_EEEC2ERKS4_
FNDA:16,_ZN9__gnu_cxx17__normal_iteratorIPPN7doctest9IReporterESt6vectorIS3_SaIS3_EEEC2ERKS4_
FN:806,_ZN9__gnu_cxx17__normal_iteratorIPKN7doctest6StringESt6vectorIS2_SaIS2_EEEC2ERKS4_
FNDA:32,_ZN9__gnu_cxx17__normal_iteratorIPKN7doctest6StringESt6vectorIS2_SaIS2_EEEC2ERKS4_
FN:811,_ZN9__gnu_cxx17__normal_iteratorIPKPN7doctest9IReporterESt6vectorIS3_SaIS3_EEEC2IPS3_EERKNS0_IT_NS_11__enable_ifIXsrSt10__are_sameISC_SB_E7__valueES8_E6__typeEEE
FNDA:0,_ZN9__gnu_cxx17__normal_iteratorIPKPN7doctest9IReporterESt6vectorIS3_SaIS3_EEEC2IPS3_EERKNS0_IT_NS_11__enable_ifIXsrSt10__are_sameISC_SB_E7__valueES8_E6__typeEEE
FN:819,_ZNK9__gnu_cxx17__normal_iteratorIPKN7doctest12_GLOBAL__N_113JUnitReporter17JUnitTestCaseData16JUnitTestMessageESt6vectorIS5_SaIS5_EEEdeEv
FNDA:0,_ZNK9__gnu_cxx17__normal_iteratorIPKN7doctest12_GLOBAL__N_113JUnitReporter17JUnitTestCaseData16JUnitTestMessageESt6vectorIS5_SaIS5_EEEdeEv
FN:819,_ZNK9__gnu_cxx17__normal_iteratorIPNSt7__cxx1112basic_stringIcSt11char_traitsIcESaIcEEESt6vectorIS6_SaIS6_EEEdeEv
FNDA:0,_ZNK9__gnu_cxx17__normal_iteratorIPNSt7__cxx1112basic_stringIcSt11char_traitsIcESaIcEEESt6vectorIS6_SaIS6_EEEdeEv
FN:819,_ZNK9__gnu_cxx17__normal_iteratorIPN7doctest12_GLOBAL__N_113JUnitReporter17JUnitTestCaseData13JUnitTestCaseESt6vectorIS5_SaIS5_EEEdeEv
FNDA:0,_ZNK9__gnu_cxx17__normal_iteratorIPN7doctest12_GLOBAL__N_113JUnitReporter17JUnitTestCaseData13JUnitTestCaseESt6vectorIS5_SaIS5_EEEdeEv
FN:819,_ZNK9__gnu_cxx17__normal_iteratorIPPKN7doctest6detail8TestCaseESt6vectorIS5_SaIS5_EEEdeEv
FNDA:2,_ZNK9__gnu_cxx17__normal_iteratorIPPKN7doctest6detail8TestCaseESt6vectorIS5_SaIS5_EEEdeEv
FN:819,_ZNK9__gnu_cxx17__normal_iteratorIPN7doctest6StringESt6vectorIS2_SaIS2_EEEdeEv
FNDA:1,_ZNK9__gnu_cxx17__normal_iteratorIPN7doctest6StringESt6vectorIS2_SaIS2_EEEdeEv
FN:819,_ZNK9__gnu_cxx17__normal_iteratorIPN7doctest12_GLOBAL__N_113JUnitReporter17JUnitTestCaseData16JUnitTestMessageESt6vectorIS5_SaIS5_EEEdeEv
FNDA:0,_ZNK9__gnu_cxx17__normal_iteratorIPN7doctest12_GLOBAL__N_113JUnitReporter17JUnitTestCaseData16JUnitTestMessageESt6vectorIS5_SaIS5_EEEdeEv
FN:819,_ZNK9__gnu_cxx17__normal_iteratorIPPKN7doctest6detail20IExceptionTranslatorESt6vectorIS5_SaIS5_EEEdeEv
FNDA:0,_ZNK9__gnu_cxx17__normal_iteratorIPPKN7doctest6detail20IExceptionTranslatorESt6vectorIS5_SaIS5_EEEdeEv
FN:819,_ZNK9__gnu_cxx17__normal_iteratorIPSt6vectorIN7doctest6StringESaIS3_EES1_IS5_SaIS5_EEEdeEv
FNDA:0,_ZNK9__gnu_cxx17__normal_iteratorIPSt6vectorIN7doctest6StringESaIS3_EES1_IS5_SaIS5_EEEdeEv
FN:819,_ZNK9__gnu_cxx17__normal_iteratorIPPKN7doctest12TestCaseDataESt6vectorIS4_SaIS4_EEEdeEv
FNDA:0,_ZNK9__gnu_cxx17__normal_iteratorIPPKN7doctest12TestCaseDataESt6vectorIS4_SaIS4_EEEdeEv
FN:819,_ZNK9__gnu_cxx17__normal_iteratorIPPN7doctest13IContextScopeESt6vectorIS3_SaIS3_EEEdeEv
FNDA:0,_ZNK9__gnu_cxx17__normal_iteratorIPPN7doctest13IContextScopeESt6vectorIS3_SaIS3_EEEdeEv
FN:819,_ZNK9__gnu_cxx17__normal_iteratorIPKN7doctest16SubcaseSignatureESt6vectorIS2_SaIS2_EEEdeEv
FNDA:0,_ZNK9__gnu_cxx17__normal_iteratorIPKN7doctest16SubcaseSignatureESt6vectorIS2_SaIS2_EEEdeEv
FN:819,_ZNK9__gnu_cxx17__normal_iteratorIPKN7doctest6StringESt6vectorIS2_SaIS2_EEEdeEv
FNDA:3,_ZNK9__gnu_cxx17__normal_iteratorIPKN7doctest6StringESt6vectorIS2_SaIS2_EEEdeEv
FN:819,_ZNK9__gnu_cxx17__normal_iteratorIPPN7doctest9IReporterESt6vectorIS3_SaIS3_EEEdeEv
FNDA:7,_ZNK9__gnu_cxx17__normal_iteratorIPPN7doctest9IReporterESt6vectorIS3_SaIS3_EEEdeEv
FN:827,_ZN9__gnu_cxx17__normal_iteratorIPKN7doctest6StringESt6vectorIS2_SaIS2_EEEppEv
FNDA:2,_ZN9__gnu_cxx17__normal_iteratorIPKN7doctest6StringESt6vectorIS2_SaIS2_EEEppEv
FN:827,_ZN9__gnu_cxx17__normal_iteratorIPSt6vectorIN7doctest6StringESaIS3_EES1_IS5_SaIS5_EEEppEv
FNDA:0,_ZN9__gnu_cxx17__normal_iteratorIPSt6vectorIN7doctest6StringESaIS3_EES1_IS5_SaIS5_EEEppEv
FN:827,_ZN9__gnu_cxx17__normal_iteratorIPN7doctest12_GLOBAL__N_113JUnitReporter17JUnitTestCaseData13JUnitTestCaseESt6vectorIS5_SaIS5_EEEppEv
FNDA:0,_ZN9__gnu_cxx17__normal_iteratorIPN7doctest12_GLOBAL__N_113JUnitReporter17JUnitTestCaseData13JUnitTestCaseESt6vectorIS5_SaIS5_EEEppEv
FN:827,_ZN9__gnu_cxx17__normal_iteratorIPPKN7doctest6detail8TestCaseESt6vectorIS5_SaIS5_EEEppEv
FNDA:1,_ZN9__gnu_cxx17__normal_iteratorIPPKN7doctest6detail8TestCaseESt6vectorIS5_SaIS5_EEEppEv
FN:827,_ZN9__gnu_cxx17__normal_iteratorIPKN7doctest16SubcaseSignatureESt6vectorIS2_SaIS2_EEEppEv
FNDA:0,_ZN9__gnu_cxx17__normal_iteratorIPKN7doctest16SubcaseSignatureESt6vectorIS2_SaIS2_EEEppEv
FN:827,_ZN9__gnu_cxx17__normal_iteratorIPN7doctest6StringESt6vectorIS2_SaIS2_EEEppEv
FNDA:0,_ZN9__gnu_cxx17__normal_iteratorIPN7doctest6StringESt6vectorIS2_SaIS2_EEEppEv
FN:827,_ZN9__gnu_cxx17__normal_iteratorIPPKN7doctest6detail20IExceptionTranslatorESt6vectorIS5_SaIS5_EEEppEv
FNDA:0,_ZN9__gnu_cxx17__normal_iteratorIPPKN7doctest6detail20IExceptionTranslatorESt6vectorIS5_SaIS5_EEEppEv
FN:827,_ZN9__gnu_cxx17__normal_iteratorIPPN7doctest9IReporterESt6vectorIS3_SaIS3_EEEppEv
FNDA:6,_ZN9__gnu_cxx17__normal_iteratorIPPN7doctest9IReporterESt6vectorIS3_SaIS3_EEEppEv
FN:827,_ZN9__gnu_cxx17__normal_iteratorIPKN7doctest12_GLOBAL__N_113JUnitReporter17JUnitTestCaseData16JUnitTestMessageESt6vectorIS5_SaIS5_EEEppEv
FNDA:0,_ZN9__gnu_cxx17__normal_iteratorIPKN7doctest12_GLOBAL__N_113JUnitReporter17JUnitTestCaseData16JUnitTestMessageESt6vectorIS5_SaIS5_EEEppEv
FN:839,_ZN9__gnu_cxx17__normal_iteratorIPPKN7doctest6detail8TestCaseESt6vectorIS5_SaIS5_EEEmmEv
FNDA:0,_ZN9__gnu_cxx17__normal_iteratorIPPKN7doctest6detail8TestCaseESt6vectorIS5_SaIS5_EEEmmEv
FN:859,_ZNK9__gnu_cxx17__normal_iteratorIPPN7doctest9IReporterESt6vectorIS3_SaIS3_EEEplEl
FNDA:0,_ZNK9__gnu_cxx17__normal_iteratorIPPN7doctest9IReporterESt6vectorIS3_SaIS3_EEEplEl
FN:859,_ZNK9__gnu_cxx17__normal_iteratorIPPKN7doctest6detail8TestCaseESt6vectorIS5_SaIS5_EEEplEl
FNDA:1,_ZNK9__gnu_cxx17__normal_iteratorIPPKN7doctest6detail8TestCaseESt6vectorIS5_SaIS5_EEEplEl
FN:867,_ZNK9__gnu_cxx17__normal_iteratorIPN7doctest12_GLOBAL__N_113JUnitReporter17JUnitTestCaseData13JUnitTestCaseESt6vectorIS5_SaIS5_EEEmiEl
FNDA:0,_ZNK9__gnu_cxx17__normal_iteratorIPN7doctest12_GLOBAL__N_113JUnitReporter17JUnitTestCaseData13JUnitTestCaseESt6vectorIS5_SaIS5_EEEmiEl
FN:867,_ZNK9__gnu_cxx17__normal_iteratorIPPKN7doctest12TestCaseDataESt6vectorIS4_SaIS4_EEEmiEl
FNDA:0,_ZNK9__gnu_cxx17__normal_iteratorIPPKN7doctest12TestCaseDataESt6vectorIS4_SaIS4_EEEmiEl
FN:867,_ZNK9__gnu_cxx17__normal_iteratorIPPKN7doctest6detail8TestCaseESt6vectorIS5_SaIS5_EEEmiEl
FNDA:1,_ZNK9__gnu_cxx17__normal_iteratorIPPKN7doctest6detail8TestCaseESt6vectorIS5_SaIS5_EEEmiEl
FN:867,_ZNK9__gnu_cxx17__normal_iteratorIPNSt7__cxx1112basic_stringIcSt11char_traitsIcESaIcEEESt6vectorIS6_SaIS6_EEEmiEl
FNDA:0,_ZNK9__gnu_cxx17__normal_iteratorIPNSt7__cxx1112basic_stringIcSt11char_traitsIcESaIcEEESt6vectorIS6_SaIS6_EEEmiEl
FN:867,_ZNK9__gnu_cxx17__normal_iteratorIPPN7doctest9IReporterESt6vectorIS3_SaIS3_EEEmiEl
FNDA:1,_ZNK9__gnu_cxx17__normal_iteratorIPPN7doctest9IReporterESt6vectorIS3_SaIS3_EEEmiEl
FN:867,_ZNK9__gnu_cxx17__normal_iteratorIPN7doctest12_GLOBAL__N_113JUnitReporter17JUnitTestCaseData16JUnitTestMessageESt6vectorIS5_SaIS5_EEEmiEl
FNDA:0,_ZNK9__gnu_cxx17__normal_iteratorIPN7doctest12_GLOBAL__N_113JUnitReporter17JUnitTestCaseData16JUnitTestMessageESt6vectorIS5_SaIS5_EEEmiEl
FN:867,_ZNK9__gnu_cxx17__normal_iteratorIPN7doctest6StringESt6vectorIS2_SaIS2_EEEmiEl
FNDA:1,_ZNK9__gnu_cxx17__normal_iteratorIPN7doctest6StringESt6vectorIS2_SaIS2_EEEmiEl
FN:867,_ZNK9__gnu_cxx17__normal_iteratorIPPN7doctest13IContextScopeESt6vectorIS3_SaIS3_EEEmiEl
FNDA:0,_ZNK9__gnu_cxx17__normal_iteratorIPPN7doctest13IContextScopeESt6vectorIS3_SaIS3_EEEmiEl
FN:871,_ZNK9__gnu_cxx17__normal_iteratorIPKN7doctest6StringESt6vectorIS2_SaIS2_EEE4baseEv
FNDA:36,_ZNK9__gnu_cxx17__normal_iteratorIPKN7doctest6StringESt6vectorIS2_SaIS2_EEE4baseEv
FN:871,_ZNK9__gnu_cxx17__normal_iteratorIPKN7doctest16SubcaseSignatureESt6vectorIS2_SaIS2_EEE4baseEv
FNDA:0,_ZNK9__gnu_cxx17__normal_iteratorIPKN7doctest16SubcaseSignatureESt6vectorIS2_SaIS2_EEE4baseEv
FN:871,_ZNK9__gnu_cxx17__normal_iteratorIPPKN7doctest6detail20IExceptionTranslatorESt6vectorIS5_SaIS5_EEE4baseEv
FNDA:0,_ZNK9__gnu_cxx17__normal_iteratorIPPKN7doctest6detail20IExceptionTranslatorESt6vectorIS5_SaIS5_EEE4baseEv
FN:871,_ZNK9__gnu_cxx17__normal_iteratorIPN7doctest6StringESt6vectorIS2_SaIS2_EEE4baseEv
FNDA:4,_ZNK9__gnu_cxx17__normal_iteratorIPN7doctest6StringESt6vectorIS2_SaIS2_EEE4baseEv
FN:871,_ZNK9__gnu_cxx17__normal_iteratorIPPN7doctest9IReporterESt6vectorIS3_SaIS3_EEE4baseEv
FNDA:28,_ZNK9__gnu_cxx17__normal_iteratorIPPN7doctest9IReporterESt6vectorIS3_SaIS3_EEE4baseEv
FN:871,_ZNK9__gnu_cxx17__normal_iteratorIPN7doctest12_GLOBAL__N_113JUnitReporter17JUnitTestCaseData13JUnitTestCaseESt6vectorIS5_SaIS5_EEE4baseEv
FNDA:0,_ZNK9__gnu_cxx17__normal_iteratorIPN7doctest12_GLOBAL__N_113JUnitReporter17JUnitTestCaseData13JUnitTestCaseESt6vectorIS5_SaIS5_EEE4baseEv
FN:871,_ZNK9__gnu_cxx17__normal_iteratorIPN7doctest16SubcaseSignatureESt6vectorIS2_SaIS2_EEE4baseEv
FNDA:0,_ZNK9__gnu_cxx17__normal_iteratorIPN7doctest16SubcaseSignatureESt6vectorIS2_SaIS2_EEE4baseEv
FN:871,_ZNK9__gnu_cxx17__normal_iteratorIPKN7doctest12_GLOBAL__N_113JUnitReporter17JUnitTestCaseData16JUnitTestMessageESt6vectorIS5_SaIS5_EEE4baseEv
FNDA:0,_ZNK9__gnu_cxx17__normal_iteratorIPKN7doctest12_GLOBAL__N_113JUnitReporter17JUnitTestCaseData16JUnitTestMessageESt6vectorIS5_SaIS5_EEE4baseEv
FN:871,_ZNK9__gnu_cxx17__normal_iteratorIPPKN7doctest12TestCaseDataESt6vectorIS4_SaIS4_EEE4baseEv
FNDA:0,_ZNK9__gnu_cxx17__normal_iteratorIPPKN7doctest12TestCaseDataESt6vectorIS4_SaIS4_EEE4baseEv
FN:871,_ZNK9__gnu_cxx17__normal_iteratorIPSt6vectorIN7doctest6StringESaIS3_EES1_IS5_SaIS5_EEE4baseEv
FNDA:0,_ZNK9__gnu_cxx17__normal_iteratorIPSt6vectorIN7doctest6StringESaIS3_EES1_IS5_SaIS5_EEE4baseEv
FN:871,_ZNK9__gnu_cxx17__normal_iteratorIPPKN7doctest6detail8TestCaseESt6vectorIS5_SaIS5_EEE4baseEv
FNDA:20,_ZNK9__gnu_cxx17__normal_iteratorIPPKN7doctest6detail8TestCaseESt6vectorIS5_SaIS5_EEE4baseEv
FN:871,_ZNK9__gnu_cxx17__normal_iteratorIPKPN7doctest9IReporterESt6vectorIS3_SaIS3_EEE4baseEv
FNDA:0,_ZNK9__gnu_cxx17__normal_iteratorIPKPN7doctest9IReporterESt6vectorIS3_SaIS3_EEE4baseEv
FN:871,_ZNK9__gnu_cxx17__normal_iteratorIPKNSt7__cxx1112basic_stringIcSt11char_traitsIcESaIcEEESt6vectorIS6_SaIS6_EEE4baseEv
FNDA:0,_ZNK9__gnu_cxx17__normal_iteratorIPKNSt7__cxx1112basic_stringIcSt11char_traitsIcESaIcEEESt6vectorIS6_SaIS6_EEE4baseEv
FN:871,_ZNK9__gnu_cxx17__normal_iteratorIPNSt7__cxx1112basic_stringIcSt11char_traitsIcESaIcEEESt6vectorIS6_SaIS6_EEE4baseEv
FNDA:0,_ZNK9__gnu_cxx17__normal_iteratorIPNSt7__cxx1112basic_stringIcSt11char_traitsIcESaIcEEESt6vectorIS6_SaIS6_EEE4baseEv
FN:871,_ZNK9__gnu_cxx17__normal_iteratorIPN7doctest12_GLOBAL__N_113JUnitReporter17JUnitTestCaseData16JUnitTestMessageESt6vectorIS5_SaIS5_EEE4baseEv
FNDA:0,_ZNK9__gnu_cxx17__normal_iteratorIPN7doctest12_GLOBAL__N_113JUnitReporter17JUnitTestCaseData16JUnitTestMessageESt6vectorIS5_SaIS5_EEE4baseEv
FN:871,_ZNK9__gnu_cxx17__normal_iteratorIPKPKN7doctest6detail8TestCaseESt6vectorIS5_SaIS5_EEE4baseEv
FNDA:2,_ZNK9__gnu_cxx17__normal_iteratorIPKPKN7doctest6detail8TestCaseESt6vectorIS5_SaIS5_EEE4baseEv
FN:871,_ZNK9__gnu_cxx17__normal_iteratorIPPN7doctest13IContextScopeESt6vectorIS3_SaIS3_EEE4baseEv
FNDA:0,_ZNK9__gnu_cxx17__normal_iteratorIPPN7doctest13IContextScopeESt6vectorIS3_SaIS3_EEE4baseEv
FN:893,_ZN9__gnu_cxxeqIPKN7doctest6StringESt6vectorIS2_SaIS2_EEEEbRKNS_17__normal_iteratorIT_T0_EESD_
FNDA:10,_ZN9__gnu_cxxeqIPKN7doctest6StringESt6vectorIS2_SaIS2_EEEEbRKNS_17__normal_iteratorIT_T0_EESD_
FN:893,_ZN9__gnu_cxxeqIPKPKN7doctest6detail8TestCaseESt6vectorIS5_SaIS5_EEEEbRKNS_17__normal_iteratorIT_T0_EESG_
FNDA:1,_ZN9__gnu_cxxeqIPKPKN7doctest6detail8TestCaseESt6vectorIS5_SaIS5_EEEEbRKNS_17__normal_iteratorIT_T0_EESG_
FN:893,_ZN9__gnu_cxxeqIPKNSt7__cxx1112basic_stringIcSt11char_traitsIcESaIcEEESt6vectorIS6_SaIS6_EEEEbRKNS_17__normal_iteratorIT_T0_EESH_
FNDA:0,_ZN9__gnu_cxxeqIPKNSt7__cxx1112basic_stringIcSt11char_traitsIcESaIcEEESt6vectorIS6_SaIS6_EEEEbRKNS_17__normal_iteratorIT_T0_EESH_
FN:893,_ZN9__gnu_cxxeqIPPKN7doctest6detail8TestCaseESt6vectorIS5_SaIS5_EEEEbRKNS_17__normal_iteratorIT_T0_EESF_
FNDA:1,_ZN9__gnu_cxxeqIPPKN7doctest6detail8TestCaseESt6vectorIS5_SaIS5_EEEEbRKNS_17__normal_iteratorIT_T0_EESF_
FN:893,_ZN9__gnu_cxxeqIPKPN7doctest9IReporterESt6vectorIS3_SaIS3_EEEEbRKNS_17__normal_iteratorIT_T0_EESE_
FNDA:0,_ZN9__gnu_cxxeqIPKPN7doctest9IReporterESt6vectorIS3_SaIS3_EEEEbRKNS_17__normal_iteratorIT_T0_EESE_
FN:893,_ZN9__gnu_cxxeqIPPKN7doctest6detail20IExceptionTranslatorESt6vectorIS5_SaIS5_EEEEbRKNS_17__normal_iteratorIT_T0_EESF_
FNDA:0,_ZN9__gnu_cxxeqIPPKN7doctest6detail20IExceptionTranslatorESt6vectorIS5_SaIS5_EEEEbRKNS_17__normal_iteratorIT_T0_EESF_
FN:907,_ZN9__gnu_cxxneIPPN7doctest9IReporterESt6vectorIS3_SaIS3_EEEEbRKNS_17__normal_iteratorIT_T0_EESD_
FNDA:12,_ZN9__gnu_cxxneIPPN7doctest9IReporterESt6vectorIS3_SaIS3_EEEEbRKNS_17__normal_iteratorIT_T0_EESD_
FN:907,_ZN9__gnu_cxxneIPKN7doctest12_GLOBAL__N_113JUnitReporter17JUnitTestCaseData16JUnitTestMessageESt6vectorIS5_SaIS5_EEEEbRKNS_17__normal_iteratorIT_T0_EESG_
FNDA:0,_ZN9__gnu_cxxneIPKN7doctest12_GLOBAL__N_113JUnitReporter17JUnitTestCaseData16JUnitTestMessageESt6vectorIS5_SaIS5_EEEEbRKNS_17__normal_iteratorIT_T0_EESG_
FN:907,_ZN9__gnu_cxxneIPN7doctest12_GLOBAL__N_113JUnitReporter17JUnitTestCaseData13JUnitTestCaseESt6vectorIS5_SaIS5_EEEEbRKNS_17__normal_iteratorIT_T0_EESF_
FNDA:0,_ZN9__gnu_cxxneIPN7doctest12_GLOBAL__N_113JUnitReporter17JUnitTestCaseData13JUnitTestCaseESt6vectorIS5_SaIS5_EEEEbRKNS_17__normal_iteratorIT_T0_EESF_
FN:907,_ZN9__gnu_cxxneIPPKN7doctest6detail20IExceptionTranslatorESt6vectorIS5_SaIS5_EEEEbRKNS_17__normal_iteratorIT_T0_EESF_
FNDA:0,_ZN9__gnu_cxxneIPPKN7doctest6detail20IExceptionTranslatorESt6vectorIS5_SaIS5_EEEEbRKNS_17__normal_iteratorIT_T0_EESF_
FN:907,_ZN9__gnu_cxxneIPN7doctest6StringESt6vectorIS2_SaIS2_EEEEbRKNS_17__normal_iteratorIT_T0_EESC_
FNDA:0,_ZN9__gnu_cxxneIPN7doctest6StringESt6vectorIS2_SaIS2_EEEEbRKNS_17__normal_iteratorIT_T0_EESC_
FN:907,_ZN9__gnu_cxxneIPKN7doctest6StringESt6vectorIS2_SaIS2_EEEEbRKNS_17__normal_iteratorIT_T0_EESD_
FNDA:8,_ZN9__gnu_cxxneIPKN7doctest6StringESt6vectorIS2_SaIS2_EEEEbRKNS_17__normal_iteratorIT_T0_EESD_
FN:907,_ZN9__gnu_cxxneIPPKN7doctest6detail8TestCaseESt6vectorIS5_SaIS5_EEEEbRKNS_17__normal_iteratorIT_T0_EESF_
FNDA:4,_ZN9__gnu_cxxneIPPKN7doctest6detail8TestCaseESt6vectorIS5_SaIS5_EEEEbRKNS_17__normal_iteratorIT_T0_EESF_
FN:907,_ZN9__gnu_cxxneIPKN7doctest16SubcaseSignatureESt6vectorIS2_SaIS2_EEEEbRKNS_17__normal_iteratorIT_T0_EESD_
FNDA:0,_ZN9__gnu_cxxneIPKN7doctest16SubcaseSignatureESt6vectorIS2_SaIS2_EEEEbRKNS_17__normal_iteratorIT_T0_EESD_
FN:907,_ZN9__gnu_cxxneIPSt6vectorIN7doctest6StringESaIS3_EES1_IS5_SaIS5_EEEEbRKNS_17__normal_iteratorIT_T0_EESE_
FNDA:0,_ZN9__gnu_cxxneIPSt6vectorIN7doctest6StringESaIS3_EES1_IS5_SaIS5_EEEEbRKNS_17__normal_iteratorIT_T0_EESE_
FN:922,_ZN9__gnu_cxxltIPPKN7doctest6detail8TestCaseESt6vectorIS5_SaIS5_EEEEbRKNS_17__normal_iteratorIT_T0_EESF_
FNDA:0,_ZN9__gnu_cxxltIPPKN7doctest6detail8TestCaseESt6vectorIS5_SaIS5_EEEEbRKNS_17__normal_iteratorIT_T0_EESF_
FN:989,_ZN9__gnu_cxxmiIPPKN7doctest6detail20IExceptionTranslatorESt6vectorIS5_SaIS5_EEEENS_17__normal_iteratorIT_T0_E15difference_typeERKSD_SG_
FNDA:0,_ZN9__gnu_cxxmiIPPKN7doctest6detail20IExceptionTranslatorESt6vectorIS5_SaIS5_EEEENS_17__normal_iteratorIT_T0_E15difference_typeERKSD_SG_
FN:989,_ZN9__gnu_cxxmiIPPKN7doctest12TestCaseDataESt6vectorIS4_SaIS4_EEEENS_17__normal_iteratorIT_T0_E15difference_typeERKSC_SF_
FNDA:0,_ZN9__gnu_cxxmiIPPKN7doctest12TestCaseDataESt6vectorIS4_SaIS4_EEEENS_17__normal_iteratorIT_T0_E15difference_typeERKSC_SF_
FN:989,_ZN9__gnu_cxxmiIPPN7doctest9IReporterESt6vectorIS3_SaIS3_EEEENS_17__normal_iteratorIT_T0_E15difference_typeERKSB_SE_
FNDA:1,_ZN9__gnu_cxxmiIPPN7doctest9IReporterESt6vectorIS3_SaIS3_EEEENS_17__normal_iteratorIT_T0_E15difference_typeERKSB_SE_
FN:989,_ZN9__gnu_cxxmiIPPN7doctest13IContextScopeESt6vectorIS3_SaIS3_EEEENS_17__normal_iteratorIT_T0_E15difference_typeERKSB_SE_
FNDA:0,_ZN9__gnu_cxxmiIPPN7doctest13IContextScopeESt6vectorIS3_SaIS3_EEEENS_17__normal_iteratorIT_T0_E15difference_typeERKSB_SE_
FN:989,_ZN9__gnu_cxxmiIPPKN7doctest6detail8TestCaseESt6vectorIS5_SaIS5_EEEENS_17__normal_iteratorIT_T0_E15difference_typeERKSD_SG_
FNDA:4,_ZN9__gnu_cxxmiIPPKN7doctest6detail8TestCaseESt6vectorIS5_SaIS5_EEEENS_17__normal_iteratorIT_T0_E15difference_typeERKSD_SG_
FN:989,_ZN9__gnu_cxxmiIPKPN7doctest9IReporterESt6vectorIS3_SaIS3_EEEENS_17__normal_iteratorIT_T0_E15difference_typeERKSC_SF_
FNDA:0,_ZN9__gnu_cxxmiIPKPN7doctest9IReporterESt6vectorIS3_SaIS3_EEEENS_17__normal_iteratorIT_T0_E15difference_typeERKSC_SF_
FN:989,_ZN9__gnu_cxxmiIPN7doctest6StringESt6vectorIS2_SaIS2_EEEENS_17__normal_iteratorIT_T0_E15difference_typeERKSA_SD_
FNDA:1,_ZN9__gnu_cxxmiIPN7doctest6StringESt6vectorIS2_SaIS2_EEEENS_17__normal_iteratorIT_T0_E15difference_typeERKSA_SD_
FN:989,_ZN9__gnu_cxxmiIPN7doctest12_GLOBAL__N_113JUnitReporter17JUnitTestCaseData16JUnitTestMessageESt6vectorIS5_SaIS5_EEEENS_17__normal_iteratorIT_T0_E15difference_typeERKSD_SG_
FNDA:0,_ZN9__gnu_cxxmiIPN7doctest12_GLOBAL__N_113JUnitReporter17JUnitTestCaseData16JUnitTestMessageESt6vectorIS5_SaIS5_EEEENS_17__normal_iteratorIT_T0_E15difference_typeERKSD_SG_
FN:989,_ZN9__gnu_cxxmiIPN7doctest12_GLOBAL__N_113JUnitReporter17JUnitTestCaseData13JUnitTestCaseESt6vectorIS5_SaIS5_EEEENS_17__normal_iteratorIT_T0_E15difference_typeERKSD_SG_
FNDA:0,_ZN9__gnu_cxxmiIPN7doctest12_GLOBAL__N_113JUnitReporter17JUnitTestCaseData13JUnitTestCaseESt6vectorIS5_SaIS5_EEEENS_17__normal_iteratorIT_T0_E15difference_typeERKSD_SG_
FN:989,_ZN9__gnu_cxxmiIPNSt7__cxx1112basic_stringIcSt11char_traitsIcESaIcEEESt6vectorIS6_SaIS6_EEEENS_17__normal_iteratorIT_T0_E15difference_typeERKSE_SH_
FNDA:0,_ZN9__gnu_cxxmiIPNSt7__cxx1112basic_stringIcSt11char_traitsIcESaIcEEESt6vectorIS6_SaIS6_EEEENS_17__normal_iteratorIT_T0_E15difference_typeERKSE_SH_
FN:989,_ZN9__gnu_cxxmiIPN7doctest16SubcaseSignatureESt6vectorIS2_SaIS2_EEEENS_17__normal_iteratorIT_T0_E15difference_typeERKSA_SD_
FNDA:0,_ZN9__gnu_cxxmiIPN7doctest16SubcaseSignatureESt6vectorIS2_SaIS2_EEEENS_17__normal_iteratorIT_T0_E15difference_typeERKSA_SD_
FN:1010,_ZSt12__niter_baseIPKN7doctest16SubcaseSignatureESt6vectorIS1_SaIS1_EEET_N9__gnu_cxx17__normal_iteratorIS7_T0_EE
FNDA:0,_ZSt12__niter_baseIPKN7doctest16SubcaseSignatureESt6vectorIS1_SaIS1_EEET_N9__gnu_cxx17__normal_iteratorIS7_T0_EE
FN:1010,_ZSt12__niter_baseIPPKN7doctest6detail8TestCaseESt6vectorIS4_SaIS4_EEET_N9__gnu_cxx17__normal_iteratorIS9_T0_EE
FNDA:0,_ZSt12__niter_baseIPPKN7doctest6detail8TestCaseESt6vectorIS4_SaIS4_EEET_N9__gnu_cxx17__normal_iteratorIS9_T0_EE
FN:1242,_ZSt32__make_move_if_noexcept_iteratorIN7doctest16SubcaseSignatureEPKS1_ET0_PT_
FNDA:0,_ZSt32__make_move_if_noexcept_iteratorIN7doctest16SubcaseSignatureEPKS1_ET0_PT_
FN:1242,_ZSt32__make_move_if_noexcept_iteratorIN7doctest6StringEPKS1_ET0_PT_
FNDA:4,_ZSt32__make_move_if_noexcept_iteratorIN7doctest6StringEPKS1_ET0_PT_
DA:806,0
DA:807,0
DA:806,32
DA:807,32
DA:806,16
DA:807,16
DA:806,0
DA:807,0
DA:806,4
DA:807,4
DA:806,0
DA:807,0
DA:806,0
DA:807,0
DA:806,0
DA:807,0
DA:806,9
DA:807,9
DA:806,0
DA:807,0
DA:806,0
DA:807,0
DA:806,0
DA:807,0
DA:806,0
DA:807,0
DA:806,2
DA:807,2
DA:806,0
DA:807,0
DA:806,0
DA:807,0
DA:806,0
DA:807,0
DA:811,0
DA:815,0
DA:819,0
DA:820,0
DA:819,0
DA:820,0
DA:819,0
DA:820,0
DA:819,0
DA:820,0
DA:819,0
DA:820,0
DA:819,2
DA:820,2
DA:819,0
DA:820,0
DA:819,0
DA:820,0
DA:819,0
DA:820,0
DA:819,1
DA:820,1
DA:819,0
DA:820,0
DA:819,7
DA:820,7
DA:819,3
DA:820,3
DA:827,0
DA:829,0
DA:830,0
DA:827,1
DA:829,1
DA:830,1
DA:827,0
DA:829,0
DA:830,0
DA:827,0
DA:829,0
DA:830,0
DA:827,0
DA:829,0
DA:830,0
DA:827,0
DA:829,0
DA:830,0
DA:827,0
DA:829,0
DA:830,0
DA:827,6
DA:829,6
DA:830,6
DA:827,2
DA:829,2
DA:830,2
DA:839,0
DA:841,0
DA:842,0
DA:859,1
DA:860,1
DA:859,0
DA:860,0
DA:867,0
DA:868,0
DA:867,1
DA:868,1
DA:867,1
DA:868,1
DA:867,1
DA:868,1
DA:867,0
DA:868,0
DA:867,0
DA:868,0
DA:867,0
DA:868,0
DA:867,0
DA:868,0
DA:871,0
DA:872,0
DA:871,36
DA:872,36
DA:871,28
DA:872,28
DA:871,0
DA:872,0
DA:871,4
DA:872,4
DA:871,0
DA:872,0
DA:871,0
DA:872,0
DA:871,0
DA:872,0
DA:871,20
DA:872,20
DA:871,0
DA:872,0
DA:871,0
DA:872,0
DA:871,0
DA:872,0
DA:871,0
DA:872,0
DA:871,2
DA:872,2
DA:871,0
DA:872,0
DA:871,0
DA:872,0
DA:871,0
DA:872,0
DA:893,1
DA:896,1
DA:893,0
DA:896,0
DA:893,1
DA:896,1
DA:893,0
DA:896,0
DA:893,10
DA:896,10
DA:893,0
DA:896,0
DA:907,0
DA:910,0
DA:907,4
DA:910,4
DA:907,0
DA:910,0
DA:907,0
DA:910,0
DA:907,0
DA:910,0
DA:907,0
DA:910,0
DA:907,0
DA:910,0
DA:907,12
DA:910,12
DA:907,8
DA:910,8
DA:922,0
DA:925,0
DA:989,0
DA:992,0
DA:989,1
DA:992,1
DA:989,0
DA:992,0
DA:989,4
DA:992,4
DA:989,0
DA:992,0
DA:989,1
DA:992,1
DA:989,0
DA:992,0
DA:989,0
DA:992,0
DA:989,0
DA:992,0
DA:989,0
DA:992,0
DA:989,0
DA:992,0
DA:1010,0
DA:1012,0
DA:1010,0
DA:1012,0
DA:1242,4
DA:1243,4
DA:1242,0
DA:1243,0
end_of_record
SF:/usr/include/c++/9/bits/char_traits.h
FN:100,_ZN9__gnu_cxx11char_traitsIcE2eqERKcS3_
FNDA:0,_ZN9__gnu_cxx11char_traitsIcE2eqERKcS3_
FN:161,_ZN9__gnu_cxx11char_traitsIcE6lengthEPKc
FNDA:0,_ZN9__gnu_cxx11char_traitsIcE6lengthEPKc
FN:329,_ZNSt11char_traitsIcE6lengthEPKc
FNDA:0,_ZNSt11char_traitsIcE6lengthEPKc
FN:361,_ZNSt11char_traitsIcE4copyEPcPKcm
FNDA:0,_ZNSt11char_traitsIcE4copyEPcPKcm
DA:100,0
DA:101,0
DA:161,0
DA:164,0
DA:165,0
DA:166,0
DA:167,0
DA:236,0
DA:329,0
DA:332,0
DA:333,0
DA:335,0
DA:361,0
DA:363,0
DA:364,0
DA:365,0
end_of_record
SF:/home/mburakowski/pobiektowe/zad5_3-mburakow/tests/doctest/doctest.h
FN:489,_ZNK7doctest6String9isOnStackEv
FNDA:379,_ZNK7doctest6String9isOnStackEv
FN:516,_ZNK7doctest6String5c_strEv
FNDA:19,_ZNK7doctest6String5c_strEv
FN:517,_ZN7doctest6String5c_strEv
FNDA:19,_ZN7doctest6String5c_strEv
FN:713,_ZN7doctest13IContextScopeC2Ev
FNDA:0,_ZN7doctest13IContextScopeC2Ev
FN:713,_ZN7doctest13IContextScopeD2Ev
FNDA:0,_ZN7doctest13IContextScopeD2Ev
FN:713,_ZN7doctest13IContextScopeD0Ev
FNDA:0,_ZN7doctest13IContextScopeD0Ev
FN:1440,_ZN7doctest6detail20IExceptionTranslatorD0Ev
FNDA:0,_ZN7doctest6detail20IExceptionTranslatorD0Ev
FN:1440,_ZN7doctest6detail20IExceptionTranslatorC2Ev
FNDA:0,_ZN7doctest6detail20IExceptionTranslatorC2Ev
FN:1440,_ZN7doctest6detail20IExceptionTranslatorD2Ev
FNDA:0,_ZN7doctest6detail20IExceptionTranslatorD2Ev
FN:1549,_ZN7doctest6detail14MessageBuilderD2Ev
FNDA:0,_ZN7doctest6detail14MessageBuilderD2Ev
FN:1710,_ZN7doctest9IReporterD2Ev
FNDA:1,_ZN7doctest9IReporterD2Ev
FN:1710,_ZN7doctest9IReporterD0Ev
FNDA:0,_ZN7doctest9IReporterD0Ev
FN:1766,_ZN7doctest6detail15reporterCreatorINS_12_GLOBAL__N_111XmlReporterEEEPNS_9IReporterERKNS_14ContextOptionsE
FNDA:0,_ZN7doctest6detail15reporterCreatorINS_12_GLOBAL__N_111XmlReporterEEEPNS_9IReporterERKNS_14ContextOptionsE
FN:1766,_ZN7doctest6detail15reporterCreatorINS_12_GLOBAL__N_115ConsoleReporterEEEPNS_9IReporterERKNS_14ContextOptionsE
FNDA:1,_ZN7doctest6detail15reporterCreatorINS_12_GLOBAL__N_115ConsoleReporterEEEPNS_9IReporterERKNS_14ContextOptionsE
FN:1766,_ZN7doctest6detail15reporterCreatorINS_12_GLOBAL__N_113JUnitReporterEEEPNS_9IReporterERKNS_14ContextOptionsE
FNDA:0,_ZN7doctest6detail15reporterCreatorINS_12_GLOBAL__N_113JUnitReporterEEEPNS_9IReporterERKNS_14ContextOptionsE
FN:1772,_ZN7doctest16registerReporterINS_12_GLOBAL__N_111XmlReporterEEEiPKcib
FNDA:1,_ZN7doctest16registerReporterINS_12_GLOBAL__N_111XmlReporterEEEiPKcib
FN:1772,_ZN7doctest16registerReporterINS_12_GLOBAL__N_113JUnitReporterEEEiPKcib
FNDA:1,_ZN7doctest16registerReporterINS_12_GLOBAL__N_113JUnitReporterEEEiPKcib
FN:1772,_ZN7doctest16registerReporterINS_12_GLOBAL__N_115ConsoleReporterEEEiPKcib
FNDA:1,_ZN7doctest16registerReporterINS_12_GLOBAL__N_115ConsoleReporterEEEiPKcib
FN:2867,_ZN7doctest12_GLOBAL__N_17stricmpEPKcS2_
FNDA:1,_ZN7doctest12_GLOBAL__N_17stricmpEPKcS2_
FN:2876,_ZN7doctest12_GLOBAL__N_110fpToStringIdEENS_6StringET_i
FNDA:0,_ZN7doctest12_GLOBAL__N_110fpToStringIdEENS_6StringET_i
FN:2876,_ZN7doctest12_GLOBAL__N_110fpToStringIfEENS_6StringET_i
FNDA:0,_ZN7doctest12_GLOBAL__N_110fpToStringIfEENS_6StringET_i
FN:2876,_ZN7doctest12_GLOBAL__N_110fpToStringIeEENS_6StringET_i
FNDA:0,_ZN7doctest12_GLOBAL__N_110fpToStringIeEENS_6StringET_i
FN:2897,_ZN7doctest12_GLOBAL__N_110Endianness5whichEv
FNDA:0,_ZN7doctest12_GLOBAL__N_110Endianness5whichEv
FN:2909,_ZN7doctest6detail9my_memcpyEPvPKvj
FNDA:0,_ZN7doctest6detail9my_memcpyEPvPKvj
FN:2911,_ZN7doctest6detail17rawMemoryToStringEPKvj
FNDA:0,_ZN7doctest6detail17rawMemoryToStringEPKvj
FN:2929,_ZN7doctest6detail9getTlsOssEv
FNDA:0,_ZN7doctest6detail9getTlsOssEv
FN:2936,_ZN7doctest6detail15getTlsOssResultEv
FNDA:0,_ZN7doctest6detail15getTlsOssResultEv
FN:2970,_ZN7doctest6detail15getCurrentTicksEv
FNDA:2,_ZN7doctest6detail15getCurrentTicksEv
FN:2979,_ZN7doctest6detail5Timer5startEv
FNDA:1,_ZN7doctest6detail5Timer5startEv
FN:2986,_ZNK7doctest6detail5Timer17getElapsedSecondsEv
FNDA:1,_ZNK7doctest6detail5Timer17getElapsedSecondsEv
FN:3022,_ZN7doctest6detail15MultiLaneAtomicIiEppEi
FNDA:1,_ZN7doctest6detail15MultiLaneAtomicIiEppEi
FN:3024,_ZN7doctest6detail15MultiLaneAtomicIiE9fetch_addEiSt12memory_order
FNDA:1,_ZN7doctest6detail15MultiLaneAtomicIiE9fetch_addEiSt12memory_order
FN:3032,_ZNK7doctest6detail15MultiLaneAtomicIiEcviEv
FNDA:4,_ZNK7doctest6detail15MultiLaneAtomicIiEcviEv
FN:3034,_ZNK7doctest6detail15MultiLaneAtomicIiE4loadESt12memory_order
FNDA:4,_ZNK7doctest6detail15MultiLaneAtomicIiE4loadESt12memory_order
FN:3042,_ZN7doctest6detail15MultiLaneAtomicIiEaSEi
FNDA:2,_ZN7doctest6detail15MultiLaneAtomicIiEaSEi
FN:3047,_ZN7doctest6detail15MultiLaneAtomicIiE5storeEiSt12memory_order
FNDA:2,_ZN7doctest6detail15MultiLaneAtomicIiE5storeEiSt12memory_order
FN:3068,_ZN7doctest6detail15MultiLaneAtomicIiE8myAtomicEv
FNDA:1,_ZN7doctest6detail15MultiLaneAtomicIiE8myAtomicEv
FN:3104,_ZN7doctest6detail12ContextState12resetRunDataEv
FNDA:1,_ZN7doctest6detail12ContextState12resetRunDataEv
FN:3115,_ZN7doctest6detail12ContextState20finalizeTestCaseDataEv
FNDA:1,_ZN7doctest6detail12ContextState20finalizeTestCaseDataEv
FN:3167,_ZN7doctest6String9setOnHeapEv
FNDA:3,_ZN7doctest6String9setOnHeapEv
FN:3168,_ZN7doctest6String7setLastEj
FNDA:202,_ZN7doctest6String7setLastEj
FN:3170,_ZN7doctest6String4copyERKS0_
FNDA:77,_ZN7doctest6String4copyERKS0_
FN:3183,_ZN7doctest6StringC2Ev
FNDA:188,_ZN7doctest6StringC2Ev
FN:3188,_ZN7doctest6StringD2Ev
FNDA:206,_ZN7doctest6StringD2Ev
FN:3194,_ZN7doctest6StringC2EPKc
FNDA:10,_ZN7doctest6StringC2EPKc
FN:3197,_ZN7doctest6StringC2EPKcj
FNDA:10,_ZN7doctest6StringC2EPKcj
FN:3213,_ZN7doctest6StringC2ERKS0_
FNDA:4,_ZN7doctest6StringC2ERKS0_
FN:3215,_ZN7doctest6StringaSERKS0_
FNDA:73,_ZN7doctest6StringaSERKS0_
FN:3226,_ZN7doctest6StringpLERKS0_
FNDA:0,_ZN7doctest6StringpLERKS0_
FN:3278,_ZNK7doctest6StringplERKS0_
FNDA:0,_ZNK7doctest6StringplERKS0_
FN:3280,_ZN7doctest6StringC2EOS0_
FNDA:4,_ZN7doctest6StringC2EOS0_
FN:3287,_ZN7doctest6StringaSEOS0_
FNDA:2,_ZN7doctest6StringaSEOS0_
FN:3299,_ZNK7doctest6StringixEj
FNDA:0,_ZNK7doctest6StringixEj
FN:3303,_ZN7doctest6StringixEj
FNDA:0,_ZN7doctest6StringixEj
FN:3310,_ZNK7doctest6String4sizeEv
FNDA:2,_ZNK7doctest6String4sizeEv
FN:3317,_ZNK7doctest6String8capacityEv
FNDA:0,_ZNK7doctest6String8capacityEv
FN:3323,_ZNK7doctest6String7compareEPKcb
FNDA:6,_ZNK7doctest6String7compareEPKcb
FN:3329,_ZNK7doctest6String7compareERKS0_b
FNDA:5,_ZNK7doctest6String7compareERKS0_b
FN:3334,_ZN7doctesteqERKNS_6StringES2_
FNDA:0,_ZN7doctesteqERKNS_6StringES2_
FN:3335,_ZN7doctestneERKNS_6StringES2_
FNDA:0,_ZN7doctestneERKNS_6StringES2_
FN:3336,_ZN7doctestltERKNS_6StringES2_
FNDA:5,_ZN7doctestltERKNS_6StringES2_
FN:3337,_ZN7doctestgtERKNS_6StringES2_
FNDA:0,_ZN7doctestgtERKNS_6StringES2_
FN:3338,_ZN7doctestleERKNS_6StringES2_
FNDA:0,_ZN7doctestleERKNS_6StringES2_
FN:3339,_ZN7doctestgeERKNS_6StringES2_
FNDA:0,_ZN7doctestgeERKNS_6StringES2_
FN:3342,_ZN7doctestlsERSoRKNS_6StringE
FNDA:0,_ZN7doctestlsERSoRKNS_6StringE
FN:3349,_ZN7doctest5ColorlsERSoNS0_4EnumE
FNDA:24,_ZN7doctest5ColorlsERSoNS0_4EnumE
FN:3356,_ZN7doctest12assertStringENS_10assertType4EnumE
FNDA:0,_ZN7doctest12assertStringENS_10assertType4EnumE
FN:3418,_ZN7doctest13failureStringENS_10assertType4EnumE
FNDA:0,_ZN7doctest13failureStringENS_10assertType4EnumE
FN:3431,_ZN7doctest20skipPathFromFilenameEPKc
FNDA:0,_ZN7doctest20skipPathFromFilenameEPKc
FN:3448,_ZNK7doctest16SubcaseSignatureltERKS0_
FNDA:0,_ZNK7doctest16SubcaseSignatureltERKS0_
FN:3464,_ZN7doctest8toStringEb
FNDA:0,_ZN7doctest8toStringEb
FN:3465,_ZN7doctest8toStringEf
FNDA:0,_ZN7doctest8toStringEf
FN:3466,_ZN7doctest8toStringEd
FNDA:0,_ZN7doctest8toStringEd
FN:3467,_ZN7doctest8toStringEe
FNDA:0,_ZN7doctest8toStringEe
FN:3476,_ZN7doctest8toStringEc
FNDA:0,_ZN7doctest8toStringEc
FN:3477,_ZN7doctest8toStringEa
FNDA:0,_ZN7doctest8toStringEa
FN:3478,_ZN7doctest8toStringEh
FNDA:0,_ZN7doctest8toStringEh
FN:3479,_ZN7doctest8toStringEs
FNDA:0,_ZN7doctest8toStringEs
FN:3480,_ZN7doctest8toStringEt
FNDA:0,_ZN7doctest8toStringEt
FN:3481,_ZN7doctest8toStringEi
FNDA:0,_ZN7doctest8toStringEi
FN:3482,_ZN7doctest8toStringEj
FNDA:0,_ZN7doctest8toStringEj
FN:3483,_ZN7doctest8toStringEl
FNDA:0,_ZN7doctest8toStringEl
FN:3484,_ZN7doctest8toStringEm
FNDA:0,_ZN7doctest8toStringEm
FN:3485,_ZN7doctest8toStringEx
FNDA:0,_ZN7doctest8toStringEx
FN:3486,_ZN7doctest8toStringEy
FNDA:0,_ZN7doctest8toStringEy
FN:3488,_ZN7doctest8toStringEDn
FNDA:0,_ZN7doctest8toStringEDn
FN:3495,_ZN7doctest6ApproxC2Ed
FNDA:1,_ZN7doctest6ApproxC2Ed
FN:3500,_ZNK7doctest6ApproxclEd
FNDA:0,_ZNK7doctest6ApproxclEd
FN:3507,_ZN7doctest6Approx7epsilonEd
FNDA:1,_ZN7doctest6Approx7epsilonEd
FN:3511,_ZN7doctest6Approx5scaleEd
FNDA:0,_ZN7doctest6Approx5scaleEd
FN:3516,_ZN7doctesteqEdRKNS_6ApproxE
FNDA:1,_ZN7doctesteqEdRKNS_6ApproxE
FN:3521,_ZN7doctesteqERKNS_6ApproxEd
FNDA:0,_ZN7doctesteqERKNS_6ApproxEd
FN:3522,_ZN7doctestneEdRKNS_6ApproxE
FNDA:0,_ZN7doctestneEdRKNS_6ApproxE
FN:3523,_ZN7doctestneERKNS_6ApproxEd
FNDA:1,_ZN7doctestneERKNS_6ApproxEd
FN:3524,_ZN7doctestleEdRKNS_6ApproxE
FNDA:0,_ZN7doctestleEdRKNS_6ApproxE
FN:3525,_ZN7doctestleERKNS_6ApproxEd
FNDA:0,_ZN7doctestleERKNS_6ApproxEd
FN:3526,_ZN7doctestgeEdRKNS_6ApproxE
FNDA:0,_ZN7doctestgeEdRKNS_6ApproxE
FN:3527,_ZN7doctestgeERKNS_6ApproxEd
FNDA:0,_ZN7doctestgeERKNS_6ApproxEd
FN:3528,_ZN7doctestltEdRKNS_6ApproxE
FNDA:0,_ZN7doctestltEdRKNS_6ApproxE
FN:3529,_ZN7doctestltERKNS_6ApproxEd
FNDA:0,_ZN7doctestltERKNS_6ApproxEd
FN:3530,_ZN7doctestgtEdRKNS_6ApproxE
FNDA:0,_ZN7doctestgtEdRKNS_6ApproxE
FN:3531,_ZN7doctestgtERKNS_6ApproxEd
FNDA:0,_ZN7doctestgtERKNS_6ApproxEd
FN:3533,_ZN7doctest8toStringERKNS_6ApproxE
FNDA:0,_ZN7doctest8toStringERKNS_6ApproxE
FN:3537,_ZN7doctest17getContextOptionsEv
FNDA:1,_ZN7doctest17getContextOptionsEv
FN:3579,_ZN28doctest_detail_test_suite_ns19getCurrentTestSuiteEv
FNDA:3,_ZN28doctest_detail_test_suite_ns19getCurrentTestSuiteEv
FN:3591,_ZN7doctest12_GLOBAL__N_112getReportersEv
FNDA:4,_ZN7doctest12_GLOBAL__N_112getReportersEv
FN:3595,_ZN7doctest12_GLOBAL__N_112getListenersEv
FNDA:1,_ZN7doctest12_GLOBAL__N_112getListenersEv
FN:3605,_ZN7doctest6detail18checkIfShouldThrowENS_10assertType4EnumE
FNDA:0,_ZN7doctest6detail18checkIfShouldThrowENS_10assertType4EnumE
FN:3619,_ZN7doctest6detail14throwExceptionEv
FNDA:0,_ZN7doctest6detail14throwExceptionEv
FN:3632,_ZN7doctest12_GLOBAL__N_17wildcmpEPKcS2_b
FNDA:3,_ZN7doctest12_GLOBAL__N_17wildcmpEPKcS2_b
FN:3678,_ZN7doctest12_GLOBAL__N_110matchesAnyEPKcRKSt6vectorINS_6StringESaIS4_EEbb
FNDA:9,_ZN7doctest12_GLOBAL__N_110matchesAnyEPKcRKSt6vectorINS_6StringESaIS4_EEbb
FN:3690,_ZN7doctest6detail7SubcaseC2ERKNS_6StringEPKci
FNDA:0,_ZN7doctest6detail7SubcaseC2ERKNS_6StringEPKci
FN:3727,_ZN7doctest6detail7SubcaseD2Ev
FNDA:0,_ZN7doctest6detail7SubcaseD2Ev
FN:3755,_ZNK7doctest6detail7SubcasecvbEv
FNDA:0,_ZNK7doctest6detail7SubcasecvbEv
FN:3757,_ZN7doctest6detail6ResultC2EbRKNS_6StringE
FNDA:1,_ZN7doctest6detail6ResultC2EbRKNS_6StringE
FN:3761,_ZN7doctest6detail20ExpressionDecomposerC2ENS_10assertType4EnumE
FNDA:1,_ZN7doctest6detail20ExpressionDecomposerC2ENS_10assertType4EnumE
FN:3764,_ZN7doctest6detail9TestSuitemlEPKc
FNDA:2,_ZN7doctest6detail9TestSuitemlEPKc
FN:3778,_ZN7doctest6detail8TestCaseC2EPFvvEPKcjRKNS0_9TestSuiteES5_i
FNDA:1,_ZN7doctest6detail8TestCaseC2EPFvvEPKcjRKNS0_9TestSuiteES5_i
FN:3798,_ZN7doctest6detail8TestCaseC2ERKS1_
FNDA:1,_ZN7doctest6detail8TestCaseC2ERKS1_
FN:3805,_ZN7doctest6detail8TestCaseaSERKS1_
FNDA:1,_ZN7doctest6detail8TestCaseaSERKS1_
FN:3819,_ZN7doctest6detail8TestCasemlEPKc
FNDA:1,_ZN7doctest6detail8TestCasemlEPKc
FN:3830,_ZNK7doctest6detail8TestCaseltERKS1_
FNDA:0,_ZNK7doctest6detail8TestCaseltERKS1_
FN:3846,_ZN7doctest12_GLOBAL__N_119fileOrderComparatorEPKNS_6detail8TestCaseES4_
FNDA:0,_ZN7doctest12_GLOBAL__N_119fileOrderComparatorEPKNS_6detail8TestCaseES4_
FN:3858,_ZN7doctest12_GLOBAL__N_120suiteOrderComparatorEPKNS_6detail8TestCaseES4_
FNDA:0,_ZN7doctest12_GLOBAL__N_120suiteOrderComparatorEPKNS_6detail8TestCaseES4_
FN:3866,_ZN7doctest12_GLOBAL__N_119nameOrderComparatorEPKNS_6detail8TestCaseES4_
FNDA:0,_ZN7doctest12_GLOBAL__N_119nameOrderComparatorEPKNS_6detail8TestCaseES4_
FN:3874,_ZN7doctest12_GLOBAL__N_118getRegisteredTestsEv
FNDA:2,_ZN7doctest12_GLOBAL__N_118getRegisteredTestsEv
FN:3903,_ZN7doctest12_GLOBAL__N_115color_to_streamERSoNS_5Color4EnumE
FNDA:24,_ZN7doctest12_GLOBAL__N_115color_to_streamERSoNS_5Color4EnumE
FN:3962,_ZN7doctest12_GLOBAL__N_123getExceptionTranslatorsEv
FNDA:0,_ZN7doctest12_GLOBAL__N_123getExceptionTranslatorsEv
FN:3967,_ZN7doctest12_GLOBAL__N_124translateActiveExceptionEv
FNDA:0,_ZN7doctest12_GLOBAL__N_124translateActiveExceptionEv
FN:3997,_ZN7doctest6detail7regTestERKNS0_8TestCaseE
FNDA:1,_ZN7doctest6detail7regTestERKNS0_8TestCaseE
FN:4003,_ZN7doctest6detail12setTestSuiteERKNS0_9TestSuiteE
FNDA:2,_ZN7doctest6detail12setTestSuiteERKNS0_9TestSuiteE
FN:4014,_ZN7doctest6detail10ErrnoGuardC2Ev
FNDA:0,_ZN7doctest6detail10ErrnoGuardC2Ev
FN:4015,_ZN7doctest6detail10ErrnoGuardD2Ev
FNDA:0,_ZN7doctest6detail10ErrnoGuardD2Ev
FN:4021,_ZN7doctest6detail16isDebuggerActiveEv
FNDA:0,_ZN7doctest6detail16isDebuggerActiveEv
FN:4066,_ZN7doctest6detail31registerExceptionTranslatorImplEPKNS0_20IExceptionTranslatorE
FNDA:0,_ZN7doctest6detail31registerExceptionTranslatorImplEPKNS0_20IExceptionTranslatorE
FN:4076,_ZN7doctest6detail8toStreamEPSob
FNDA:0,_ZN7doctest6detail8toStreamEPSob
FN:4077,_ZN7doctest6detail8toStreamEPSof
FNDA:0,_ZN7doctest6detail8toStreamEPSof
FN:4078,_ZN7doctest6detail8toStreamEPSod
FNDA:0,_ZN7doctest6detail8toStreamEPSod
FN:4079,_ZN7doctest6detail8toStreamEPSoe
FNDA:0,_ZN7doctest6detail8toStreamEPSoe
FN:4081,_ZN7doctest6detail8toStreamEPSoc
FNDA:0,_ZN7doctest6detail8toStreamEPSoc
FN:4082,_ZN7doctest6detail8toStreamEPSoa
FNDA:0,_ZN7doctest6detail8toStreamEPSoa
FN:4083,_ZN7doctest6detail8toStreamEPSoh
FNDA:0,_ZN7doctest6detail8toStreamEPSoh
FN:4084,_ZN7doctest6detail8toStreamEPSos
FNDA:0,_ZN7doctest6detail8toStreamEPSos
FN:4085,_ZN7doctest6detail8toStreamEPSot
FNDA:0,_ZN7doctest6detail8toStreamEPSot
FN:4086,_ZN7doctest6detail8toStreamEPSoi
FNDA:0,_ZN7doctest6detail8toStreamEPSoi
FN:4087,_ZN7doctest6detail8toStreamEPSoj
FNDA:0,_ZN7doctest6detail8toStreamEPSoj
FN:4088,_ZN7doctest6detail8toStreamEPSol
FNDA:0,_ZN7doctest6detail8toStreamEPSol
FN:4089,_ZN7doctest6detail8toStreamEPSom
FNDA:0,_ZN7doctest6detail8toStreamEPSom
FN:4090,_ZN7doctest6detail8toStreamEPSox
FNDA:0,_ZN7doctest6detail8toStreamEPSox
FN:4091,_ZN7doctest6detail8toStreamEPSoy
FNDA:0,_ZN7doctest6detail8toStreamEPSoy
FN:4095,_ZN7doctest6detail16ContextScopeBaseC2Ev
FNDA:0,_ZN7doctest6detail16ContextScopeBaseC2Ev
FN:4106,_ZN7doctest6detail16ContextScopeBase7destroyEv
FNDA:0,_ZN7doctest6detail16ContextScopeBase7destroyEv
FN:4301,_ZN7doctest12_GLOBAL__N_121FatalConditionHandler12handleSignalEi
FNDA:0,_ZN7doctest12_GLOBAL__N_121FatalConditionHandler12handleSignalEi
FN:4315,_ZN7doctest12_GLOBAL__N_121FatalConditionHandlerC2Ev
FNDA:1,_ZN7doctest12_GLOBAL__N_121FatalConditionHandlerC2Ev
FN:4330,_ZN7doctest12_GLOBAL__N_121FatalConditionHandlerD2Ev
FNDA:1,_ZN7doctest12_GLOBAL__N_121FatalConditionHandlerD2Ev
FN:4331,_ZN7doctest12_GLOBAL__N_121FatalConditionHandler5resetEv
FNDA:2,_ZN7doctest12_GLOBAL__N_121FatalConditionHandler5resetEv
FN:4364,_ZN7doctest12_GLOBAL__N_19addAssertENS_10assertType4EnumE
FNDA:1,_ZN7doctest12_GLOBAL__N_19addAssertENS_10assertType4EnumE
FN:4369,_ZN7doctest12_GLOBAL__N_115addFailedAssertENS_10assertType4EnumE
FNDA:0,_ZN7doctest12_GLOBAL__N_115addFailedAssertENS_10assertType4EnumE
FN:4375,_ZN7doctest12_GLOBAL__N_111reportFatalERKNSt7__cxx1112basic_stringIcSt11char_traitsIcESaIcEEE
FNDA:0,_ZN7doctest12_GLOBAL__N_111reportFatalERKNSt7__cxx1112basic_stringIcSt11char_traitsIcESaIcEEE
FN:4395,_ZN7doctest6detail13ResultBuilderC2ENS_10assertType4EnumEPKciS5_S5_S5_
FNDA:1,_ZN7doctest6detail13ResultBuilderC2ENS_10assertType4EnumEPKciS5_S5_S5_
FN:4413,_ZN7doctest6detail13ResultBuilder9setResultERKNS0_6ResultE
FNDA:1,_ZN7doctest6detail13ResultBuilder9setResultERKNS0_6ResultE
FN:4418,_ZN7doctest6detail13ResultBuilder18translateExceptionEv
FNDA:0,_ZN7doctest6detail13ResultBuilder18translateExceptionEv
FN:4423,_ZN7doctest6detail13ResultBuilder3logEv
FNDA:1,_ZN7doctest6detail13ResultBuilder3logEv
FN:4453,_ZNK7doctest6detail13ResultBuilder5reactEv
FNDA:1,_ZNK7doctest6detail13ResultBuilder5reactEv
FN:4458,_ZN7doctest6detail31failed_out_of_a_testing_contextERKNS_10AssertDataE
FNDA:0,_ZN7doctest6detail31failed_out_of_a_testing_contextERKNS_10AssertDataE
FN:4465,_ZN7doctest6detail13decomp_assertENS_10assertType4EnumEPKciS4_NS0_6ResultE
FNDA:0,_ZN7doctest6detail13decomp_assertENS_10assertType4EnumEPKciS4_NS0_6ResultE
FN:4478,_ZN7doctest6detail14MessageBuilderC2EPKciNS_10assertType4EnumE
FNDA:0,_ZN7doctest6detail14MessageBuilderC2EPKciNS_10assertType4EnumE
FN:4488,_ZN7doctest6detail14MessageBuilder3logEv
FNDA:0,_ZN7doctest6detail14MessageBuilder3logEv
FN:4504,_ZN7doctest6detail14MessageBuilder5reactEv
FNDA:0,_ZN7doctest6detail14MessageBuilder5reactEv
FN:4515,_ZN7doctest12_GLOBAL__N_115throw_exceptionISt11logic_errorEEvRKT_
FNDA:0,_ZN7doctest12_GLOBAL__N_115throw_exceptionISt11logic_errorEEvRKT_
FN:4568,_ZN7doctest12_GLOBAL__N_19XmlWriter13ScopedElement14writeAttributeINSt7__cxx1112basic_stringIcSt11char_traitsIcESaIcEEEEERS2_RKS9_RKT_
FNDA:0,_ZN7doctest12_GLOBAL__N_19XmlWriter13ScopedElement14writeAttributeINSt7__cxx1112basic_stringIcSt11char_traitsIcESaIcEEEEERS2_RKS9_RKT_
FN:4568,_ZN7doctest12_GLOBAL__N_19XmlWriter13ScopedElement14writeAttributeIbEERS2_RKNSt7__cxx1112basic_stringIcSt11char_traitsIcESaIcEEERKT_
FNDA:0,_ZN7doctest12_GLOBAL__N_19XmlWriter13ScopedElement14writeAttributeIbEERS2_RKNSt7__cxx1112basic_stringIcSt11char_traitsIcESaIcEEERKT_
FN:4568,_ZN7doctest12_GLOBAL__N_19XmlWriter13ScopedElement14writeAttributeIjEERS2_RKNSt7__cxx1112basic_stringIcSt11char_traitsIcESaIcEEERKT_
FNDA:0,_ZN7doctest12_GLOBAL__N_19XmlWriter13ScopedElement14writeAttributeIjEERS2_RKNSt7__cxx1112basic_stringIcSt11char_traitsIcESaIcEEERKT_
FN:4568,_ZN7doctest12_GLOBAL__N_19XmlWriter13ScopedElement14writeAttributeIPKcEERS2_RKNSt7__cxx1112basic_stringIcSt11char_traitsIcESaIcEEERKT_
FNDA:0,_ZN7doctest12_GLOBAL__N_19XmlWriter13ScopedElement14writeAttributeIPKcEERS2_RKNSt7__cxx1112basic_stringIcSt11char_traitsIcESaIcEEERKT_
FN:4568,_ZN7doctest12_GLOBAL__N_19XmlWriter13ScopedElement14writeAttributeINS_6StringEEERS2_RKNSt7__cxx1112basic_stringIcSt11char_traitsIcESaIcEEERKT_
FNDA:0,_ZN7doctest12_GLOBAL__N_19XmlWriter13ScopedElement14writeAttributeINS_6StringEEERS2_RKNSt7__cxx1112basic_stringIcSt11char_traitsIcESaIcEEERKT_
FN:4568,_ZN7doctest12_GLOBAL__N_19XmlWriter13ScopedElement14writeAttributeIiEERS2_RKNSt7__cxx1112basic_stringIcSt11char_traitsIcESaIcEEERKT_
FNDA:0,_ZN7doctest12_GLOBAL__N_19XmlWriter13ScopedElement14writeAttributeIiEERS2_RKNSt7__cxx1112basic_stringIcSt11char_traitsIcESaIcEEERKT_
FN:4596,_ZN7doctest12_GLOBAL__N_19XmlWriter14writeAttributeINS_6StringEEERS1_RKNSt7__cxx1112basic_stringIcSt11char_traitsIcESaIcEEERKT_
FNDA:0,_ZN7doctest12_GLOBAL__N_19XmlWriter14writeAttributeINS_6StringEEERS1_RKNSt7__cxx1112basic_stringIcSt11char_traitsIcESaIcEEERKT_
FN:4596,_ZN7doctest12_GLOBAL__N_19XmlWriter14writeAttributeIiEERS1_RKNSt7__cxx1112basic_stringIcSt11char_traitsIcESaIcEEERKT_
FNDA:0,_ZN7doctest12_GLOBAL__N_19XmlWriter14writeAttributeIiEERS1_RKNSt7__cxx1112basic_stringIcSt11char_traitsIcESaIcEEERKT_
FN:4596,_ZN7doctest12_GLOBAL__N_19XmlWriter14writeAttributeIdEERS1_RKNSt7__cxx1112basic_stringIcSt11char_traitsIcESaIcEEERKT_
FNDA:0,_ZN7doctest12_GLOBAL__N_19XmlWriter14writeAttributeIdEERS1_RKNSt7__cxx1112basic_stringIcSt11char_traitsIcESaIcEEERKT_
FN:4596,_ZN7doctest12_GLOBAL__N_19XmlWriter14writeAttributeIjEERS1_RKNSt7__cxx1112basic_stringIcSt11char_traitsIcESaIcEEERKT_
FNDA:0,_ZN7doctest12_GLOBAL__N_19XmlWriter14writeAttributeIjEERS1_RKNSt7__cxx1112basic_stringIcSt11char_traitsIcESaIcEEERKT_
FN:4634,_ZN7doctest12_GLOBAL__N_112_GLOBAL__N_113trailingBytesEh
FNDA:0,_ZN7doctest12_GLOBAL__N_112_GLOBAL__N_113trailingBytesEh
FN:4647,_ZN7doctest12_GLOBAL__N_112_GLOBAL__N_111headerValueEh
FNDA:0,_ZN7doctest12_GLOBAL__N_112_GLOBAL__N_111headerValueEh
FN:4660,_ZN7doctest12_GLOBAL__N_112_GLOBAL__N_113hexEscapeCharERSoh
FNDA:0,_ZN7doctest12_GLOBAL__N_112_GLOBAL__N_113hexEscapeCharERSoh
FN:4670,_ZN7doctest12_GLOBAL__N_19XmlEncodeC2ERKNSt7__cxx1112basic_stringIcSt11char_traitsIcESaIcEEENS1_7ForWhatE
FNDA:0,_ZN7doctest12_GLOBAL__N_19XmlEncodeC2ERKNSt7__cxx1112basic_stringIcSt11char_traitsIcESaIcEEENS1_7ForWhatE
FN:4675,_ZNK7doctest12_GLOBAL__N_19XmlEncode8encodeToERSo
FNDA:0,_ZNK7doctest12_GLOBAL__N_19XmlEncode8encodeToERSo
FN:4769,_ZN7doctest12_GLOBAL__N_1lsERSoRKNS0_9XmlEncodeE
FNDA:0,_ZN7doctest12_GLOBAL__N_1lsERSoRKNS0_9XmlEncodeE
FN:4774,_ZN7doctest12_GLOBAL__N_19XmlWriter13ScopedElementC2EPS1_
FNDA:0,_ZN7doctest12_GLOBAL__N_19XmlWriter13ScopedElementC2EPS1_
FN:4778,_ZN7doctest12_GLOBAL__N_19XmlWriter13ScopedElementC2EOS2_
FNDA:0,_ZN7doctest12_GLOBAL__N_19XmlWriter13ScopedElementC2EOS2_
FN:4782,_ZN7doctest12_GLOBAL__N_19XmlWriter13ScopedElementaSEOS2_
FNDA:0,_ZN7doctest12_GLOBAL__N_19XmlWriter13ScopedElementaSEOS2_
FN:4792,_ZN7doctest12_GLOBAL__N_19XmlWriter13ScopedElementD2Ev
FNDA:0,_ZN7doctest12_GLOBAL__N_19XmlWriter13ScopedElementD2Ev
FN:4797,_ZN7doctest12_GLOBAL__N_19XmlWriter13ScopedElement9writeTextERKNSt7__cxx1112basic_stringIcSt11char_traitsIcESaIcEEEb
FNDA:0,_ZN7doctest12_GLOBAL__N_19XmlWriter13ScopedElement9writeTextERKNSt7__cxx1112basic_stringIcSt11char_traitsIcESaIcEEEb
FN:4802,_ZN7doctest12_GLOBAL__N_19XmlWriterC2ERSo
FNDA:0,_ZN7doctest12_GLOBAL__N_19XmlWriterC2ERSo
FN:4807,_ZN7doctest12_GLOBAL__N_19XmlWriterD2Ev
FNDA:0,_ZN7doctest12_GLOBAL__N_19XmlWriterD2Ev
FN:4812,_ZN7doctest12_GLOBAL__N_19XmlWriter12startElementERKNSt7__cxx1112basic_stringIcSt11char_traitsIcESaIcEEE
FNDA:0,_ZN7doctest12_GLOBAL__N_19XmlWriter12startElementERKNSt7__cxx1112basic_stringIcSt11char_traitsIcESaIcEEE
FN:4822,_ZN7doctest12_GLOBAL__N_19XmlWriter13scopedElementERKNSt7__cxx1112basic_stringIcSt11char_traitsIcESaIcEEE
FNDA:0,_ZN7doctest12_GLOBAL__N_19XmlWriter13scopedElementERKNSt7__cxx1112basic_stringIcSt11char_traitsIcESaIcEEE
FN:4828,_ZN7doctest12_GLOBAL__N_19XmlWriter10endElementEv
FNDA:0,_ZN7doctest12_GLOBAL__N_19XmlWriter10endElementEv
FN:4843,_ZN7doctest12_GLOBAL__N_19XmlWriter14writeAttributeERKNSt7__cxx1112basic_stringIcSt11char_traitsIcESaIcEEES9_
FNDA:0,_ZN7doctest12_GLOBAL__N_19XmlWriter14writeAttributeERKNSt7__cxx1112basic_stringIcSt11char_traitsIcESaIcEEES9_
FN:4849,_ZN7doctest12_GLOBAL__N_19XmlWriter14writeAttributeERKNSt7__cxx1112basic_stringIcSt11char_traitsIcESaIcEEEPKc
FNDA:0,_ZN7doctest12_GLOBAL__N_19XmlWriter14writeAttributeERKNSt7__cxx1112basic_stringIcSt11char_traitsIcESaIcEEEPKc
FN:4855,_ZN7doctest12_GLOBAL__N_19XmlWriter14writeAttributeERKNSt7__cxx1112basic_stringIcSt11char_traitsIcESaIcEEEb
FNDA:0,_ZN7doctest12_GLOBAL__N_19XmlWriter14writeAttributeERKNSt7__cxx1112basic_stringIcSt11char_traitsIcESaIcEEEb
FN:4860,_ZN7doctest12_GLOBAL__N_19XmlWriter9writeTextERKNSt7__cxx1112basic_stringIcSt11char_traitsIcESaIcEEEb
FNDA:0,_ZN7doctest12_GLOBAL__N_19XmlWriter9writeTextERKNSt7__cxx1112basic_stringIcSt11char_traitsIcESaIcEEEb
FN:4889,_ZN7doctest12_GLOBAL__N_19XmlWriter15ensureTagClosedEv
FNDA:0,_ZN7doctest12_GLOBAL__N_19XmlWriter15ensureTagClosedEv
FN:4896,_ZN7doctest12_GLOBAL__N_19XmlWriter16writeDeclarationEv
FNDA:0,_ZN7doctest12_GLOBAL__N_19XmlWriter16writeDeclarationEv
FN:4900,_ZN7doctest12_GLOBAL__N_19XmlWriter18newlineIfNecessaryEv
FNDA:0,_ZN7doctest12_GLOBAL__N_19XmlWriter18newlineIfNecessaryEv
FN:4922,_ZN7doctest12_GLOBAL__N_111XmlReporterC2ERKNS_14ContextOptionsE
FNDA:0,_ZN7doctest12_GLOBAL__N_111XmlReporterC2ERKNS_14ContextOptionsE
FN:4926,_ZN7doctest12_GLOBAL__N_111XmlReporter12log_contextsEv
FNDA:0,_ZN7doctest12_GLOBAL__N_111XmlReporter12log_contextsEv
FN:4939,_ZNK7doctest12_GLOBAL__N_111XmlReporter4lineEj
FNDA:0,_ZNK7doctest12_GLOBAL__N_111XmlReporter4lineEj
FN:4941,_ZN7doctest12_GLOBAL__N_111XmlReporter20test_case_start_implERKNS_12TestCaseDataE
FNDA:0,_ZN7doctest12_GLOBAL__N_111XmlReporter20test_case_start_implERKNS_12TestCaseDataE
FN:4977,_ZN7doctest12_GLOBAL__N_111XmlReporter12report_queryERKNS_9QueryDataE
FNDA:0,_ZN7doctest12_GLOBAL__N_111XmlReporter12report_queryERKNS_9QueryDataE
FN:5008,_ZN7doctest12_GLOBAL__N_111XmlReporter14test_run_startEv
FNDA:0,_ZN7doctest12_GLOBAL__N_111XmlReporter14test_run_startEv
FN:5033,_ZN7doctest12_GLOBAL__N_111XmlReporter12test_run_endERKNS_12TestRunStatsE
FNDA:0,_ZN7doctest12_GLOBAL__N_111XmlReporter12test_run_endERKNS_12TestRunStatsE
FN:5052,_ZN7doctest12_GLOBAL__N_111XmlReporter15test_case_startERKNS_12TestCaseDataE
FNDA:0,_ZN7doctest12_GLOBAL__N_111XmlReporter15test_case_startERKNS_12TestCaseDataE
FN:5057,_ZN7doctest12_GLOBAL__N_111XmlReporter17test_case_reenterERKNS_12TestCaseDataE
FNDA:0,_ZN7doctest12_GLOBAL__N_111XmlReporter17test_case_reenterERKNS_12TestCaseDataE
FN:5059,_ZN7doctest12_GLOBAL__N_111XmlReporter13test_case_endERKNS_20CurrentTestCaseStatsE
FNDA:0,_ZN7doctest12_GLOBAL__N_111XmlReporter13test_case_endERKNS_20CurrentTestCaseStatsE
FN:5073,_ZN7doctest12_GLOBAL__N_111XmlReporter19test_case_exceptionERKNS_17TestCaseExceptionE
FNDA:0,_ZN7doctest12_GLOBAL__N_111XmlReporter19test_case_exceptionERKNS_17TestCaseExceptionE
FN:5081,_ZN7doctest12_GLOBAL__N_111XmlReporter13subcase_startERKNS_16SubcaseSignatureE
FNDA:0,_ZN7doctest12_GLOBAL__N_111XmlReporter13subcase_startERKNS_16SubcaseSignatureE
FN:5091,_ZN7doctest12_GLOBAL__N_111XmlReporter11subcase_endEv
FNDA:0,_ZN7doctest12_GLOBAL__N_111XmlReporter11subcase_endEv
FN:5093,_ZN7doctest12_GLOBAL__N_111XmlReporter10log_assertERKNS_10AssertDataE
FNDA:0,_ZN7doctest12_GLOBAL__N_111XmlReporter10log_assertERKNS_10AssertDataE
FN:5122,_ZN7doctest12_GLOBAL__N_111XmlReporter11log_messageERKNS_11MessageDataE
FNDA:0,_ZN7doctest12_GLOBAL__N_111XmlReporter11log_messageERKNS_11MessageDataE
FN:5137,_ZN7doctest12_GLOBAL__N_111XmlReporter17test_case_skippedERKNS_12TestCaseDataE
FNDA:0,_ZN7doctest12_GLOBAL__N_111XmlReporter17test_case_skippedERKNS_12TestCaseDataE
FN:5148,_ZN7doctest12_GLOBAL__N_129fulltext_log_assert_to_streamERSoRKNS_10AssertDataE
FNDA:0,_ZN7doctest12_GLOBAL__N_129fulltext_log_assert_to_streamERSoRKNS_10AssertDataE
FN:5212,_ZN7doctest12_GLOBAL__N_113JUnitReporter17JUnitTestCaseData19getCurrentTimestampEv
FNDA:0,_ZN7doctest12_GLOBAL__N_113JUnitReporter17JUnitTestCaseData19getCurrentTimestampEv
FN:5235,_ZN7doctest12_GLOBAL__N_113JUnitReporter17JUnitTestCaseData16JUnitTestMessageC2ERKNSt7__cxx1112basic_stringIcSt11char_traitsIcESaIcEEESB_SB_
FNDA:0,_ZN7doctest12_GLOBAL__N_113JUnitReporter17JUnitTestCaseData16JUnitTestMessageC2ERKNSt7__cxx1112basic_stringIcSt11char_traitsIcESaIcEEESB_SB_
FN:5238,_ZN7doctest12_GLOBAL__N_113JUnitReporter17JUnitTestCaseData16JUnitTestMessageC2ERKNSt7__cxx1112basic_stringIcSt11char_traitsIcESaIcEEESB_
FNDA:0,_ZN7doctest12_GLOBAL__N_113JUnitReporter17JUnitTestCaseData16JUnitTestMessageC2ERKNSt7__cxx1112basic_stringIcSt11char_traitsIcESaIcEEESB_
FN:5246,_ZN7doctest12_GLOBAL__N_113JUnitReporter17JUnitTestCaseData13JUnitTestCaseC2ERKNSt7__cxx1112basic_stringIcSt11char_traitsIcESaIcEEESB_
FNDA:0,_ZN7doctest12_GLOBAL__N_113JUnitReporter17JUnitTestCaseData13JUnitTestCaseC2ERKNSt7__cxx1112basic_stringIcSt11char_traitsIcESaIcEEESB_
FN:5254,_ZN7doctest12_GLOBAL__N_113JUnitReporter17JUnitTestCaseData3addERKNSt7__cxx1112basic_stringIcSt11char_traitsIcESaIcEEESA_
FNDA:0,_ZN7doctest12_GLOBAL__N_113JUnitReporter17JUnitTestCaseData3addERKNSt7__cxx1112basic_stringIcSt11char_traitsIcESaIcEEESA_
FN:5258,_ZN7doctest12_GLOBAL__N_113JUnitReporter17JUnitTestCaseData32appendSubcaseNamesToLastTestcaseESt6vectorINS_6StringESaIS4_EE
FNDA:0,_ZN7doctest12_GLOBAL__N_113JUnitReporter17JUnitTestCaseData32appendSubcaseNamesToLastTestcaseESt6vectorINS_6StringESaIS4_EE
FN:5264,_ZN7doctest12_GLOBAL__N_113JUnitReporter17JUnitTestCaseData7addTimeEd
FNDA:0,_ZN7doctest12_GLOBAL__N_113JUnitReporter17JUnitTestCaseData7addTimeEd
FN:5271,_ZN7doctest12_GLOBAL__N_113JUnitReporter17JUnitTestCaseData10addFailureERKNSt7__cxx1112basic_stringIcSt11char_traitsIcESaIcEEESA_SA_
FNDA:0,_ZN7doctest12_GLOBAL__N_113JUnitReporter17JUnitTestCaseData10addFailureERKNSt7__cxx1112basic_stringIcSt11char_traitsIcESaIcEEESA_SA_
FN:5276,_ZN7doctest12_GLOBAL__N_113JUnitReporter17JUnitTestCaseData8addErrorERKNSt7__cxx1112basic_stringIcSt11char_traitsIcESaIcEEESA_
FNDA:0,_ZN7doctest12_GLOBAL__N_113JUnitReporter17JUnitTestCaseData8addErrorERKNSt7__cxx1112basic_stringIcSt11char_traitsIcESaIcEEESA_
FN:5292,_ZN7doctest12_GLOBAL__N_113JUnitReporterC2ERKNS_14ContextOptionsE
FNDA:0,_ZN7doctest12_GLOBAL__N_113JUnitReporterC2ERKNS_14ContextOptionsE
FN:5296,_ZNK7doctest12_GLOBAL__N_113JUnitReporter4lineEj
FNDA:0,_ZNK7doctest12_GLOBAL__N_113JUnitReporter4lineEj
FN:5302,_ZN7doctest12_GLOBAL__N_113JUnitReporter12report_queryERKNS_9QueryDataE
FNDA:0,_ZN7doctest12_GLOBAL__N_113JUnitReporter12report_queryERKNS_9QueryDataE
FN:5304,_ZN7doctest12_GLOBAL__N_113JUnitReporter14test_run_startEv
FNDA:0,_ZN7doctest12_GLOBAL__N_113JUnitReporter14test_run_startEv
FN:5306,_ZN7doctest12_GLOBAL__N_113JUnitReporter12test_run_endERKNS_12TestRunStatsE
FNDA:0,_ZN7doctest12_GLOBAL__N_113JUnitReporter12test_run_endERKNS_12TestRunStatsE
FN:5353,_ZN7doctest12_GLOBAL__N_113JUnitReporter15test_case_startERKNS_12TestCaseDataE
FNDA:0,_ZN7doctest12_GLOBAL__N_113JUnitReporter15test_case_startERKNS_12TestCaseDataE
FN:5358,_ZN7doctest12_GLOBAL__N_113JUnitReporter17test_case_reenterERKNS_12TestCaseDataE
FNDA:0,_ZN7doctest12_GLOBAL__N_113JUnitReporter17test_case_reenterERKNS_12TestCaseDataE
FN:5367,_ZN7doctest12_GLOBAL__N_113JUnitReporter13test_case_endERKNS_20CurrentTestCaseStatsE
FNDA:0,_ZN7doctest12_GLOBAL__N_113JUnitReporter13test_case_endERKNS_20CurrentTestCaseStatsE
FN:5373,_ZN7doctest12_GLOBAL__N_113JUnitReporter19test_case_exceptionERKNS_17TestCaseExceptionE
FNDA:0,_ZN7doctest12_GLOBAL__N_113JUnitReporter19test_case_exceptionERKNS_17TestCaseExceptionE
FN:5378,_ZN7doctest12_GLOBAL__N_113JUnitReporter13subcase_startERKNS_16SubcaseSignatureE
FNDA:0,_ZN7doctest12_GLOBAL__N_113JUnitReporter13subcase_startERKNS_16SubcaseSignatureE
FN:5383,_ZN7doctest12_GLOBAL__N_113JUnitReporter11subcase_endEv
FNDA:0,_ZN7doctest12_GLOBAL__N_113JUnitReporter11subcase_endEv
FN:5385,_ZN7doctest12_GLOBAL__N_113JUnitReporter10log_assertERKNS_10AssertDataE
FNDA:0,_ZN7doctest12_GLOBAL__N_113JUnitReporter10log_assertERKNS_10AssertDataE
FN:5400,_ZN7doctest12_GLOBAL__N_113JUnitReporter11log_messageERKNS_11MessageDataE
FNDA:0,_ZN7doctest12_GLOBAL__N_113JUnitReporter11log_messageERKNS_11MessageDataE
FN:5402,_ZN7doctest12_GLOBAL__N_113JUnitReporter17test_case_skippedERKNS_12TestCaseDataE
FNDA:0,_ZN7doctest12_GLOBAL__N_113JUnitReporter17test_case_skippedERKNS_12TestCaseDataE
FN:5404,_ZN7doctest12_GLOBAL__N_113JUnitReporter12log_contextsERNSt7__cxx1119basic_ostringstreamIcSt11char_traitsIcESaIcEEE
FNDA:0,_ZN7doctest12_GLOBAL__N_113JUnitReporter12log_contextsERNSt7__cxx1119basic_ostringstreamIcSt11char_traitsIcESaIcEEE
FN:5424,_ZN7doctest12_GLOBAL__N_110WhitespaceC2Ei
FNDA:0,_ZN7doctest12_GLOBAL__N_110WhitespaceC2Ei
FN:5428,_ZN7doctest12_GLOBAL__N_1lsERSoRKNS0_10WhitespaceE
FNDA:0,_ZN7doctest12_GLOBAL__N_1lsERSoRKNS0_10WhitespaceE
FN:5446,_ZN7doctest12_GLOBAL__N_115ConsoleReporterC2ERKNS_14ContextOptionsE
FNDA:1,_ZN7doctest12_GLOBAL__N_115ConsoleReporterC2ERKNS_14ContextOptionsE
FN:5458,_ZN7doctest12_GLOBAL__N_115ConsoleReporter19separator_to_streamEv
FNDA:1,_ZN7doctest12_GLOBAL__N_115ConsoleReporter19separator_to_streamEv
FN:5464,_ZN7doctest12_GLOBAL__N_115ConsoleReporter22getSuccessOrFailStringEbNS_10assertType4EnumEPKc
FNDA:0,_ZN7doctest12_GLOBAL__N_115ConsoleReporter22getSuccessOrFailStringEbNS_10assertType4EnumEPKc
FN:5471,_ZN7doctest12_GLOBAL__N_115ConsoleReporter21getSuccessOrFailColorEbNS_10assertType4EnumE
FNDA:0,_ZN7doctest12_GLOBAL__N_115ConsoleReporter21getSuccessOrFailColorEbNS_10assertType4EnumE
FN:5476,_ZN7doctest12_GLOBAL__N_115ConsoleReporter34successOrFailColoredStringToStreamEbNS_10assertType4EnumEPKc
FNDA:0,_ZN7doctest12_GLOBAL__N_115ConsoleReporter34successOrFailColoredStringToStreamEbNS_10assertType4EnumEPKc
FN:5482,_ZN7doctest12_GLOBAL__N_115ConsoleReporter12log_contextsEv
FNDA:0,_ZN7doctest12_GLOBAL__N_115ConsoleReporter12log_contextsEv
FN:5499,_ZN7doctest12_GLOBAL__N_115ConsoleReporter19file_line_to_streamEPKciS3_
FNDA:0,_ZN7doctest12_GLOBAL__N_115ConsoleReporter19file_line_to_streamEPKciS3_
FN:5506,_ZN7doctest12_GLOBAL__N_115ConsoleReporter12logTestStartEv
FNDA:0,_ZN7doctest12_GLOBAL__N_115ConsoleReporter12logTestStartEv
FN:5538,_ZN7doctest12_GLOBAL__N_115ConsoleReporter12printVersionEv
FNDA:1,_ZN7doctest12_GLOBAL__N_115ConsoleReporter12printVersionEv
FN:5544,_ZN7doctest12_GLOBAL__N_115ConsoleReporter10printIntroEv
FNDA:1,_ZN7doctest12_GLOBAL__N_115ConsoleReporter10printIntroEv
FN:5550,_ZN7doctest12_GLOBAL__N_115ConsoleReporter9printHelpEv
FNDA:0,_ZN7doctest12_GLOBAL__N_115ConsoleReporter9printHelpEv
FN:5661,_ZN7doctest12_GLOBAL__N_115ConsoleReporter24printRegisteredReportersEv
FNDA:0,_ZN7doctest12_GLOBAL__N_115ConsoleReporter24printRegisteredReportersEv
FN:5663,_ZZN7doctest12_GLOBAL__N_115ConsoleReporter24printRegisteredReportersEvENKUlRKSt3mapISt4pairIiNS_6StringEEPFPNS_9IReporterERKNS_14ContextOptionsEESt4lessIS5_ESaIS3_IKS5_SC_EEEPKcE_clESK_SM_
FNDA:0,_ZZN7doctest12_GLOBAL__N_115ConsoleReporter24printRegisteredReportersEvENKUlRKSt3mapISt4pairIiNS_6StringEEPFPNS_9IReporterERKNS_14ContextOptionsEESt4lessIS5_ESaIS3_IKS5_SC_EEEPKcE_clESK_SM_
FN:5695,_ZN7doctest12_GLOBAL__N_115ConsoleReporter12report_queryERKNS_9QueryDataE
FNDA:0,_ZN7doctest12_GLOBAL__N_115ConsoleReporter12report_queryERKNS_9QueryDataE
FN:5736,_ZN7doctest12_GLOBAL__N_115ConsoleReporter14test_run_startEv
FNDA:1,_ZN7doctest12_GLOBAL__N_115ConsoleReporter14test_run_startEv
FN:5738,_ZN7doctest12_GLOBAL__N_115ConsoleReporter12test_run_endERKNS_12TestRunStatsE
FNDA:1,_ZN7doctest12_GLOBAL__N_115ConsoleReporter12test_run_endERKNS_12TestRunStatsE
FN:5770,_ZN7doctest12_GLOBAL__N_115ConsoleReporter15test_case_startERKNS_12TestCaseDataE
FNDA:1,_ZN7doctest12_GLOBAL__N_115ConsoleReporter15test_case_startERKNS_12TestCaseDataE
FN:5777,_ZN7doctest12_GLOBAL__N_115ConsoleReporter17test_case_reenterERKNS_12TestCaseDataE
FNDA:0,_ZN7doctest12_GLOBAL__N_115ConsoleReporter17test_case_reenterERKNS_12TestCaseDataE
FN:5781,_ZN7doctest12_GLOBAL__N_115ConsoleReporter13test_case_endERKNS_20CurrentTestCaseStatsE
FNDA:1,_ZN7doctest12_GLOBAL__N_115ConsoleReporter13test_case_endERKNS_20CurrentTestCaseStatsE
FN:5818,_ZN7doctest12_GLOBAL__N_115ConsoleReporter19test_case_exceptionERKNS_17TestCaseExceptionE
FNDA:0,_ZN7doctest12_GLOBAL__N_115ConsoleReporter19test_case_exceptionERKNS_17TestCaseExceptionE
FN:5842,_ZN7doctest12_GLOBAL__N_115ConsoleReporter13subcase_startERKNS_16SubcaseSignatureE
FNDA:0,_ZN7doctest12_GLOBAL__N_115ConsoleReporter13subcase_startERKNS_16SubcaseSignatureE
FN:5849,_ZN7doctest12_GLOBAL__N_115ConsoleReporter11subcase_endEv
FNDA:0,_ZN7doctest12_GLOBAL__N_115ConsoleReporter11subcase_endEv
FN:5855,_ZN7doctest12_GLOBAL__N_115ConsoleReporter10log_assertERKNS_10AssertDataE
FNDA:1,_ZN7doctest12_GLOBAL__N_115ConsoleReporter10log_assertERKNS_10AssertDataE
FN:5871,_ZN7doctest12_GLOBAL__N_115ConsoleReporter11log_messageERKNS_11MessageDataE
FNDA:0,_ZN7doctest12_GLOBAL__N_115ConsoleReporter11log_messageERKNS_11MessageDataE
FN:5887,_ZN7doctest12_GLOBAL__N_115ConsoleReporter17test_case_skippedERKNS_12TestCaseDataE
FNDA:0,_ZN7doctest12_GLOBAL__N_115ConsoleReporter17test_case_skippedERKNS_12TestCaseDataE
FN:5927,_ZN7doctest12_GLOBAL__N_115parseOptionImplEiPKPKcS2_PNS_6StringE
FNDA:234,_ZN7doctest12_GLOBAL__N_115parseOptionImplEiPKPKcS2_PNS_6StringE
FN:5962,_ZN7doctest12_GLOBAL__N_111parseOptionEiPKPKcS2_PNS_6StringERKS5_
FNDA:117,_ZN7doctest12_GLOBAL__N_111parseOptionEiPKPKcS2_PNS_6StringERKS5_
FN:5975,_ZN7doctest12_GLOBAL__N_19parseFlagEiPKPKcS2_
FNDA:49,_ZN7doctest12_GLOBAL__N_19parseFlagEiPKPKcS2_
FN:5980,_ZN7doctest12_GLOBAL__N_117parseCommaSepArgsEiPKPKcS2_RSt6vectorINS_6StringESaIS6_EE
FNDA:18,_ZN7doctest12_GLOBAL__N_117parseCommaSepArgsEiPKPKcS2_RSt6vectorINS_6StringESaIS6_EE
FN:6008,_ZN7doctest12_GLOBAL__N_114parseIntOptionEiPKPKcS2_NS0_10optionTypeERi
FNDA:46,_ZN7doctest12_GLOBAL__N_114parseIntOptionEiPKPKcS2_NS0_10optionTypeERi
FN:6043,_ZN7doctest7ContextC2EiPKPKc
FNDA:1,_ZN7doctest7ContextC2EiPKPKc
FN:6050,_ZN7doctest7ContextD2Ev
FNDA:1,_ZN7doctest7ContextD2Ev
FN:6056,_ZN7doctest7Context16applyCommandLineEiPKPKc
FNDA:0,_ZN7doctest7Context16applyCommandLineEiPKPKc
FN:6063,_ZN7doctest7Context9parseArgsEiPKPKcb
FNDA:1,_ZN7doctest7Context9parseArgsEiPKPKcb
FN:6186,_ZN7doctest7Context9addFilterEPKcS2_
FNDA:0,_ZN7doctest7Context9addFilterEPKcS2_
FN:6189,_ZN7doctest7Context12clearFiltersEv
FNDA:0,_ZN7doctest7Context12clearFiltersEv
FN:6195,_ZN7doctest7Context9setOptionEPKci
FNDA:0,_ZN7doctest7Context9setOptionEPKci
FN:6201,_ZN7doctest7Context9setOptionEPKcS2_
FNDA:0,_ZN7doctest7Context9setOptionEPKcS2_
FN:6208,_ZN7doctest7Context10shouldExitEv
FNDA:0,_ZN7doctest7Context10shouldExitEv
FN:6210,_ZN7doctest7Context36setAsDefaultForAssertsOutOfTestCasesEv
FNDA:0,_ZN7doctest7Context36setAsDefaultForAssertsOutOfTestCasesEv
FN:6212,_ZN7doctest7Context16setAssertHandlerEPFvRKNS_10AssertDataEE
FNDA:0,_ZN7doctest7Context16setAssertHandlerEPFvRKNS_10AssertDataEE
FN:6215,_ZN7doctest7Context3runEv
FNDA:1,_ZN7doctest7Context3runEv
FN:6238,_ZZN7doctest7Context3runEvENKUlvE_clEv
FNDA:1,_ZZN7doctest7Context3runEvENKUlvE_clEv
FN:6464,_ZZN7doctest7Context3runEvENKUlvE0_clEv
FNDA:1,_ZZN7doctest7Context3runEvENKUlvE0_clEv
FN:6473,_ZN7doctest9IReporter23get_num_active_contextsEv
FNDA:0,_ZN7doctest9IReporter23get_num_active_contextsEv
FN:6474,_ZN7doctest9IReporter19get_active_contextsEv
FNDA:0,_ZN7doctest9IReporter19get_active_contextsEv
FN:6478,_ZN7doctest9IReporter28get_num_stringified_contextsEv
FNDA:0,_ZN7doctest9IReporter28get_num_stringified_contextsEv
FN:6479,_ZN7doctest9IReporter24get_stringified_contextsEv
FNDA:0,_ZN7doctest9IReporter24get_stringified_contextsEv
FN:6484,_ZN7doctest6detail20registerReporterImplEPKciPFPNS_9IReporterERKNS_14ContextOptionsEEb
FNDA:3,_ZN7doctest6detail20registerReporterImplEPKciPFPNS_9IReporterERKNS_14ContextOptionsEEb
FN:6498,main
FNDA:1,main
DA:489,379
DA:516,19
DA:517,19
DA:518,19
DA:519,17
DA:520,2
DA:713,0
DA:713,0
DA:713,0
DA:1440,0
DA:1440,0
DA:1440,0
DA:1549,0
DA:1710,0
DA:1710,1
DA:1766,1
DA:1767,1
DA:1766,0
DA:1767,0
DA:1766,0
DA:1767,0
DA:1772,1
DA:1773,1
DA:1774,1
DA:1772,1
DA:1773,1
DA:1774,1
DA:1772,1
DA:1773,1
DA:1774,1
DA:2867,5
DA:2868,4
DA:2869,5
DA:2870,5
DA:2871,1
DA:2872,4
DA:2876,0
DA:2877,0
DA:2878,0
DA:2879,0
DA:2880,0
DA:2881,0
DA:2882,0
DA:2883,0
DA:2884,0
DA:2886,0
DA:2876,0
DA:2877,0
DA:2878,0
DA:2879,0
DA:2880,0
DA:2881,0
DA:2882,0
DA:2883,0
DA:2884,0
DA:2886,0
DA:2876,0
DA:2877,0
DA:2878,0
DA:2879,0
DA:2880,0
DA:2881,0
DA:2882,0
DA:2883,0
DA:2884,0
DA:2886,0
DA:2897,0
DA:2898,0
DA:2900,0
DA:2901,0
DA:2902,0
DA:2903,0
DA:2909,0
DA:2911,0
DA:2913,0
DA:2914,0
DA:2915,0
DA:2916,0
DA:2919,0
DA:2920,0
DA:2921,0
DA:2922,0
DA:2923,0
DA:2924,0
DA:2929,0
DA:2930,0
DA:2931,0
DA:2933,0
DA:2936,0
DA:2938,0
DA:2970,2
DA:2972,2
DA:2973,2
DA:2979,1
DA:2986,1
DA:3022,1
DA:3024,1
DA:3025,2
DA:3032,4
DA:3034,4
DA:3035,4
DA:3036,132
DA:3037,256
DA:3039,4
DA:3042,2
DA:3043,2
DA:3044,2
DA:3047,2
DA:3049,66
DA:3050,64
DA:3051,64
DA:3053,2
DA:3068,1
DA:3069,1
DA:3070,1
DA:3071,1
DA:3073,1
DA:3104,1
DA:3105,1
DA:3106,1
DA:3107,1
DA:3108,1
DA:3109,1
DA:3110,1
DA:3111,1
DA:3112,1
DA:3113,1
DA:3115,1
DA:3116,1
DA:3119,1
DA:3120,1
DA:3121,1
DA:3122,1
DA:3124,1
DA:3125,0
DA:3127,1
DA:3128,1
DA:3129,0
DA:3131,1
DA:3132,0
DA:3133,0
DA:3135,0
DA:3137,1
DA:3138,0
DA:3139,1
DA:3140,0
DA:3141,0
DA:3143,0
DA:3147,3
DA:3148,2
DA:3149,1
DA:3152,1
DA:3153,0
DA:3154,1
DA:3167,3
DA:3168,202
DA:3170,77
DA:3172,77
DA:3173,76
DA:3175,1
DA:3176,1
DA:3177,1
DA:3178,1
DA:3179,1
DA:3181,77
DA:3183,188
DA:3184,188
DA:3185,188
DA:3186,188
DA:3188,412
DA:3189,206
DA:3190,3
DA:3192,206
DA:3194,10
DA:3195,10
DA:3197,10
DA:3199,10
DA:3200,8
DA:3201,8
DA:3202,8
DA:3204,2
DA:3205,2
DA:3206,2
DA:3207,2
DA:3208,2
DA:3209,2
DA:3211,10
DA:3213,4
DA:3215,73
DA:3216,73
DA:3217,73
DA:3218,0
DA:3220,73
DA:3223,73
DA:3226,0
DA:3227,0
DA:3228,0
DA:3229,0
DA:3231,0
DA:3232,0
DA:3234,0
DA:3236,0
DA:3239,0
DA:3241,0
DA:3243,0
DA:3244,0
DA:3245,0
DA:3246,0
DA:3248,0
DA:3251,0
DA:3253,0
DA:3254,0
DA:3257,0
DA:3258,0
DA:3259,0
DA:3261,0
DA:3263,0
DA:3265,0
DA:3267,0
DA:3268,0
DA:3270,0
DA:3274,0
DA:3278,0
DA:3280,4
DA:3282,4
DA:3283,4
DA:3284,4
DA:3285,4
DA:3287,2
DA:3289,2
DA:3290,2
DA:3291,0
DA:3292,2
DA:3293,2
DA:3294,2
DA:3296,2
DA:3299,0
DA:3300,0
DA:3303,0
DA:3304,0
DA:3305,0
DA:3306,0
DA:3310,2
DA:3311,2
DA:3312,2
DA:3313,0
DA:3317,0
DA:3318,0
DA:3319,0
DA:3320,0
DA:3323,6
DA:3324,6
DA:3325,1
DA:3326,5
DA:3329,5
DA:3330,5
DA:3334,0
DA:3335,0
DA:3336,5
DA:3337,0
DA:3338,0
DA:3339,0
DA:3342,0
DA:3349,24
DA:3350,24
DA:3351,24
DA:3356,0
DA:3358,0
DA:3359,0
DA:3360,0
DA:3361,0
DA:3363,0
DA:3364,0
DA:3365,0
DA:3367,0
DA:3368,0
DA:3369,0
DA:3371,0
DA:3372,0
DA:3373,0
DA:3375,0
DA:3376,0
DA:3377,0
DA:3379,0
DA:3380,0
DA:3381,0
DA:3383,0
DA:3384,0
DA:3385,0
DA:3387,0
DA:3388,0
DA:3389,0
DA:3390,0
DA:3391,0
DA:3392,0
DA:3393,0
DA:3394,0
DA:3395,0
DA:3396,0
DA:3397,0
DA:3398,0
DA:3399,0
DA:3400,0
DA:3401,0
DA:3402,0
DA:3403,0
DA:3404,0
DA:3406,0
DA:3407,0
DA:3408,0
DA:3409,0
DA:3410,0
DA:3411,0
DA:3414,0
DA:3418,0
DA:3419,0
DA:3420,0
DA:3421,0
DA:3422,0
DA:3423,0
DA:3424,0
DA:3425,0
DA:3431,0
DA:3433,0
DA:3434,0
DA:3435,0
DA:3436,0
DA:3437,0
DA:3438,0
DA:3439,0
DA:3443,0
DA:3448,0
DA:3449,0
DA:3450,0
DA:3451,0
DA:3452,0
DA:3453,0
DA:3464,0
DA:3465,0
DA:3466,0
DA:3467,0
DA:3476,0
DA:3477,0
DA:3478,0
DA:3479,0
DA:3480,0
DA:3481,0
DA:3482,0
DA:3483,0
DA:3484,0
DA:3485,0
DA:3486,0
DA:3488,0
DA:3495,1
DA:3496,1
DA:3498,1
DA:3500,0
DA:3501,0
DA:3502,0
DA:3503,0
DA:3504,0
DA:3507,1
DA:3508,1
DA:3509,1
DA:3511,0
DA:3512,0
DA:3513,0
DA:3516,1
DA:3518,1
DA:3519,1
DA:3521,0
DA:3522,0
DA:3523,1
DA:3524,0
DA:3525,0
DA:3526,0
DA:3527,0
DA:3528,0
DA:3529,0
DA:3530,0
DA:3531,0
DA:3533,0
DA:3535,0
DA:3537,1
DA:3579,3
DA:3581,3
DA:3591,4
DA:3592,4
DA:3593,4
DA:3595,1
DA:3596,1
DA:3597,1
DA:3605,0
DA:3606,0
DA:3607,0
DA:3609,0
DA:3610,0
DA:3611,0
DA:3612,0
DA:3613,0
DA:3615,0
DA:3619,0
DA:3620,0
DA:3621,0
DA:3632,3
DA:3633,3
DA:3634,3
DA:3636,10
DA:3637,9
DA:3638,2
DA:3639,2
DA:3641,7
DA:3642,7
DA:3645,1
DA:3646,0
DA:3647,0
DA:3648,0
DA:3650,0
DA:3651,0
DA:3652,0
DA:3653,0
DA:3654,0
DA:3655,0
DA:3657,0
DA:3658,0
DA:3662,1
DA:3663,0
DA:3665,1
DA:3678,9
DA:3680,9
DA:3681,3
DA:3682,8
DA:3683,3
DA:3684,1
DA:3685,5
DA:3690,0
DA:3691,0
DA:3692,0
DA:3695,0
DA:3696,0
DA:3697,0
DA:3698,0
DA:3699,0
DA:3703,0
DA:3704,0
DA:3705,0
DA:3710,0
DA:3711,0
DA:3713,0
DA:3714,0
DA:3717,0
DA:3718,0
DA:3720,0
DA:3727,0
DA:3728,0
DA:3730,0
DA:3731,0
DA:3732,0
DA:3735,0
DA:3739,0
DA:3740,0
DA:3745,0
DA:3747,0
DA:3749,0
DA:3755,0
DA:3757,1
DA:3759,1
DA:3761,1
DA:3762,1
DA:3764,2
DA:3765,2
DA:3767,2
DA:3768,2
DA:3769,2
DA:3770,2
DA:3771,2
DA:3772,2
DA:3773,2
DA:3774,2
DA:3775,2
DA:3778,1
DA:3779,1
DA:3780,1
DA:3781,1
DA:3782,1
DA:3783,1
DA:3784,1
DA:3785,1
DA:3786,1
DA:3787,1
DA:3788,1
DA:3789,1
DA:3790,1
DA:3791,1
DA:3793,1
DA:3794,1
DA:3795,1
DA:3796,1
DA:3798,1
DA:3799,1
DA:3800,1
DA:3801,1
DA:3805,1
DA:3806,1
DA:3808,1
DA:3809,1
DA:3810,1
DA:3811,1
DA:3813,1
DA:3814,0
DA:3815,1
DA:3819,1
DA:3820,1
DA:3822,1
DA:3823,0
DA:3825,0
DA:3827,1
DA:3830,0
DA:3832,0
DA:3833,0
DA:3834,0
DA:3835,0
DA:3836,0
DA:3837,0
DA:3838,0
DA:3839,0
DA:3840,0
DA:3846,0
DA:3849,0
DA:3850,0
DA:3851,0
DA:3852,0
DA:3853,0
DA:3854,0
DA:3858,0
DA:3859,0
DA:3860,0
DA:3861,0
DA:3862,0
DA:3866,0
DA:3867,0
DA:3868,0
DA:3869,0
DA:3870,0
DA:3874,2
DA:3875,2
DA:3876,2
DA:3903,24
DA:3907,48
DA:3908,24
DA:3909,0
DA:3911,24
DA:3913,24
DA:3914,0
DA:3915,3
DA:3916,0
DA:3917,5
DA:3918,1
DA:3919,0
DA:3920,0
DA:3921,0
DA:3922,0
DA:3923,0
DA:3924,15
DA:3927,15
DA:3930,24
DA:3962,0
DA:3963,0
DA:3964,0
DA:3967,0
DA:3969,0
DA:3970,0
DA:3971,0
DA:3972,0
DA:3973,0
DA:3977,0
DA:3978,0
DA:3979,0
DA:3980,0
DA:3981,0
DA:3982,0
DA:3983,0
DA:3984,0
DA:3985,0
DA:3997,1
DA:3998,1
DA:3999,1
DA:4003,2
DA:4004,2
DA:4005,2
DA:4014,0
DA:4015,0
DA:4021,0
DA:4022,0
DA:4023,0
DA:4024,0
DA:4026,0
DA:4027,0
DA:4030,0
DA:4066,0
DA:4067,0
DA:4068,0
DA:4069,0
DA:4070,0
DA:4076,0
DA:4077,0
DA:4078,0
DA:4079,0
DA:4081,0
DA:4082,0
DA:4083,0
DA:4084,0
DA:4085,0
DA:4086,0
DA:4087,0
DA:4088,0
DA:4089,0
DA:4090,0
DA:4091,0
DA:4095,0
DA:4096,0
DA:4097,0
DA:4106,0
DA:4108,0
DA:4112,0
DA:4113,0
DA:4114,0
DA:4116,0
DA:4117,0
DA:4301,0
DA:4302,0
DA:4303,0
DA:4304,0
DA:4305,0
DA:4306,0
DA:4307,0
DA:4310,0
DA:4311,0
DA:4312,0
DA:4313,0
DA:4315,1
DA:4316,1
DA:4318,1
DA:4319,1
DA:4320,1
DA:4321,1
DA:4322,1
DA:4323,1
DA:4324,1
DA:4325,7
DA:4326,6
DA:4328,1
DA:4330,1
DA:4331,2
DA:4332,2
DA:4334,7
DA:4335,6
DA:4338,1
DA:4339,1
DA:4341,2
DA:4364,1
DA:4365,1
DA:4366,1
DA:4367,1
DA:4369,0
DA:4370,0
DA:4371,0
DA:4372,0
DA:4375,0
DA:4376,0
DA:4378,0
DA:4380,0
DA:4381,0
DA:4382,0
DA:4385,0
DA:4387,0
DA:4389,0
DA:4390,0
DA:4395,1
DA:4396,1
DA:4397,1
DA:4398,1
DA:4399,1
DA:4400,1
DA:4401,1
DA:4402,1
DA:4403,1
DA:4404,1
DA:4405,1
DA:4406,1
DA:4411,1
DA:4413,1
DA:4414,1
DA:4415,1
DA:4416,1
DA:4418,0
DA:4419,0
DA:4420,0
DA:4421,0
DA:4423,1
DA:4424,1
DA:4425,0
DA:4426,1
DA:4427,0
DA:4428,1
DA:4429,0
DA:4430,1
DA:4431,0
DA:4432,1
DA:4433,0
DA:4436,1
DA:4437,0
DA:4439,1
DA:4440,1
DA:4441,2
DA:4443,1
DA:4444,0
DA:4445,0
DA:4446,0
DA:4449,1
DA:4450,1
DA:4453,1
DA:4454,1
DA:4455,0
DA:4456,1
DA:4458,0
DA:4459,0
DA:4460,0
DA:4462,0
DA:4463,0
DA:4465,0
DA:4467,0
DA:4473,0
DA:4474,0
DA:4478,0
DA:4479,0
DA:4480,0
DA:4481,0
DA:4482,0
DA:4483,0
DA:4488,0
DA:4489,0
DA:4490,0
DA:4492,0
DA:4495,0
DA:4496,0
DA:4497,0
DA:4500,0
DA:4501,0
DA:4504,0
DA:4505,0
DA:4506,0
DA:4507,0
DA:4515,0
DA:4517,0
DA:4568,0
DA:4569,0
DA:4570,0
DA:4568,0
DA:4569,0
DA:4570,0
DA:4568,0
DA:4569,0
DA:4570,0
DA:4568,0
DA:4569,0
DA:4570,0
DA:4568,0
DA:4569,0
DA:4570,0
DA:4568,0
DA:4569,0
DA:4570,0
DA:4596,0
DA:4597,0
DA:4598,0
DA:4599,0
DA:4596,0
DA:4597,0
DA:4598,0
DA:4599,0
DA:4596,0
DA:4597,0
DA:4598,0
DA:4599,0
DA:4596,0
DA:4597,0
DA:4598,0
DA:4599,0
DA:4634,0
DA:4635,0
DA:4636,0
DA:4638,0
DA:4639,0
DA:4641,0
DA:4642,0
DA:4644,0
DA:4647,0
DA:4648,0
DA:4649,0
DA:4651,0
DA:4652,0
DA:4654,0
DA:4655,0
DA:4657,0
DA:4660,0
DA:4661,0
DA:4662,0
DA:4663,0
DA:4664,0
DA:4665,0
DA:4666,0
DA:4670,0
DA:4672,0
DA:4673,0
DA:4675,0
DA:4679,0
DA:4680,0
DA:4681,0
DA:4682,0
DA:4683,0
DA:4685,0
DA:4687,0
DA:4688,0
DA:4690,0
DA:4691,0
DA:4693,0
DA:4694,0
DA:4695,0
DA:4697,0
DA:4698,0
DA:4700,0
DA:4705,0
DA:4706,0
DA:4707,0
DA:4711,0
DA:4712,0
DA:4713,0
DA:4722,0
DA:4724,0
DA:4725,0
DA:4728,0
DA:4730,0
DA:4731,0
DA:4732,0
DA:4737,0
DA:4738,0
DA:4739,0
DA:4740,0
DA:4741,0
DA:4742,0
DA:4745,0
DA:4747,0
DA:4749,0
DA:4750,0
DA:4751,0
DA:4755,0
DA:4756,0
DA:4760,0
DA:4761,0
DA:4763,0
DA:4764,0
DA:4767,0
DA:4769,0
DA:4770,0
DA:4771,0
DA:4774,0
DA:4775,0
DA:4776,0
DA:4778,0
DA:4779,0
DA:4780,0
DA:4781,0
DA:4782,0
DA:4783,0
DA:4784,0
DA:4786,0
DA:4787,0
DA:4788,0
DA:4792,0
DA:4793,0
DA:4794,0
DA:4795,0
DA:4797,0
DA:4798,0
DA:4799,0
DA:4802,0
DA:4804,0
DA:4805,0
DA:4807,0
DA:4808,0
DA:4809,0
DA:4810,0
DA:4812,0
DA:4813,0
DA:4814,0
DA:4815,0
DA:4816,0
DA:4817,0
DA:4818,0
DA:4819,0
DA:4822,0
DA:4823,0
DA:4824,0
DA:4825,0
DA:4828,0
DA:4829,0
DA:4830,0
DA:4831,0
DA:4832,0
DA:4833,0
DA:4836,0
DA:4838,0
DA:4839,0
DA:4840,0
DA:4843,0
DA:4844,0
DA:4845,0
DA:4846,0
DA:4849,0
DA:4850,0
DA:4851,0
DA:4852,0
DA:4855,0
DA:4856,0
DA:4857,0
DA:4860,0
DA:4861,0
DA:4862,0
DA:4863,0
DA:4864,0
DA:4865,0
DA:4866,0
DA:4867,0
DA:4869,0
DA:4889,0
DA:4890,0
DA:4891,0
DA:4892,0
DA:4894,0
DA:4896,0
DA:4897,0
DA:4898,0
DA:4900,0
DA:4901,0
DA:4902,0
DA:4903,0
DA:4905,0
DA:4922,0
DA:4923,0
DA:4924,0
DA:4926,0
DA:4927,0
DA:4928,0
DA:4929,0
DA:4930,0
DA:4931,0
DA:4932,0
DA:4933,0
DA:4934,0
DA:4937,0
DA:4939,0
DA:4941,0
DA:4942,0
DA:4943,0
DA:4944,0
DA:4945,0
DA:4946,0
DA:4950,0
DA:4953,0
DA:4954,0
DA:4955,0
DA:4958,0
DA:4959,0
DA:4960,0
DA:4961,0
DA:4962,0
DA:4963,0
DA:4965,0
DA:4966,0
DA:4967,0
DA:4968,0
DA:4969,0
DA:4970,0
DA:4971,0
DA:4977,0
DA:4978,0
DA:4979,0
DA:4980,0
DA:4981,0
DA:4982,0
DA:4983,0
DA:4984,0
DA:4985,0
DA:4986,0
DA:4987,0
DA:4988,0
DA:4989,0
DA:4990,0
DA:4991,0
DA:4992,0
DA:4993,0
DA:4995,0
DA:4996,0
DA:4997,0
DA:4998,0
DA:4999,0
DA:5000,0
DA:5001,0
DA:5002,0
DA:5003,0
DA:5005,0
DA:5006,0
DA:5008,0
DA:5010,0
DA:5016,0
DA:5017,0
DA:5018,0
DA:5021,0
DA:5022,0
DA:5023,0
DA:5024,0
DA:5025,0
DA:5026,0
DA:5027,0
DA:5028,0
DA:5029,0
DA:5030,0
DA:5031,0
DA:5033,0
DA:5034,0
DA:5035,0
DA:5037,0
DA:5038,0
DA:5039,0
DA:5041,0
DA:5043,0
DA:5044,0
DA:5045,0
DA:5046,0
DA:5047,0
DA:5049,0
DA:5050,0
DA:5052,0
DA:5053,0
DA:5054,0
DA:5055,0
DA:5057,0
DA:5059,0
DA:5060,0
DA:5062,0
DA:5063,0
DA:5064,0
DA:5065,0
DA:5066,0
DA:5067,0
DA:5068,0
DA:5070,0
DA:5071,0
DA:5073,0
DA:5074,0
DA:5076,0
DA:5077,0
DA:5078,0
DA:5079,0
DA:5081,0
DA:5082,0
DA:5084,0
DA:5085,0
DA:5086,0
DA:5087,0
DA:5088,0
DA:5089,0
DA:5091,0
DA:5093,0
DA:5094,0
DA:5095,0
DA:5097,0
DA:5099,0
DA:5100,0
DA:5101,0
DA:5102,0
DA:5103,0
DA:5105,0
DA:5107,0
DA:5108,0
DA:5110,0
DA:5111,0
DA:5112,0
DA:5113,0
DA:5114,0
DA:5115,0
DA:5117,0
DA:5119,0
DA:5122,0
DA:5123,0
DA:5125,0
DA:5126,0
DA:5127,0
DA:5128,0
DA:5130,0
DA:5132,0
DA:5134,0
DA:5135,0
DA:5137,0
DA:5138,0
DA:5139,0
DA:5140,0
DA:5141,0
DA:5143,0
DA:5148,0
DA:5149,0
DA:5151,0
DA:5152,0
DA:5154,0
DA:5155,0
DA:5156,0
DA:5157,0
DA:5158,0
DA:5159,0
DA:5160,0
DA:5161,0
DA:5162,0
DA:5164,0
DA:5167,0
DA:5169,0
DA:5171,0
DA:5172,0
DA:5173,0
DA:5175,0
DA:5176,0
DA:5177,0
DA:5179,0
DA:5180,0
DA:5181,0
DA:5183,0
DA:5184,0
DA:5185,0
DA:5186,0
DA:5187,0
DA:5189,0
DA:5190,0
DA:5191,0
DA:5192,0
DA:5194,0
DA:5196,0
DA:5212,0
DA:5216,0
DA:5217,0
DA:5223,0
DA:5227,0
DA:5229,0
DA:5230,0
DA:5235,0
DA:5236,0
DA:5238,0
DA:5239,0
DA:5246,0
DA:5247,0
DA:5254,0
DA:5255,0
DA:5256,0
DA:5258,0
DA:5259,0
DA:5260,0
DA:5261,0
DA:5262,0
DA:5264,0
DA:5265,0
DA:5266,0
DA:5267,0
DA:5268,0
DA:5269,0
DA:5271,0
DA:5272,0
DA:5273,0
DA:5274,0
DA:5276,0
DA:5277,0
DA:5278,0
DA:5279,0
DA:5292,0
DA:5293,0
DA:5294,0
DA:5296,0
DA:5302,0
DA:5304,0
DA:5306,0
DA:5308,0
DA:5313,0
DA:5314,0
DA:5315,0
DA:5316,0
DA:5317,0
DA:5318,0
DA:5319,0
DA:5320,0
DA:5322,0
DA:5323,0
DA:5325,0
DA:5326,0
DA:5327,0
DA:5328,0
DA:5329,0
DA:5330,0
DA:5332,0
DA:5334,0
DA:5335,0
DA:5336,0
DA:5337,0
DA:5338,0
DA:5341,0
DA:5342,0
DA:5343,0
DA:5344,0
DA:5347,0
DA:5349,0
DA:5350,0
DA:5351,0
DA:5353,0
DA:5354,0
DA:5355,0
DA:5356,0
DA:5358,0
DA:5359,0
DA:5360,0
DA:5361,0
DA:5363,0
DA:5364,0
DA:5365,0
DA:5367,0
DA:5368,0
DA:5369,0
DA:5370,0
DA:5371,0
DA:5373,0
DA:5374,0
DA:5375,0
DA:5376,0
DA:5378,0
DA:5379,0
DA:5380,0
DA:5381,0
DA:5383,0
DA:5385,0
DA:5386,0
DA:5387,0
DA:5389,0
DA:5391,0
DA:5392,0
DA:5393,0
DA:5395,0
DA:5396,0
DA:5397,0
DA:5400,0
DA:5402,0
DA:5404,0
DA:5405,0
DA:5406,0
DA:5407,0
DA:5409,0
DA:5410,0
DA:5411,0
DA:5412,0
DA:5413,0
DA:5416,0
DA:5424,0
DA:5425,0
DA:5428,0
DA:5429,0
DA:5430,0
DA:5431,0
DA:5446,1
DA:5447,2
DA:5448,1
DA:5458,1
DA:5459,1
DA:5461,1
DA:5462,1
DA:5464,0
DA:5466,0
DA:5467,0
DA:5468,0
DA:5471,0
DA:5472,0
DA:5473,0
DA:5476,0
DA:5478,0
DA:5479,0
DA:5480,0
DA:5482,0
DA:5483,0
DA:5484,0
DA:5485,0
DA:5487,0
DA:5488,0
DA:5489,0
DA:5490,0
DA:5491,0
DA:5495,0
DA:5496,0
DA:5499,0
DA:5501,0
DA:5502,0
DA:5503,0
DA:5504,0
DA:5506,0
DA:5507,0
DA:5508,0
DA:5510,0
DA:5511,0
DA:5512,0
DA:5513,0
DA:5514,0
DA:5515,0
DA:5516,0
DA:5517,0
DA:5518,0
DA:5520,0
DA:5521,0
DA:5522,0
DA:5525,0
DA:5526,0
DA:5527,0
DA:5528,0
DA:5529,0
DA:5533,0
DA:5535,0
DA:5538,1
DA:5539,1
DA:5540,1
DA:5541,1
DA:5542,1
DA:5544,1
DA:5545,1
DA:5546,1
DA:5547,1
DA:5548,1
DA:5550,0
DA:5551,0
DA:5552,0
DA:5554,0
DA:5555,0
DA:5556,0
DA:5557,0
DA:5558,0
DA:5559,0
DA:5560,0
DA:5561,0
DA:5562,0
DA:5563,0
DA:5565,0
DA:5566,0
DA:5567,0
DA:5569,0
DA:5570,0
DA:5571,0
DA:5572,0
DA:5573,0
DA:5574,0
DA:5575,0
DA:5576,0
DA:5577,0
DA:5578,0
DA:5579,0
DA:5580,0
DA:5581,0
DA:5582,0
DA:5583,0
DA:5585,0
DA:5586,0
DA:5587,0
DA:5588,0
DA:5589,0
DA:5590,0
DA:5591,0
DA:5592,0
DA:5593,0
DA:5594,0
DA:5595,0
DA:5596,0
DA:5597,0
DA:5598,0
DA:5599,0
DA:5600,0
DA:5601,0
DA:5602,0
DA:5603,0
DA:5604,0
DA:5605,0
DA:5606,0
DA:5607,0
DA:5608,0
DA:5609,0
DA:5610,0
DA:5611,0
DA:5612,0
DA:5613,0
DA:5614,0
DA:5615,0
DA:5616,0
DA:5617,0
DA:5618,0
DA:5619,0
DA:5620,0
DA:5621,0
DA:5622,0
DA:5623,0
DA:5624,0
DA:5625,0
DA:5626,0
DA:5627,0
DA:5628,0
DA:5629,0
DA:5630,0
DA:5631,0
DA:5632,0
DA:5633,0
DA:5634,0
DA:5635,0
DA:5636,0
DA:5637,0
DA:5638,0
DA:5639,0
DA:5640,0
DA:5641,0
DA:5642,0
DA:5643,0
DA:5644,0
DA:5645,0
DA:5646,0
DA:5647,0
DA:5648,0
DA:5649,0
DA:5650,0
DA:5651,0
DA:5652,0
DA:5653,0
DA:5657,0
DA:5658,0
DA:5659,0
DA:5661,0
DA:5662,0
DA:5663,0
DA:5664,0
DA:5665,0
DA:5666,0
DA:5667,0
DA:5668,0
DA:5670,0
DA:5671,0
DA:5672,0
DA:5673,0
DA:5695,0
DA:5696,0
DA:5697,0
DA:5698,0
DA:5699,0
DA:5700,0
DA:5701,0
DA:5702,0
DA:5703,0
DA:5704,0
DA:5705,0
DA:5706,0
DA:5709,0
DA:5710,0
DA:5712,0
DA:5714,0
DA:5715,0
DA:5716,0
DA:5718,0
DA:5719,0
DA:5720,0
DA:5722,0
DA:5723,0
DA:5725,0
DA:5727,0
DA:5728,0
DA:5729,0
DA:5730,0
DA:5731,0
DA:5732,0
DA:5734,0
DA:5736,1
DA:5738,1
DA:5739,1
DA:5740,1
DA:5742,1
DA:5743,1
DA:5744,1
DA:5745,1
DA:5746,1
DA:5747,1
DA:5748,1
DA:5749,2
DA:5750,1
DA:5751,1
DA:5752,1
DA:5753,1
DA:5754,1
DA:5755,1
DA:5756,1
DA:5758,1
DA:5759,1
DA:5760,1
DA:5761,1
DA:5762,1
DA:5763,1
DA:5764,1
DA:5765,1
DA:5766,1
DA:5767,1
DA:5768,1
DA:5770,1
DA:5771,1
DA:5772,1
DA:5773,1
DA:5774,1
DA:5775,1
DA:5777,0
DA:5778,0
DA:5779,0
DA:5781,1
DA:5782,1
DA:5783,0
DA:5787,1
DA:5788,1
DA:5789,0
DA:5791,1
DA:5792,0
DA:5793,0
DA:5795,1
DA:5796,0
DA:5797,0
DA:5799,1
DA:5800,0
DA:5801,1
DA:5802,0
DA:5803,1
DA:5804,0
DA:5805,1
DA:5806,0
DA:5807,0
DA:5808,1
DA:5809,0
DA:5810,0
DA:5812,1
DA:5813,0
DA:5815,1
DA:5818,0
DA:5819,0
DA:5820,0
DA:5822,0
DA:5824,0
DA:5825,0
DA:5827,0
DA:5828,0
DA:5830,0
DA:5831,0
DA:5832,0
DA:5833,0
DA:5834,0
DA:5835,0
DA:5836,0
DA:5839,0
DA:5842,0
DA:5843,0
DA:5844,0
DA:5845,0
DA:5846,0
DA:5847,0
DA:5849,0
DA:5850,0
DA:5851,0
DA:5852,0
DA:5853,0
DA:5855,1
DA:5856,1
DA:5857,1
DA:5859,0
DA:5861,0
DA:5863,0
DA:5864,0
DA:5866,0
DA:5868,0
DA:5871,0
DA:5872,0
DA:5873,0
DA:5875,0
DA:5877,0
DA:5879,0
DA:5880,0
DA:5881,0
DA:5882,0
DA:5883,0
DA:5884,0
DA:5887,0
DA:5927,234
DA:5929,468
DA:5930,234
DA:5931,234
DA:5932,234
DA:5934,0
DA:5935,0
DA:5936,0
DA:5937,0
DA:5938,0
DA:5939,0
DA:5942,0
DA:5943,0
DA:5945,0
DA:5946,0
DA:5947,0
DA:5948,0
DA:5949,0
DA:5953,0
DA:5958,234
DA:5962,117
DA:5964,117
DA:5965,68
DA:5968,117
DA:5969,0
DA:5971,117
DA:5975,49
DA:5976,49
DA:5980,18
DA:5982,36
DA:5983,18
DA:5987,0
DA:5988,0
DA:5989,0
DA:5990,0
DA:5993,0
DA:5996,0
DA:5998,18
DA:6008,46
DA:6010,92
DA:6011,46
DA:6012,46
DA:6014,0
DA:6016,0
DA:6017,0
DA:6020,0
DA:6021,0
DA:6022,0
DA:6023,0
DA:6025,0
DA:6026,0
DA:6027,0
DA:6033,0
DA:6034,0
DA:6035,0
DA:6036,0
DA:6039,0
DA:6043,1
DA:6044,1
DA:6045,1
DA:6046,1
DA:6047,1
DA:6048,1
DA:6050,2
DA:6051,1
DA:6052,0
DA:6053,1
DA:6054,1
DA:6056,0
DA:6057,0
DA:6058,0
DA:6059,0
DA:6060,0
DA:6063,1
DA:6067,1
DA:6068,1
DA:6069,1
DA:6070,1
DA:6071,1
DA:6072,1
DA:6073,1
DA:6074,1
DA:6075,1
DA:6076,1
DA:6077,1
DA:6078,1
DA:6079,1
DA:6080,1
DA:6081,1
DA:6082,1
DA:6083,1
DA:6084,1
DA:6087,1
DA:6088,2
DA:6114,1
DA:6115,1
DA:6116,1
DA:6118,1
DA:6119,1
DA:6121,1
DA:6122,1
DA:6124,1
DA:6125,1
DA:6126,1
DA:6127,1
DA:6128,1
DA:6129,1
DA:6130,1
DA:6131,1
DA:6132,1
DA:6133,1
DA:6134,1
DA:6135,1
DA:6136,1
DA:6137,1
DA:6138,1
DA:6139,1
DA:6140,1
DA:6141,1
DA:6144,1
DA:6145,1
DA:6146,1
DA:6147,1
DA:6148,1
DA:6149,1
DA:6150,1
DA:6152,1
DA:6153,2
DA:6154,1
DA:6155,0
DA:6156,0
DA:6158,2
DA:6159,1
DA:6160,0
DA:6161,0
DA:6163,2
DA:6164,1
DA:6165,0
DA:6166,0
DA:6168,2
DA:6169,1
DA:6170,0
DA:6171,0
DA:6173,2
DA:6174,1
DA:6175,0
DA:6176,0
DA:6178,2
DA:6179,1
DA:6180,0
DA:6181,0
DA:6183,1
DA:6186,0
DA:6189,0
DA:6190,0
DA:6191,0
DA:6192,0
DA:6195,0
DA:6196,0
DA:6198,0
DA:6201,0
DA:6202,0
DA:6203,0
DA:6204,0
DA:6205,0
DA:6208,0
DA:6210,0
DA:6212,0
DA:6215,1
DA:6219,1
DA:6221,1
DA:6222,1
DA:6224,1
DA:6225,1
DA:6228,1
DA:6229,1
DA:6232,2
DA:6233,1
DA:6234,0
DA:6235,0
DA:6238,1
DA:6239,1
DA:6240,0
DA:6243,1
DA:6244,1
DA:6247,2
DA:6248,1
DA:6249,1
DA:6251,1
DA:6252,0
DA:6253,1
DA:6254,1
DA:6257,1
DA:6258,1
DA:6261,4
DA:6262,3
DA:6263,1
DA:6269,1
DA:6270,0
DA:6278,1
DA:6279,0
DA:6281,0
DA:6284,2
DA:6285,2
DA:6286,1
DA:6287,1
DA:6290,1
DA:6291,1
DA:6292,1
DA:6293,0
DA:6294,0
DA:6295,0
DA:6296,0
DA:6297,0
DA:6298,0
DA:6301,0
DA:6302,0
DA:6303,0
DA:6305,0
DA:6307,0
DA:6308,0
DA:6310,0
DA:6316,2
DA:6318,1
DA:6319,2
DA:6321,1
DA:6322,2
DA:6325,2
DA:6326,1
DA:6328,1
DA:6329,1
DA:6330,0
DA:6332,1
DA:6333,0
DA:6334,1
DA:6335,0
DA:6336,1
DA:6337,0
DA:6338,1
DA:6339,0
DA:6340,1
DA:6341,0
DA:6342,1
DA:6343,0
DA:6345,1
DA:6346,1
DA:6349,1
DA:6350,1
DA:6351,0
DA:6353,1
DA:6354,0
DA:6355,0
DA:6356,0
DA:6360,1
DA:6361,0
DA:6364,1
DA:6365,0
DA:6366,0
DA:6370,1
DA:6371,0
DA:6372,0
DA:6373,0
DA:6374,0
DA:6376,0
DA:6381,1
DA:6383,1
DA:6384,1
DA:6387,1
DA:6388,1
DA:6390,1
DA:6392,2
DA:6394,1
DA:6396,1
DA:6398,1
DA:6400,1
DA:6401,1
DA:6402,1
DA:6404,1
DA:6407,1
DA:6412,2
DA:6414,1
DA:6415,1
DA:6417,0
DA:6418,0
DA:6419,0
DA:6420,0
DA:6422,0
DA:6427,1
DA:6428,0
DA:6429,0
DA:6430,0
DA:6433,1
DA:6434,0
DA:6435,1
DA:6436,1
DA:6439,1
DA:6441,2
DA:6443,1
DA:6446,1
DA:6447,0
DA:6451,1
DA:6452,2
DA:6454,0
DA:6455,0
DA:6456,0
DA:6457,0
DA:6458,0
DA:6464,1
DA:6465,1
DA:6466,1
DA:6468,1
DA:6473,0
DA:6474,0
DA:6475,0
DA:6478,0
DA:6479,0
DA:6480,0
DA:6484,3
DA:6485,3
DA:6486,3
DA:6488,0
DA:6489,3
DA:6498,1
end_of_record
TN:
SF:/home/mburakowski/pobiektowe/zad5_3-mburakow/tests/doctest/doctest.h
FN:1045,_ZN7doctest6detail19stringifyBinaryExprIbbEENS_6StringERKT_PKcRKT0_
FNDA:0,_ZN7doctest6detail19stringifyBinaryExprIbbEENS_6StringERKT_PKcRKT0_
FN:1182,_ZN7doctest6detail14Expression_lhsIRKbEC2ES3_NS_10assertType4EnumE
FNDA:1,_ZN7doctest6detail14Expression_lhsIRKbEC2ES3_NS_10assertType4EnumE
FN:1197,_ZN7doctest6detail14Expression_lhsIRKbEeqIbEENS0_6ResultERKT_
FNDA:1,_ZN7doctest6detail14Expression_lhsIRKbEeqIbEENS0_6ResultERKT_
FN:1247,_ZN7doctest6detail20ExpressionDecomposerlsIbEENS0_14Expression_lhsIRKT_EES6_
FNDA:1,_ZN7doctest6detail20ExpressionDecomposerlsIbEENS0_14Expression_lhsIRKT_EES6_
DA:1045,0
DA:1048,0
DA:1182,1
DA:1184,1
DA:1197,1
DA:1247,1
DA:1248,1
end_of_record
SF:/home/mburakowski/pobiektowe/zad5_3-mburakow/tests/dummy.cpp
FN:7,_ZL20_DOCTEST_ANON_FUNC_2v
FNDA:1,_ZL20_DOCTEST_ANON_FUNC_2v
DA:7,1
DA:9,1
DA:10,1
DA:11,1
end_of_record
TN:
SF:/usr/include/c++/9/ext/type_traits.h
FN:152,_ZN9__gnu_cxx17__is_null_pointerIcEEbPT_
FNDA:0,_ZN9__gnu_cxx17__is_null_pointerIcEEbPT_
FN:152,_ZN9__gnu_cxx17__is_null_pointerIKcEEbPT_
FNDA:0,_ZN9__gnu_cxx17__is_null_pointerIKcEEbPT_
DA:152,0
DA:153,0
DA:152,0
DA:153,0
end_of_record
SF:/home/mburakowski/pobiektowe/zad5_3-mburakow/src/lacze_do_gnuplota.cpp
FN:55,_ZN3PzG20InfoPlikuDoRysowaniaC2EPKcNS_19TypSposobuRysowaniaEiii
FNDA:0,_ZN3PzG20InfoPlikuDoRysowaniaC2EPKcNS_19TypSposobuRysowaniaEiii
FN:100,_ZNK3PzG15LaczeDoGNUPlota16ZnajdzNazwePlikuEPKcNS_18TypDostepuDoZasobuE
FNDA:0,_ZNK3PzG15LaczeDoGNUPlota16ZnajdzNazwePlikuEPKcNS_18TypDostepuDoZasobuE
FN:132,_ZN3PzG15LaczeDoGNUPlota14UsunNazwePlikuEPKNS_20InfoPlikuDoRysowaniaENS_18TypDostepuDoZasobuE
FNDA:0,_ZN3PzG15LaczeDoGNUPlota14UsunNazwePlikuEPKNS_20InfoPlikuDoRysowaniaENS_18TypDostepuDoZasobuE
FN:156,_ZN3PzG15LaczeDoGNUPlota14UsunNazwePlikuEPKcNS_18TypDostepuDoZasobuE
FNDA:0,_ZN3PzG15LaczeDoGNUPlota14UsunNazwePlikuEPKcNS_18TypDostepuDoZasobuE
FN:181,_ZN3PzG15LaczeDoGNUPlota14UsunNazwePlikuERKNSt7__cxx1112basic_stringIcSt11char_traitsIcESaIcEEENS_18TypDostepuDoZasobuE
FNDA:0,_ZN3PzG15LaczeDoGNUPlota14UsunNazwePlikuERKNSt7__cxx1112basic_stringIcSt11char_traitsIcESaIcEEENS_18TypDostepuDoZasobuE
FN:201,_ZZN3PzG15LaczeDoGNUPlota14UsunNazwePlikuERKNSt7__cxx1112basic_stringIcSt11char_traitsIcESaIcEEENS_18TypDostepuDoZasobuEEN13TakaSamaNazwaC2ES8_Pj
FNDA:0,_ZZN3PzG15LaczeDoGNUPlota14UsunNazwePlikuERKNSt7__cxx1112basic_stringIcSt11char_traitsIcESaIcEEENS_18TypDostepuDoZasobuEEN13TakaSamaNazwaC2ES8_Pj
FN:203,_ZZN3PzG15LaczeDoGNUPlota14UsunNazwePlikuERKNSt7__cxx1112basic_stringIcSt11char_traitsIcESaIcEEENS_18TypDostepuDoZasobuEENK13TakaSamaNazwa8WezIloscEv
FNDA:0,_ZZN3PzG15LaczeDoGNUPlota14UsunNazwePlikuERKNSt7__cxx1112basic_stringIcSt11char_traitsIcESaIcEEENS_18TypDostepuDoZasobuEENK13TakaSamaNazwa8WezIloscEv
FN:204,_ZZN3PzG15LaczeDoGNUPlota14UsunNazwePlikuERKNSt7__cxx1112basic_stringIcSt11char_traitsIcESaIcEEENS_18TypDostepuDoZasobuEENK13TakaSamaNazwaclERKNS_20InfoPlikuDoRysowaniaE
FNDA:0,_ZZN3PzG15LaczeDoGNUPlota14UsunNazwePlikuERKNSt7__cxx1112basic_stringIcSt11char_traitsIcESaIcEEENS_18TypDostepuDoZasobuEENK13TakaSamaNazwaclERKNS_20InfoPlikuDoRysowaniaE
FN:231,_ZN3PzG15LaczeDoGNUPlota26WyswietlajKomunikatyBledowEb
FNDA:0,_ZN3PzG15LaczeDoGNUPlota26WyswietlajKomunikatyBledowEb
FN:237,_ZN3PzG15LaczeDoGNUPlotaD2Ev
FNDA:0,_ZN3PzG15LaczeDoGNUPlotaD2Ev
FN:237,_ZN3PzG15LaczeDoGNUPlotaD0Ev
FNDA:0,_ZN3PzG15LaczeDoGNUPlotaD0Ev
FN:241,_ZN3PzG15LaczeDoGNUPlota18PrzeslijDoGNUPlotaEPKc
FNDA:0,_ZN3PzG15LaczeDoGNUPlota18PrzeslijDoGNUPlotaEPKc
FN:261,_ZN3PzG15LaczeDoGNUPlotaC2Ev
FNDA:0,_ZN3PzG15LaczeDoGNUPlotaC2Ev
FN:286,_ZN3PzG11CzyJestPlikEPKc
FNDA:0,_ZN3PzG11CzyJestPlikEPKc
FN:332,_ZN3PzG15LaczeDoGNUPlota15DodajNazwePlikuEPKcbNS_18TypDostepuDoZasobuE
FNDA:0,_ZN3PzG15LaczeDoGNUPlota15DodajNazwePlikuEPKcbNS_18TypDostepuDoZasobuE
FN:357,_ZN3PzG15LaczeDoGNUPlota37DodajNazwePliku_PunktyRoznejWielkosciEPKcbNS_18TypDostepuDoZasobuE
FNDA:0,_ZN3PzG15LaczeDoGNUPlota37DodajNazwePliku_PunktyRoznejWielkosciEPKcbNS_18TypDostepuDoZasobuE
FN:384,_ZN3PzG15LaczeDoGNUPlota22DodajNazwePliku_LamanaEPKcbNS_18TypDostepuDoZasobuE
FNDA:0,_ZN3PzG15LaczeDoGNUPlota22DodajNazwePliku_LamanaEPKcbNS_18TypDostepuDoZasobuE
FN:399,_ZN3PzG15LaczeDoGNUPlota31DodajNazwePliku_JednakowePunktyEPKcbNS_18TypDostepuDoZasobuE
FNDA:0,_ZN3PzG15LaczeDoGNUPlota31DodajNazwePliku_JednakowePunktyEPKcbNS_18TypDostepuDoZasobuE
FN:413,_ZNK3PzG15LaczeDoGNUPlota29CzyPolaczenieJestZainicjowaneEv
FNDA:0,_ZNK3PzG15LaczeDoGNUPlota29CzyPolaczenieJestZainicjowaneEv
FN:419,_ZNK3PzG15LaczeDoGNUPlota14KomunikatBleduEPKc
FNDA:0,_ZNK3PzG15LaczeDoGNUPlota14KomunikatBleduEPKc
FN:430,_ZN3PzG15LaczeDoGNUPlota11InicjalizujEv
FNDA:0,_ZN3PzG15LaczeDoGNUPlota11InicjalizujEv
FN:451,_ZN3PzG15LaczeDoGNUPlota19UtworzProcesPotomnyEv
FNDA:0,_ZN3PzG15LaczeDoGNUPlota19UtworzProcesPotomnyEv
FN:533,_ZN3PzG15LaczeDoGNUPlota12RysujDoPlikuEPKc
FNDA:0,_ZN3PzG15LaczeDoGNUPlota12RysujDoPlikuEPKc
FN:579,_ZN3PzG22DopiszRysowanieZPlikowERSt20_List_const_iteratorINS_20InfoPlikuDoRysowaniaEERKS2_RNSt7__cxx1112basic_stringIcSt11char_traitsIcESaIcEEEPPKc
FNDA:0,_ZN3PzG22DopiszRysowanieZPlikowERSt20_List_const_iteratorINS_20InfoPlikuDoRysowaniaEERKS2_RNSt7__cxx1112basic_stringIcSt11char_traitsIcESaIcEEEPPKc
FN:646,_ZN3PzG15LaczeDoGNUPlota22DopiszRysowanieZPlikowERNSt7__cxx1112basic_stringIcSt11char_traitsIcESaIcEEEPPKc
FNDA:0,_ZN3PzG15LaczeDoGNUPlota22DopiszRysowanieZPlikowERNSt7__cxx1112basic_stringIcSt11char_traitsIcESaIcEEEPPKc
FN:706,_ZN3PzG17AtrybutyRysowaniaC2Ev
FNDA:0,_ZN3PzG17AtrybutyRysowaniaC2Ev
FN:730,_ZNK3PzG17AtrybutyRysowanialtERKS0_
FNDA:0,_ZNK3PzG17AtrybutyRysowanialtERKS0_
FN:744,_ZNK3PzG17AtrybutyRysowaniaeqERKS0_
FNDA:0,_ZNK3PzG17AtrybutyRysowaniaeqERKS0_
FN:758,_ZNK3PzG17AtrybutyRysowania7WezStylEv
FNDA:0,_ZNK3PzG17AtrybutyRysowania7WezStylEv
FN:775,_ZNK3PzG17AtrybutyRysowania10WezRozmiarEv
FNDA:0,_ZNK3PzG17AtrybutyRysowania10WezRozmiarEv
FN:785,_ZN3PzG17AtrybutyRysowania9ZmienStylEi
FNDA:0,_ZN3PzG17AtrybutyRysowania9ZmienStylEi
FN:794,_ZN3PzG17AtrybutyRysowania10ZmienKolorEi
FNDA:0,_ZN3PzG17AtrybutyRysowania10ZmienKolorEi
FN:803,_ZN3PzG17AtrybutyRysowania12ZmienRozmiarEi
FNDA:0,_ZN3PzG17AtrybutyRysowania12ZmienRozmiarEi
FN:833,_ZN3PzG8Wektor2fC2Ev
FNDA:0,_ZN3PzG8Wektor2fC2Ev
FN:841,_ZN3PzG8Wektor2fC2Eff
FNDA:2,_ZN3PzG8Wektor2fC2Eff
FN:850,_ZN3PzG8Wektor2fpLERKS0_
FNDA:0,_ZN3PzG8Wektor2fpLERKS0_
FN:861,_ZNK3PzG8Wektor2fplES0_
FNDA:0,_ZNK3PzG8Wektor2fplES0_
FN:872,_ZN3PzG8Wektor2fmLEf
FNDA:0,_ZN3PzG8Wektor2fmLEf
FN:882,_ZNK3PzG8Wektor2fmlEf
FNDA:0,_ZNK3PzG8Wektor2fmlEf
FN:892,_ZN3PzG8Wektor2f5ZmienEff
FNDA:0,_ZN3PzG8Wektor2f5ZmienEff
FN:908,_ZN3PzGrsERSiRNS_8Wektor2fE
FNDA:0,_ZN3PzGrsERSiRNS_8Wektor2fE
FN:969,_ZNK3PzG21InfoPunktyDoRysowania22WyznaczWspolrzEtykietyEv
FNDA:0,_ZNK3PzG21InfoPunktyDoRysowania22WyznaczWspolrzEtykietyEv
FN:985,_ZN3PzG21InfoPunktyDoRysowaniaC2ERKNS_8Wektor2fERKNS_17AtrybutyRysowaniaEPKc
FNDA:0,_ZN3PzG21InfoPunktyDoRysowaniaC2ERKNS_8Wektor2fERKNS_17AtrybutyRysowaniaEPKc
FN:1001,_ZN3PzG21InfoPunktyDoRysowania35UstawWspolrzEtykietyDlaPrzesunieciaEff
FNDA:0,_ZN3PzG21InfoPunktyDoRysowania35UstawWspolrzEtykietyDlaPrzesunieciaEff
FN:1013,_ZNK3PzG21InfoPunktyDoRysowania11WezEtykieteB5cxx11Ev
FNDA:0,_ZNK3PzG21InfoPunktyDoRysowania11WezEtykieteB5cxx11Ev
FN:1020,_ZNK3PzG21InfoPunktyDoRysowania18WezWspolrzEtykietyEv
FNDA:0,_ZNK3PzG21InfoPunktyDoRysowania18WezWspolrzEtykietyEv
FN:1031,_ZNK3PzG21InfoPunktyDoRysowanialtERKS0_
FNDA:0,_ZNK3PzG21InfoPunktyDoRysowanialtERKS0_
FN:1039,_ZNK3PzG21InfoPunktyDoRysowania11WezAtrybutyEv
FNDA:0,_ZNK3PzG21InfoPunktyDoRysowania11WezAtrybutyEv
FN:1054,_ZNK3PzG21InfoPunktyDoRysowania10WezWspolrzEv
FNDA:0,_ZNK3PzG21InfoPunktyDoRysowania10WezWspolrzEv
FN:1095,_ZN3PzG21InfoPunktyDoRysowania32ZmienPrzesEtykiety_WzgWspoPunktuEff
FNDA:0,_ZN3PzG21InfoPunktyDoRysowania32ZmienPrzesEtykiety_WzgWspoPunktuEff
FN:1110,_ZN3PzG21InfoPunktyDoRysowania32ZmienPrzesEtykiety_WzgRozmPunktuEff
FNDA:0,_ZN3PzG21InfoPunktyDoRysowania32ZmienPrzesEtykiety_WzgRozmPunktuEff
FN:1125,_ZN3PzG21InfoPunktyDoRysowania15DodajDoEtykietyEi
FNDA:0,_ZN3PzG21InfoPunktyDoRysowania15DodajDoEtykietyEi
FN:1170,_ZN3PzG26WczytajListeRoznychPunktowEPKcRNSt7__cxx114listINS_21InfoPunktyDoRysowaniaESaIS4_EEEiiS1_
FNDA:0,_ZN3PzG26WczytajListeRoznychPunktowEPKcRNSt7__cxx114listINS_21InfoPunktyDoRysowaniaESaIS4_EEEiiS1_
FN:1225,_ZN3PzG23DopiszUstawieniaEtykietERKNSt7__cxx114listINS_21InfoPunktyDoRysowaniaESaIS2_EEERNS0_12basic_stringIcSt11char_traitsIcESaIcEEE
FNDA:0,_ZN3PzG23DopiszUstawieniaEtykietERKNSt7__cxx114listINS_21InfoPunktyDoRysowaniaESaIS2_EEERNS0_12basic_stringIcSt11char_traitsIcESaIcEEE
FN:1261,_ZN3PzG28DopiszRysowaniePunktowZListyERNSt7__cxx114listINS_21InfoPunktyDoRysowaniaESaIS2_EEERNS0_12basic_stringIcSt11char_traitsIcESaIcEEEPKc
FNDA:0,_ZN3PzG28DopiszRysowaniePunktowZListyERNSt7__cxx114listINS_21InfoPunktyDoRysowaniaESaIS2_EEERNS0_12basic_stringIcSt11char_traitsIcESaIcEEEPKc
FN:1326,_ZN3PzG30DopiszRysowanieZRoznychPunktowERSt20_List_const_iteratorINS_20InfoPlikuDoRysowaniaEES3_RNSt7__cxx114listINS_21InfoPunktyDoRysowaniaESaIS6_EEE
FNDA:0,_ZN3PzG30DopiszRysowanieZRoznychPunktowERSt20_List_const_iteratorINS_20InfoPlikuDoRysowaniaEES3_RNSt7__cxx114listINS_21InfoPunktyDoRysowaniaESaIS6_EEE
FN:1363,_ZN3PzG15LaczeDoGNUPlota30DopiszRysowanieZRoznychPunktowERNSt7__cxx1112basic_stringIcSt11char_traitsIcESaIcEEEPKc
FNDA:0,_ZN3PzG15LaczeDoGNUPlota30DopiszRysowanieZRoznychPunktowERNSt7__cxx1112basic_stringIcSt11char_traitsIcESaIcEEEPKc
FN:1393,_ZN3PzG15LaczeDoGNUPlota13UstawRotacjeXEf
FNDA:0,_ZN3PzG15LaczeDoGNUPlota13UstawRotacjeXEf
FN:1400,_ZN3PzG15LaczeDoGNUPlota13UstawRotacjeZEf
FNDA:0,_ZN3PzG15LaczeDoGNUPlota13UstawRotacjeZEf
FN:1407,_ZN3PzG15LaczeDoGNUPlota14UstawRotacjeXZEff
FNDA:0,_ZN3PzG15LaczeDoGNUPlota14UstawRotacjeXZEff
FN:1415,_ZN3PzG15LaczeDoGNUPlota11UstawSkaleXEf
FNDA:0,_ZN3PzG15LaczeDoGNUPlota11UstawSkaleXEf
FN:1422,_ZN3PzG15LaczeDoGNUPlota11UstawSkaleZEf
FNDA:0,_ZN3PzG15LaczeDoGNUPlota11UstawSkaleZEf
FN:1429,_ZN3PzG15LaczeDoGNUPlota12UstawSkaleXZEff
FNDA:0,_ZN3PzG15LaczeDoGNUPlota12UstawSkaleXZEff
FN:1451,_ZN3PzG15LaczeDoGNUPlota5RysujEv
FNDA:0,_ZN3PzG15LaczeDoGNUPlota5RysujEv
FN:1482,_ZN3PzG15LaczeDoGNUPlota32BudujPreambulePoleceniaRysowaniaERNSt7__cxx1112basic_stringIcSt11char_traitsIcESaIcEEE
FNDA:0,_ZN3PzG15LaczeDoGNUPlota32BudujPreambulePoleceniaRysowaniaERNSt7__cxx1112basic_stringIcSt11char_traitsIcESaIcEEE
FN:1492,_ZN3PzG15LaczeDoGNUPlota17BudujPreambule_2DERNSt7__cxx1112basic_stringIcSt11char_traitsIcESaIcEEE
FNDA:0,_ZN3PzG15LaczeDoGNUPlota17BudujPreambule_2DERNSt7__cxx1112basic_stringIcSt11char_traitsIcESaIcEEE
FN:1512,_ZN3PzG15LaczeDoGNUPlota17BudujPreambule_3DERNSt7__cxx1112basic_stringIcSt11char_traitsIcESaIcEEE
FNDA:0,_ZN3PzG15LaczeDoGNUPlota17BudujPreambule_3DERNSt7__cxx1112basic_stringIcSt11char_traitsIcESaIcEEE
FN:1541,_ZNK3PzG15LaczeDoGNUPlota23ZapiszUstawienieZakresuB5cxx11Ec
FNDA:0,_ZNK3PzG15LaczeDoGNUPlota23ZapiszUstawienieZakresuB5cxx11Ec
FN:1560,_ZNK3PzG15LaczeDoGNUPlota29ZapiszUstawienieRotacjiISkaliB5cxx11Ev
FNDA:0,_ZNK3PzG15LaczeDoGNUPlota29ZapiszUstawienieRotacjiISkaliB5cxx11Ev
FN:1578,_ZN3PzG22UsunOstatniaNazwePlikuERNSt7__cxx114listINS_20InfoPlikuDoRysowaniaESaIS2_EEE
FNDA:0,_ZN3PzG22UsunOstatniaNazwePlikuERNSt7__cxx114listINS_20InfoPlikuDoRysowaniaESaIS2_EEE
FN:1588,_ZN3PzG15LaczeDoGNUPlota30UsunOstatniaNazwe_ListaLokalnaEv
FNDA:0,_ZN3PzG15LaczeDoGNUPlota30UsunOstatniaNazwe_ListaLokalnaEv
FN:1597,_ZN3PzG15LaczeDoGNUPlota31UsunOstatniaNazwe_ListaGlobalnaEv
FNDA:0,_ZN3PzG15LaczeDoGNUPlota31UsunOstatniaNazwe_ListaGlobalnaEv
FN:1607,_ZN3PzG15LaczeDoGNUPlota24UsunWszystkieNazwyPlikowEv
FNDA:0,_ZN3PzG15LaczeDoGNUPlota24UsunWszystkieNazwyPlikowEv
DA:55,0
DA:60,0
DA:62,0
DA:63,0
DA:64,0
DA:65,0
DA:66,0
DA:67,0
DA:100,0
DA:105,0
DA:106,0
DA:107,0
DA:108,0
DA:110,0
DA:132,0
DA:136,0
DA:156,0
DA:161,0
DA:181,0
DA:185,0
DA:201,0
DA:202,0
DA:203,0
DA:204,0
DA:205,0
DA:210,0
DA:211,0
DA:212,0
DA:213,0
DA:215,0
DA:216,0
DA:217,0
DA:218,0
DA:219,0
DA:220,0
DA:222,0
DA:231,0
DA:233,0
DA:234,0
DA:237,0
DA:238,0
DA:237,0
DA:238,0
DA:241,0
DA:243,0
DA:246,0
DA:247,0
DA:248,0
DA:249,0
DA:251,0
DA:252,0
DA:253,0
DA:255,0
DA:261,0
DA:263,0
DA:265,0
DA:266,0
DA:267,0
DA:268,0
DA:269,0
DA:270,0
DA:271,0
DA:272,0
DA:273,0
DA:286,0
DA:290,0
DA:291,0
DA:292,0
DA:293,0
DA:332,0
DA:338,0
DA:339,0
DA:342,0
DA:344,0
DA:345,0
DA:346,0
DA:348,0
DA:349,0
DA:357,0
DA:363,0
DA:364,0
DA:370,0
DA:371,0
DA:372,0
DA:373,0
DA:375,0
DA:376,0
DA:384,0
DA:390,0
DA:391,0
DA:399,0
DA:405,0
DA:406,0
DA:413,0
DA:415,0
DA:419,0
DA:421,0
DA:422,0
DA:430,0
DA:432,0
DA:433,0
DA:435,0
DA:451,0
DA:455,0
DA:456,0
DA:458,0
DA:461,0
DA:462,0
DA:463,0
DA:464,0
DA:467,0
DA:468,0
DA:469,0
DA:471,0
DA:472,0
DA:473,0
DA:476,0
DA:477,0
DA:479,0
DA:481,0
DA:482,0
DA:483,0
DA:485,0
DA:486,0
DA:487,0
DA:489,0
DA:490,0
DA:491,0
DA:493,0
DA:494,0
DA:495,0
DA:497,0
DA:498,0
DA:499,0
DA:502,0
DA:503,0
DA:506,0
DA:508,0
DA:509,0
DA:510,0
DA:511,0
DA:512,0
DA:513,0
DA:514,0
DA:515,0
DA:516,0
DA:518,0
DA:519,0
DA:520,0
DA:523,0
DA:524,0
DA:525,0
DA:527,0
DA:533,0
DA:535,0
DA:536,0
DA:538,0
DA:539,0
DA:540,0
DA:541,0
DA:542,0
DA:543,0
DA:546,0
DA:547,0
DA:548,0
DA:550,0
DA:552,0
DA:579,0
DA:585,0
DA:586,0
DA:588,0
DA:589,0
DA:591,0
DA:592,0
DA:593,0
DA:594,0
DA:596,0
DA:597,0
DA:598,0
DA:599,0
DA:600,0
DA:601,0
DA:602,0
DA:604,0
DA:605,0
DA:606,0
DA:607,0
DA:608,0
DA:610,0
DA:611,0
DA:619,0
DA:620,0
DA:621,0
DA:623,0
DA:646,0
DA:650,0
DA:651,0
DA:652,0
DA:654,0
DA:655,0
DA:658,0
DA:660,0
DA:661,0
DA:662,0
DA:706,0
DA:707,0
DA:730,0
DA:731,0
DA:732,0
DA:733,0
DA:744,0
DA:746,0
DA:747,0
DA:748,0
DA:758,0
DA:775,0
DA:785,0
DA:794,0
DA:803,0
DA:804,0
DA:833,0
DA:841,2
DA:850,0
DA:851,0
DA:861,0
DA:862,0
DA:872,0
DA:873,0
DA:882,0
DA:883,0
DA:892,0
DA:908,0
DA:910,0
DA:969,0
DA:971,0
DA:972,0
DA:985,0
DA:988,0
DA:989,0
DA:991,0
DA:992,0
DA:1001,0
DA:1003,0
DA:1004,0
DA:1005,0
DA:1006,0
DA:1013,0
DA:1020,0
DA:1021,0
DA:1031,0
DA:1032,0
DA:1039,0
DA:1054,0
DA:1095,0
DA:1100,0
DA:1110,0
DA:1115,0
DA:1125,0
DA:1127,0
DA:1128,0
DA:1129,0
DA:1130,0
DA:1170,0
DA:1177,0
DA:1179,0
DA:1180,0
DA:1181,0
DA:1182,0
DA:1185,0
DA:1187,0
DA:1189,0
DA:1191,0
DA:1193,0
DA:1194,0
DA:1195,0
DA:1196,0
DA:1198,0
DA:1199,0
DA:1200,0
DA:1201,0
DA:1202,0
DA:1205,0
DA:1206,0
DA:1208,0
DA:1209,0
DA:1210,0
DA:1212,0
DA:1225,0
DA:1229,0
DA:1231,0
DA:1233,0
DA:1234,0
DA:1235,0
DA:1236,0
DA:1237,0
DA:1238,0
DA:1239,0
DA:1240,0
DA:1242,0
DA:1243,0
DA:1261,0
DA:1266,0
DA:1268,0
DA:1271,0
DA:1273,0
DA:1275,0
DA:1277,0
DA:1278,0
DA:1279,0
DA:1282,0
DA:1283,0
DA:1284,0
DA:1285,0
DA:1286,0
DA:1287,0
DA:1288,0
DA:1291,0
DA:1293,0
DA:1294,0
DA:1295,0
DA:1297,0
DA:1298,0
DA:1299,0
DA:1300,0
DA:1301,0
DA:1302,0
DA:1304,0
DA:1305,0
DA:1306,0
DA:1308,0
DA:1309,0
DA:1310,0
DA:1326,0
DA:1332,0
DA:1333,0
DA:1335,0
DA:1338,0
DA:1341,0
DA:1363,0
DA:1368,0
DA:1370,0
DA:1372,0
DA:1373,0
DA:1375,0
DA:1377,0
DA:1378,0
DA:1380,0
DA:1382,0
DA:1383,0
DA:1385,0
DA:1386,0
DA:1393,0
DA:1395,0
DA:1396,0
DA:1397,0
DA:1400,0
DA:1402,0
DA:1403,0
DA:1404,0
DA:1407,0
DA:1409,0
DA:1410,0
DA:1411,0
DA:1415,0
DA:1417,0
DA:1418,0
DA:1419,0
DA:1422,0
DA:1424,0
DA:1425,0
DA:1426,0
DA:1429,0
DA:1431,0
DA:1432,0
DA:1433,0
DA:1451,0
DA:1453,0
DA:1454,0
DA:1457,0
DA:1459,0
DA:1461,0
DA:1462,0
DA:1466,0
DA:1467,0
DA:1468,0
DA:1469,0
DA:1475,0
DA:1477,0
DA:1482,0
DA:1484,0
DA:1485,0
DA:1486,0
DA:1488,0
DA:1492,0
DA:1494,0
DA:1495,0
DA:1496,0
DA:1497,0
DA:1498,0
DA:1500,0
DA:1502,0
DA:1503,0
DA:1505,0
DA:1506,0
DA:1507,0
DA:1508,0
DA:1512,0
DA:1514,0
DA:1515,0
DA:1516,0
DA:1517,0
DA:1518,0
DA:1527,0
DA:1529,0
DA:1530,0
DA:1532,0
DA:1533,0
DA:1534,0
DA:1536,0
DA:1537,0
DA:1541,0
DA:1543,0
DA:1546,0
DA:1547,0
DA:1548,0
DA:1549,0
DA:1550,0
DA:1551,0
DA:1552,0
DA:1554,0
DA:1555,0
DA:1560,0
DA:1562,0
DA:1563,0
DA:1564,0
DA:1565,0
DA:1578,0
DA:1580,0
DA:1581,0
DA:1582,0
DA:1588,0
DA:1590,0
DA:1591,0
DA:1597,0
DA:1599,0
DA:1600,0
DA:1607,0
DA:1609,0
DA:1610,0
DA:1611,0
end_of_record
SF:/usr/include/c++/9/ext/alloc_traits.h
FN:97,_ZN9__gnu_cxx14__alloc_traitsISaIcEcE17_S_select_on_copyERKS1_
FNDA:0,_ZN9__gnu_cxx14__alloc_traitsISaIcEcE17_S_select_on_copyERKS1_
FN:100,_ZN9__gnu_cxx14__alloc_traitsISaISt10_List_nodeIN3PzG21InfoPunktyDoRysowaniaEEES4_E10_S_on_swapERS5_S7_
FNDA:0,_ZN9__gnu_cxx14__alloc_traitsISaISt10_List_nodeIN3PzG21InfoPunktyDoRysowaniaEEES4_E10_S_on_swapERS5_S7_
DA:97,0
DA:98,0
DA:100,0
DA:101,0
end_of_record
SF:/usr/include/c++/9/bits/allocated_ptr.h
FN:52,_ZNSt15__allocated_ptrISaISt10_List_nodeIN3PzG21InfoPunktyDoRysowaniaEEEEC2ERS4_PS3_
FNDA:0,_ZNSt15__allocated_ptrISaISt10_List_nodeIN3PzG21InfoPunktyDoRysowaniaEEEEC2ERS4_PS3_
FN:52,_ZNSt15__allocated_ptrISaISt10_List_nodeIN3PzG20InfoPlikuDoRysowaniaEEEEC2ERS4_PS3_
FNDA:0,_ZNSt15__allocated_ptrISaISt10_List_nodeIN3PzG20InfoPlikuDoRysowaniaEEEEC2ERS4_PS3_
FN:70,_ZNSt15__allocated_ptrISaISt10_List_nodeIN3PzG21InfoPunktyDoRysowaniaEEEED2Ev
FNDA:0,_ZNSt15__allocated_ptrISaISt10_List_nodeIN3PzG21InfoPunktyDoRysowaniaEEEED2Ev
FN:70,_ZNSt15__allocated_ptrISaISt10_List_nodeIN3PzG20InfoPlikuDoRysowaniaEEEED2Ev
FNDA:0,_ZNSt15__allocated_ptrISaISt10_List_nodeIN3PzG20InfoPlikuDoRysowaniaEEEED2Ev
FN:78,_ZNSt15__allocated_ptrISaISt10_List_nodeIN3PzG21InfoPunktyDoRysowaniaEEEEaSEDn
FNDA:0,_ZNSt15__allocated_ptrISaISt10_List_nodeIN3PzG21InfoPunktyDoRysowaniaEEEEaSEDn
FN:78,_ZNSt15__allocated_ptrISaISt10_List_nodeIN3PzG20InfoPlikuDoRysowaniaEEEEaSEDn
FNDA:0,_ZNSt15__allocated_ptrISaISt10_List_nodeIN3PzG20InfoPlikuDoRysowaniaEEEEaSEDn
DA:52,0
DA:53,0
DA:54,0
DA:52,0
DA:53,0
DA:54,0
DA:70,0
DA:72,0
DA:73,0
DA:74,0
DA:70,0
DA:72,0
DA:73,0
DA:74,0
DA:78,0
DA:80,0
DA:81,0
DA:78,0
DA:80,0
DA:81,0
end_of_record
SF:/usr/include/c++/9/new
FN:173,_ZnwmPv
FNDA:0,_ZnwmPv
FN:179,_ZdlPvS_
FNDA:0,_ZdlPvS_
DA:173,0
DA:174,0
DA:179,0
end_of_record
SF:/usr/include/c++/9/ext/new_allocator.h
FN:80,_ZN9__gnu_cxx13new_allocatorIcEC2Ev
FNDA:0,_ZN9__gnu_cxx13new_allocatorIcEC2Ev
FN:80,_ZN9__gnu_cxx13new_allocatorISt10_List_nodeIN3PzG21InfoPunktyDoRysowaniaEEEC2Ev
FNDA:0,_ZN9__gnu_cxx13new_allocatorISt10_List_nodeIN3PzG21InfoPunktyDoRysowaniaEEEC2Ev
FN:80,_ZN9__gnu_cxx13new_allocatorISt10_List_nodeIN3PzG20InfoPlikuDoRysowaniaEEEC2Ev
FNDA:1,_ZN9__gnu_cxx13new_allocatorISt10_List_nodeIN3PzG20InfoPlikuDoRysowaniaEEEC2Ev
FN:83,_ZN9__gnu_cxx13new_allocatorIcEC2ERKS1_
FNDA:0,_ZN9__gnu_cxx13new_allocatorIcEC2ERKS1_
FN:89,_ZN9__gnu_cxx13new_allocatorIcED2Ev
FNDA:0,_ZN9__gnu_cxx13new_allocatorIcED2Ev
FN:89,_ZN9__gnu_cxx13new_allocatorISt10_List_nodeIN3PzG20InfoPlikuDoRysowaniaEEED2Ev
FNDA:1,_ZN9__gnu_cxx13new_allocatorISt10_List_nodeIN3PzG20InfoPlikuDoRysowaniaEEED2Ev
FN:89,_ZN9__gnu_cxx13new_allocatorISt10_List_nodeIN3PzG21InfoPunktyDoRysowaniaEEED2Ev
FNDA:0,_ZN9__gnu_cxx13new_allocatorISt10_List_nodeIN3PzG21InfoPunktyDoRysowaniaEEED2Ev
FN:102,_ZN9__gnu_cxx13new_allocatorISt10_List_nodeIN3PzG21InfoPunktyDoRysowaniaEEE8allocateEmPKv
FNDA:0,_ZN9__gnu_cxx13new_allocatorISt10_List_nodeIN3PzG21InfoPunktyDoRysowaniaEEE8allocateEmPKv
FN:102,_ZN9__gnu_cxx13new_allocatorISt10_List_nodeIN3PzG20InfoPlikuDoRysowaniaEEE8allocateEmPKv
FNDA:0,_ZN9__gnu_cxx13new_allocatorISt10_List_nodeIN3PzG20InfoPlikuDoRysowaniaEEE8allocateEmPKv
FN:119,_ZN9__gnu_cxx13new_allocatorISt10_List_nodeIN3PzG21InfoPunktyDoRysowaniaEEE10deallocateEPS4_m
FNDA:0,_ZN9__gnu_cxx13new_allocatorISt10_List_nodeIN3PzG21InfoPunktyDoRysowaniaEEE10deallocateEPS4_m
FN:119,_ZN9__gnu_cxx13new_allocatorISt10_List_nodeIN3PzG20InfoPlikuDoRysowaniaEEE10deallocateEPS4_m
FNDA:0,_ZN9__gnu_cxx13new_allocatorISt10_List_nodeIN3PzG20InfoPlikuDoRysowaniaEEE10deallocateEPS4_m
FN:132,_ZNK9__gnu_cxx13new_allocatorISt10_List_nodeIN3PzG20InfoPlikuDoRysowaniaEEE8max_sizeEv
FNDA:0,_ZNK9__gnu_cxx13new_allocatorISt10_List_nodeIN3PzG20InfoPlikuDoRysowaniaEEE8max_sizeEv
FN:132,_ZNK9__gnu_cxx13new_allocatorISt10_List_nodeIN3PzG21InfoPunktyDoRysowaniaEEE8max_sizeEv
FNDA:0,_ZNK9__gnu_cxx13new_allocatorISt10_List_nodeIN3PzG21InfoPunktyDoRysowaniaEEE8max_sizeEv
FN:144,_ZN9__gnu_cxx13new_allocatorISt10_List_nodeIN3PzG20InfoPlikuDoRysowaniaEEE9constructIS3_JRKS3_EEEvPT_DpOT0_
FNDA:0,_ZN9__gnu_cxx13new_allocatorISt10_List_nodeIN3PzG20InfoPlikuDoRysowaniaEEE9constructIS3_JRKS3_EEEvPT_DpOT0_
FN:144,_ZN9__gnu_cxx13new_allocatorISt10_List_nodeIN3PzG21InfoPunktyDoRysowaniaEEE9constructIS3_JS3_EEEvPT_DpOT0_
FNDA:0,_ZN9__gnu_cxx13new_allocatorISt10_List_nodeIN3PzG21InfoPunktyDoRysowaniaEEE9constructIS3_JS3_EEEvPT_DpOT0_
FN:151,_ZN9__gnu_cxx13new_allocatorISt10_List_nodeIN3PzG20InfoPlikuDoRysowaniaEEE7destroyIS3_EEvPT_
FNDA:0,_ZN9__gnu_cxx13new_allocatorISt10_List_nodeIN3PzG20InfoPlikuDoRysowaniaEEE7destroyIS3_EEvPT_
FN:151,_ZN9__gnu_cxx13new_allocatorISt10_List_nodeIN3PzG21InfoPunktyDoRysowaniaEEE7destroyIS3_EEvPT_
FNDA:0,_ZN9__gnu_cxx13new_allocatorISt10_List_nodeIN3PzG21InfoPunktyDoRysowaniaEEE7destroyIS3_EEvPT_
DA:80,0
DA:80,1
DA:80,0
DA:83,0
DA:89,0
DA:89,1
DA:89,0
DA:102,0
DA:104,0
DA:105,0
DA:114,0
DA:102,0
DA:104,0
DA:105,0
DA:114,0
DA:119,0
DA:128,0
DA:119,0
DA:128,0
DA:132,0
DA:135,0
DA:132,0
DA:135,0
DA:144,0
DA:147,0
DA:144,0
DA:147,0
DA:151,0
DA:153,0
DA:151,0
DA:153,0
end_of_record
SF:/usr/include/c++/9/bits/alloc_traits.h
FN:443,_ZNSt16allocator_traitsISaISt10_List_nodeIN3PzG21InfoPunktyDoRysowaniaEEEE8allocateERS4_m
FNDA:0,_ZNSt16allocator_traitsISaISt10_List_nodeIN3PzG21InfoPunktyDoRysowaniaEEEE8allocateERS4_m
FN:443,_ZNSt16allocator_traitsISaISt10_List_nodeIN3PzG20InfoPlikuDoRysowaniaEEEE8allocateERS4_m
FNDA:0,_ZNSt16allocator_traitsISaISt10_List_nodeIN3PzG20InfoPlikuDoRysowaniaEEEE8allocateERS4_m
FN:469,_ZNSt16allocator_traitsISaISt10_List_nodeIN3PzG21InfoPunktyDoRysowaniaEEEE10deallocateERS4_PS3_m
FNDA:0,_ZNSt16allocator_traitsISaISt10_List_nodeIN3PzG21InfoPunktyDoRysowaniaEEEE10deallocateERS4_PS3_m
FN:469,_ZNSt16allocator_traitsISaISt10_List_nodeIN3PzG20InfoPlikuDoRysowaniaEEEE10deallocateERS4_PS3_m
FNDA:0,_ZNSt16allocator_traitsISaISt10_List_nodeIN3PzG20InfoPlikuDoRysowaniaEEEE10deallocateERS4_PS3_m
FN:482,_ZNSt16allocator_traitsISaISt10_List_nodeIN3PzG21InfoPunktyDoRysowaniaEEEE9constructIS2_JS2_EEEvRS4_PT_DpOT0_
FNDA:0,_ZNSt16allocator_traitsISaISt10_List_nodeIN3PzG21InfoPunktyDoRysowaniaEEEE9constructIS2_JS2_EEEvRS4_PT_DpOT0_
FN:482,_ZNSt16allocator_traitsISaISt10_List_nodeIN3PzG20InfoPlikuDoRysowaniaEEEE9constructIS2_JRKS2_EEEvRS4_PT_DpOT0_
FNDA:0,_ZNSt16allocator_traitsISaISt10_List_nodeIN3PzG20InfoPlikuDoRysowaniaEEEE9constructIS2_JRKS2_EEEvRS4_PT_DpOT0_
FN:495,_ZNSt16allocator_traitsISaISt10_List_nodeIN3PzG21InfoPunktyDoRysowaniaEEEE7destroyIS2_EEvRS4_PT_
FNDA:0,_ZNSt16allocator_traitsISaISt10_List_nodeIN3PzG21InfoPunktyDoRysowaniaEEEE7destroyIS2_EEvRS4_PT_
FN:495,_ZNSt16allocator_traitsISaISt10_List_nodeIN3PzG20InfoPlikuDoRysowaniaEEEE7destroyIS2_EEvRS4_PT_
FNDA:0,_ZNSt16allocator_traitsISaISt10_List_nodeIN3PzG20InfoPlikuDoRysowaniaEEEE7destroyIS2_EEvRS4_PT_
FN:514,_ZNSt16allocator_traitsISaIcEE37select_on_container_copy_constructionERKS0_
FNDA:0,_ZNSt16allocator_traitsISaIcEE37select_on_container_copy_constructionERKS0_
FN:568,_ZSt18__do_alloc_on_swapISaISt10_List_nodeIN3PzG21InfoPunktyDoRysowaniaEEEEvRT_S6_St17integral_constantIbLb0EE
FNDA:0,_ZSt18__do_alloc_on_swapISaISt10_List_nodeIN3PzG21InfoPunktyDoRysowaniaEEEEvRT_S6_St17integral_constantIbLb0EE
FN:572,_ZSt15__alloc_on_swapISaISt10_List_nodeIN3PzG21InfoPunktyDoRysowaniaEEEEvRT_S6_
FNDA:0,_ZSt15__alloc_on_swapISaISt10_List_nodeIN3PzG21InfoPunktyDoRysowaniaEEEEvRT_S6_
DA:443,0
DA:444,0
DA:443,0
DA:444,0
DA:469,0
DA:470,0
DA:469,0
DA:470,0
DA:482,0
DA:484,0
DA:482,0
DA:484,0
DA:495,0
DA:497,0
DA:495,0
DA:497,0
DA:514,0
DA:515,0
DA:568,0
DA:569,0
DA:572,0
DA:576,0
DA:577,0
end_of_record
SF:/usr/include/c++/9/bits/stl_list.h
FN:109,_ZNSt8__detail17_List_node_headerC2Ev
FNDA:1,_ZNSt8__detail17_List_node_headerC2Ev
FN:149,_ZNSt8__detail17_List_node_header7_M_initEv
FNDA:1,_ZNSt8__detail17_List_node_header7_M_initEv
FN:170,_ZNSt10_List_nodeIN3PzG20InfoPlikuDoRysowaniaEE9_M_valptrEv
FNDA:0,_ZNSt10_List_nodeIN3PzG20InfoPlikuDoRysowaniaEE9_M_valptrEv
FN:170,_ZNSt10_List_nodeIN3PzG21InfoPunktyDoRysowaniaEE9_M_valptrEv
FNDA:0,_ZNSt10_List_nodeIN3PzG21InfoPunktyDoRysowaniaEE9_M_valptrEv
FN:171,_ZNKSt10_List_nodeIN3PzG20InfoPlikuDoRysowaniaEE9_M_valptrEv
FNDA:0,_ZNKSt10_List_nodeIN3PzG20InfoPlikuDoRysowaniaEE9_M_valptrEv
FN:171,_ZNKSt10_List_nodeIN3PzG21InfoPunktyDoRysowaniaEE9_M_valptrEv
FNDA:0,_ZNKSt10_List_nodeIN3PzG21InfoPunktyDoRysowaniaEE9_M_valptrEv
FN:200,_ZNSt14_List_iteratorIN3PzG20InfoPlikuDoRysowaniaEEC2EPNSt8__detail15_List_node_baseE
FNDA:0,_ZNSt14_List_iteratorIN3PzG20InfoPlikuDoRysowaniaEEC2EPNSt8__detail15_List_node_baseE
FN:200,_ZNSt14_List_iteratorIN3PzG21InfoPunktyDoRysowaniaEEC2EPNSt8__detail15_List_node_baseE
FNDA:0,_ZNSt14_List_iteratorIN3PzG21InfoPunktyDoRysowaniaEEC2EPNSt8__detail15_List_node_baseE
FN:209,_ZNKSt14_List_iteratorIN3PzG21InfoPunktyDoRysowaniaEEdeEv
FNDA:0,_ZNKSt14_List_iteratorIN3PzG21InfoPunktyDoRysowaniaEEdeEv
FN:209,_ZNKSt14_List_iteratorIN3PzG20InfoPlikuDoRysowaniaEEdeEv
FNDA:0,_ZNKSt14_List_iteratorIN3PzG20InfoPlikuDoRysowaniaEEdeEv
FN:213,_ZNKSt14_List_iteratorIN3PzG21InfoPunktyDoRysowaniaEEptEv
FNDA:0,_ZNKSt14_List_iteratorIN3PzG21InfoPunktyDoRysowaniaEEptEv
FN:217,_ZNSt14_List_iteratorIN3PzG21InfoPunktyDoRysowaniaEEppEv
FNDA:0,_ZNSt14_List_iteratorIN3PzG21InfoPunktyDoRysowaniaEEppEv
FN:217,_ZNSt14_List_iteratorIN3PzG20InfoPlikuDoRysowaniaEEppEv
FNDA:0,_ZNSt14_List_iteratorIN3PzG20InfoPlikuDoRysowaniaEEppEv
FN:232,_ZNSt14_List_iteratorIN3PzG21InfoPunktyDoRysowaniaEEmmEv
FNDA:0,_ZNSt14_List_iteratorIN3PzG21InfoPunktyDoRysowaniaEEmmEv
FN:232,_ZNSt14_List_iteratorIN3PzG20InfoPlikuDoRysowaniaEEmmEv
FNDA:0,_ZNSt14_List_iteratorIN3PzG20InfoPlikuDoRysowaniaEEmmEv
FN:251,_ZStneRKSt14_List_iteratorIN3PzG21InfoPunktyDoRysowaniaEES4_
FNDA:0,_ZStneRKSt14_List_iteratorIN3PzG21InfoPunktyDoRysowaniaEES4_
FN:251,_ZStneRKSt14_List_iteratorIN3PzG20InfoPlikuDoRysowaniaEES4_
FNDA:0,_ZStneRKSt14_List_iteratorIN3PzG20InfoPlikuDoRysowaniaEES4_
FN:280,_ZNSt20_List_const_iteratorIN3PzG21InfoPunktyDoRysowaniaEEC2EPKNSt8__detail15_List_node_baseE
FNDA:0,_ZNSt20_List_const_iteratorIN3PzG21InfoPunktyDoRysowaniaEEC2EPKNSt8__detail15_List_node_baseE
FN:280,_ZNSt20_List_const_iteratorIN3PzG20InfoPlikuDoRysowaniaEEC2EPKNSt8__detail15_List_node_baseE
FNDA:0,_ZNSt20_List_const_iteratorIN3PzG20InfoPlikuDoRysowaniaEEC2EPKNSt8__detail15_List_node_baseE
FN:284,_ZNSt20_List_const_iteratorIN3PzG21InfoPunktyDoRysowaniaEEC2ERKSt14_List_iteratorIS1_E
FNDA:0,_ZNSt20_List_const_iteratorIN3PzG21InfoPunktyDoRysowaniaEEC2ERKSt14_List_iteratorIS1_E
FN:284,_ZNSt20_List_const_iteratorIN3PzG20InfoPlikuDoRysowaniaEEC2ERKSt14_List_iteratorIS1_E
FNDA:0,_ZNSt20_List_const_iteratorIN3PzG20InfoPlikuDoRysowaniaEEC2ERKSt14_List_iteratorIS1_E
FN:288,_ZNKSt20_List_const_iteratorIN3PzG20InfoPlikuDoRysowaniaEE13_M_const_castEv
FNDA:0,_ZNKSt20_List_const_iteratorIN3PzG20InfoPlikuDoRysowaniaEE13_M_const_castEv
FN:288,_ZNKSt20_List_const_iteratorIN3PzG21InfoPunktyDoRysowaniaEE13_M_const_castEv
FNDA:0,_ZNKSt20_List_const_iteratorIN3PzG21InfoPunktyDoRysowaniaEE13_M_const_castEv
FN:293,_ZNKSt20_List_const_iteratorIN3PzG20InfoPlikuDoRysowaniaEEdeEv
FNDA:0,_ZNKSt20_List_const_iteratorIN3PzG20InfoPlikuDoRysowaniaEEdeEv
FN:297,_ZNKSt20_List_const_iteratorIN3PzG21InfoPunktyDoRysowaniaEEptEv
FNDA:0,_ZNKSt20_List_const_iteratorIN3PzG21InfoPunktyDoRysowaniaEEptEv
FN:297,_ZNKSt20_List_const_iteratorIN3PzG20InfoPlikuDoRysowaniaEEptEv
FNDA:0,_ZNKSt20_List_const_iteratorIN3PzG20InfoPlikuDoRysowaniaEEptEv
FN:301,_ZNSt20_List_const_iteratorIN3PzG21InfoPunktyDoRysowaniaEEppEv
FNDA:0,_ZNSt20_List_const_iteratorIN3PzG21InfoPunktyDoRysowaniaEEppEv
FN:301,_ZNSt20_List_const_iteratorIN3PzG20InfoPlikuDoRysowaniaEEppEv
FNDA:0,_ZNSt20_List_const_iteratorIN3PzG20InfoPlikuDoRysowaniaEEppEv
FN:331,_ZSteqRKSt20_List_const_iteratorIN3PzG21InfoPunktyDoRysowaniaEES4_
FNDA:0,_ZSteqRKSt20_List_const_iteratorIN3PzG21InfoPunktyDoRysowaniaEES4_
FN:335,_ZStneRKSt20_List_const_iteratorIN3PzG21InfoPunktyDoRysowaniaEES4_
FNDA:0,_ZStneRKSt20_List_const_iteratorIN3PzG21InfoPunktyDoRysowaniaEES4_
FN:335,_ZStneRKSt20_List_const_iteratorIN3PzG20InfoPlikuDoRysowaniaEES4_
FNDA:0,_ZStneRKSt20_List_const_iteratorIN3PzG20InfoPlikuDoRysowaniaEES4_
FN:375,_ZNSt7__cxx1110_List_baseIN3PzG20InfoPlikuDoRysowaniaESaIS2_EE10_List_implC2Ev
FNDA:1,_ZNSt7__cxx1110_List_baseIN3PzG20InfoPlikuDoRysowaniaESaIS2_EE10_List_implC2Ev
FN:375,_ZNSt7__cxx1110_List_baseIN3PzG21InfoPunktyDoRysowaniaESaIS2_EE10_List_implC2Ev
FNDA:0,_ZNSt7__cxx1110_List_baseIN3PzG21InfoPunktyDoRysowaniaESaIS2_EE10_List_implC2Ev
FN:400,_ZNKSt7__cxx1110_List_baseIN3PzG21InfoPunktyDoRysowaniaESaIS2_EE11_M_get_sizeEv
FNDA:0,_ZNKSt7__cxx1110_List_baseIN3PzG21InfoPunktyDoRysowaniaESaIS2_EE11_M_get_sizeEv
FN:402,_ZNSt7__cxx1110_List_baseIN3PzG21InfoPunktyDoRysowaniaESaIS2_EE11_M_set_sizeEm
FNDA:0,_ZNSt7__cxx1110_List_baseIN3PzG21InfoPunktyDoRysowaniaESaIS2_EE11_M_set_sizeEm
FN:404,_ZNSt7__cxx1110_List_baseIN3PzG21InfoPunktyDoRysowaniaESaIS2_EE11_M_inc_sizeEm
FNDA:0,_ZNSt7__cxx1110_List_baseIN3PzG21InfoPunktyDoRysowaniaESaIS2_EE11_M_inc_sizeEm
FN:404,_ZNSt7__cxx1110_List_baseIN3PzG20InfoPlikuDoRysowaniaESaIS2_EE11_M_inc_sizeEm
FNDA:0,_ZNSt7__cxx1110_List_baseIN3PzG20InfoPlikuDoRysowaniaESaIS2_EE11_M_inc_sizeEm
FN:406,_ZNSt7__cxx1110_List_baseIN3PzG20InfoPlikuDoRysowaniaESaIS2_EE11_M_dec_sizeEm
FNDA:0,_ZNSt7__cxx1110_List_baseIN3PzG20InfoPlikuDoRysowaniaESaIS2_EE11_M_dec_sizeEm
FN:406,_ZNSt7__cxx1110_List_baseIN3PzG21InfoPunktyDoRysowaniaESaIS2_EE11_M_dec_sizeEm
FNDA:0,_ZNSt7__cxx1110_List_baseIN3PzG21InfoPunktyDoRysowaniaESaIS2_EE11_M_dec_sizeEm
FN:437,_ZNSt7__cxx1110_List_baseIN3PzG20InfoPlikuDoRysowaniaESaIS2_EE11_M_get_nodeEv
FNDA:0,_ZNSt7__cxx1110_List_baseIN3PzG20InfoPlikuDoRysowaniaESaIS2_EE11_M_get_nodeEv
FN:437,_ZNSt7__cxx1110_List_baseIN3PzG21InfoPunktyDoRysowaniaESaIS2_EE11_M_get_nodeEv
FNDA:0,_ZNSt7__cxx1110_List_baseIN3PzG21InfoPunktyDoRysowaniaESaIS2_EE11_M_get_nodeEv
FN:441,_ZNSt7__cxx1110_List_baseIN3PzG20InfoPlikuDoRysowaniaESaIS2_EE11_M_put_nodeEPSt10_List_nodeIS2_E
FNDA:0,_ZNSt7__cxx1110_List_baseIN3PzG20InfoPlikuDoRysowaniaESaIS2_EE11_M_put_nodeEPSt10_List_nodeIS2_E
FN:441,_ZNSt7__cxx1110_List_baseIN3PzG21InfoPunktyDoRysowaniaESaIS2_EE11_M_put_nodeEPSt10_List_nodeIS2_E
FNDA:0,_ZNSt7__cxx1110_List_baseIN3PzG21InfoPunktyDoRysowaniaESaIS2_EE11_M_put_nodeEPSt10_List_nodeIS2_E
FN:448,_ZNSt7__cxx1110_List_baseIN3PzG20InfoPlikuDoRysowaniaESaIS2_EE21_M_get_Node_allocatorEv
FNDA:0,_ZNSt7__cxx1110_List_baseIN3PzG20InfoPlikuDoRysowaniaESaIS2_EE21_M_get_Node_allocatorEv
FN:448,_ZNSt7__cxx1110_List_baseIN3PzG21InfoPunktyDoRysowaniaESaIS2_EE21_M_get_Node_allocatorEv
FNDA:0,_ZNSt7__cxx1110_List_baseIN3PzG21InfoPunktyDoRysowaniaESaIS2_EE21_M_get_Node_allocatorEv
FN:456,_ZNSt7__cxx1110_List_baseIN3PzG20InfoPlikuDoRysowaniaESaIS2_EEC2Ev
FNDA:1,_ZNSt7__cxx1110_List_baseIN3PzG20InfoPlikuDoRysowaniaESaIS2_EEC2Ev
FN:456,_ZNSt7__cxx1110_List_baseIN3PzG21InfoPunktyDoRysowaniaESaIS2_EEC2Ev
FNDA:0,_ZNSt7__cxx1110_List_baseIN3PzG21InfoPunktyDoRysowaniaESaIS2_EEC2Ev
FN:494,_ZNSt7__cxx1110_List_baseIN3PzG21InfoPunktyDoRysowaniaESaIS2_EED2Ev
FNDA:0,_ZNSt7__cxx1110_List_baseIN3PzG21InfoPunktyDoRysowaniaESaIS2_EED2Ev
FN:494,_ZNSt7__cxx1110_List_baseIN3PzG20InfoPlikuDoRysowaniaESaIS2_EED2Ev
FNDA:1,_ZNSt7__cxx1110_List_baseIN3PzG20InfoPlikuDoRysowaniaESaIS2_EED2Ev
FN:501,_ZNSt7__cxx1110_List_baseIN3PzG20InfoPlikuDoRysowaniaESaIS2_EE7_M_initEv
FNDA:0,_ZNSt7__cxx1110_List_baseIN3PzG20InfoPlikuDoRysowaniaESaIS2_EE7_M_initEv
FN:628,_ZNSt7__cxx114listIN3PzG20InfoPlikuDoRysowaniaESaIS2_EE14_M_create_nodeIJRKS2_EEEPSt10_List_nodeIS2_EDpOT_
FNDA:0,_ZNSt7__cxx114listIN3PzG20InfoPlikuDoRysowaniaESaIS2_EE14_M_create_nodeIJRKS2_EEEPSt10_List_nodeIS2_EDpOT_
FN:628,_ZNSt7__cxx114listIN3PzG21InfoPunktyDoRysowaniaESaIS2_EE14_M_create_nodeIJS2_EEEPSt10_List_nodeIS2_EDpOT_
FNDA:0,_ZNSt7__cxx114listIN3PzG21InfoPunktyDoRysowaniaESaIS2_EE14_M_create_nodeIJS2_EEEPSt10_List_nodeIS2_EDpOT_
FN:647,_ZNKSt7__cxx114listIN3PzG21InfoPunktyDoRysowaniaESaIS2_EE13_M_node_countEv
FNDA:0,_ZNKSt7__cxx114listIN3PzG21InfoPunktyDoRysowaniaESaIS2_EE13_M_node_countEv
FN:669,_ZNSt7__cxx114listIN3PzG20InfoPlikuDoRysowaniaESaIS2_EEC2Ev
FNDA:1,_ZNSt7__cxx114listIN3PzG20InfoPlikuDoRysowaniaESaIS2_EEC2Ev
FN:669,_ZNSt7__cxx114listIN3PzG21InfoPunktyDoRysowaniaESaIS2_EEC2Ev
FNDA:0,_ZNSt7__cxx114listIN3PzG21InfoPunktyDoRysowaniaESaIS2_EEC2Ev
FN:823,_ZNSt7__cxx114listIN3PzG21InfoPunktyDoRysowaniaESaIS2_EED2Ev
FNDA:0,_ZNSt7__cxx114listIN3PzG21InfoPunktyDoRysowaniaESaIS2_EED2Ev
FN:823,_ZNSt7__cxx114listIN3PzG20InfoPlikuDoRysowaniaESaIS2_EED2Ev
FNDA:1,_ZNSt7__cxx114listIN3PzG20InfoPlikuDoRysowaniaESaIS2_EED2Ev
FN:941,_ZNSt7__cxx114listIN3PzG21InfoPunktyDoRysowaniaESaIS2_EE5beginEv
FNDA:0,_ZNSt7__cxx114listIN3PzG21InfoPunktyDoRysowaniaESaIS2_EE5beginEv
FN:941,_ZNSt7__cxx114listIN3PzG20InfoPlikuDoRysowaniaESaIS2_EE5beginEv
FNDA:0,_ZNSt7__cxx114listIN3PzG20InfoPlikuDoRysowaniaESaIS2_EE5beginEv
FN:950,_ZNKSt7__cxx114listIN3PzG20InfoPlikuDoRysowaniaESaIS2_EE5beginEv
FNDA:0,_ZNKSt7__cxx114listIN3PzG20InfoPlikuDoRysowaniaESaIS2_EE5beginEv
FN:950,_ZNKSt7__cxx114listIN3PzG21InfoPunktyDoRysowaniaESaIS2_EE5beginEv
FNDA:0,_ZNKSt7__cxx114listIN3PzG21InfoPunktyDoRysowaniaESaIS2_EE5beginEv
FN:959,_ZNSt7__cxx114listIN3PzG21InfoPunktyDoRysowaniaESaIS2_EE3endEv
FNDA:0,_ZNSt7__cxx114listIN3PzG21InfoPunktyDoRysowaniaESaIS2_EE3endEv
FN:959,_ZNSt7__cxx114listIN3PzG20InfoPlikuDoRysowaniaESaIS2_EE3endEv
FNDA:0,_ZNSt7__cxx114listIN3PzG20InfoPlikuDoRysowaniaESaIS2_EE3endEv
FN:968,_ZNKSt7__cxx114listIN3PzG20InfoPlikuDoRysowaniaESaIS2_EE3endEv
FNDA:0,_ZNKSt7__cxx114listIN3PzG20InfoPlikuDoRysowaniaESaIS2_EE3endEv
FN:968,_ZNKSt7__cxx114listIN3PzG21InfoPunktyDoRysowaniaESaIS2_EE3endEv
FNDA:0,_ZNKSt7__cxx114listIN3PzG21InfoPunktyDoRysowaniaESaIS2_EE3endEv
FN:977,_ZNSt7__cxx114listIN3PzG21InfoPunktyDoRysowaniaESaIS2_EE6rbeginEv
FNDA:0,_ZNSt7__cxx114listIN3PzG21InfoPunktyDoRysowaniaESaIS2_EE6rbeginEv
FN:1051,_ZNKSt7__cxx114listIN3PzG20InfoPlikuDoRysowaniaESaIS2_EE5emptyEv
FNDA:0,_ZNKSt7__cxx114listIN3PzG20InfoPlikuDoRysowaniaESaIS2_EE5emptyEv
FN:1051,_ZNKSt7__cxx114listIN3PzG21InfoPunktyDoRysowaniaESaIS2_EE5emptyEv
FNDA:0,_ZNKSt7__cxx114listIN3PzG21InfoPunktyDoRysowaniaESaIS2_EE5emptyEv
FN:1056,_ZNKSt7__cxx114listIN3PzG21InfoPunktyDoRysowaniaESaIS2_EE4sizeEv
FNDA:0,_ZNKSt7__cxx114listIN3PzG21InfoPunktyDoRysowaniaESaIS2_EE4sizeEv
FN:1126,_ZNSt7__cxx114listIN3PzG20InfoPlikuDoRysowaniaESaIS2_EE4backEv
FNDA:0,_ZNSt7__cxx114listIN3PzG20InfoPlikuDoRysowaniaESaIS2_EE4backEv
FN:1207,_ZNSt7__cxx114listIN3PzG20InfoPlikuDoRysowaniaESaIS2_EE9push_backERKS2_
FNDA:0,_ZNSt7__cxx114listIN3PzG20InfoPlikuDoRysowaniaESaIS2_EE9push_backERKS2_
FN:1212,_ZNSt7__cxx114listIN3PzG21InfoPunktyDoRysowaniaESaIS2_EE9push_backEOS2_
FNDA:0,_ZNSt7__cxx114listIN3PzG21InfoPunktyDoRysowaniaESaIS2_EE9push_backEOS2_
FN:1474,_ZNSt7__cxx114listIN3PzG21InfoPunktyDoRysowaniaESaIS2_EE4swapERS4_
FNDA:0,_ZNSt7__cxx114listIN3PzG21InfoPunktyDoRysowaniaESaIS2_EE4swapERS4_
FN:1494,_ZNSt7__cxx114listIN3PzG20InfoPlikuDoRysowaniaESaIS2_EE5clearEv
FNDA:0,_ZNSt7__cxx114listIN3PzG20InfoPlikuDoRysowaniaESaIS2_EE5clearEv
FN:1514,_ZNSt7__cxx114listIN3PzG21InfoPunktyDoRysowaniaESaIS2_EE6spliceESt20_List_const_iteratorIS2_EOS4_
FNDA:0,_ZNSt7__cxx114listIN3PzG21InfoPunktyDoRysowaniaESaIS2_EE6spliceESt20_List_const_iteratorIS2_EOS4_
FN:1533,_ZNSt7__cxx114listIN3PzG21InfoPunktyDoRysowaniaESaIS2_EE6spliceESt20_List_const_iteratorIS2_ERS4_
FNDA:0,_ZNSt7__cxx114listIN3PzG21InfoPunktyDoRysowaniaESaIS2_EE6spliceESt20_List_const_iteratorIS2_ERS4_
FN:1549,_ZNSt7__cxx114listIN3PzG21InfoPunktyDoRysowaniaESaIS2_EE6spliceESt20_List_const_iteratorIS2_EOS4_S6_
FNDA:0,_ZNSt7__cxx114listIN3PzG21InfoPunktyDoRysowaniaESaIS2_EE6spliceESt20_List_const_iteratorIS2_EOS4_S6_
FN:1591,_ZNSt7__cxx114listIN3PzG21InfoPunktyDoRysowaniaESaIS2_EE6spliceESt20_List_const_iteratorIS2_ERS4_S6_
FNDA:0,_ZNSt7__cxx114listIN3PzG21InfoPunktyDoRysowaniaESaIS2_EE6spliceESt20_List_const_iteratorIS2_ERS4_S6_
FN:1753,_ZNSt7__cxx114listIN3PzG21InfoPunktyDoRysowaniaESaIS2_EE5mergeERS4_
FNDA:0,_ZNSt7__cxx114listIN3PzG21InfoPunktyDoRysowaniaESaIS2_EE5mergeERS4_
FN:1890,_ZNSt7__cxx114listIN3PzG21InfoPunktyDoRysowaniaESaIS2_EE11_M_transferESt14_List_iteratorIS2_ES6_S6_
FNDA:0,_ZNSt7__cxx114listIN3PzG21InfoPunktyDoRysowaniaESaIS2_EE11_M_transferESt14_List_iteratorIS2_ES6_S6_
FN:1905,_ZNSt7__cxx114listIN3PzG21InfoPunktyDoRysowaniaESaIS2_EE9_M_insertIJS2_EEEvSt14_List_iteratorIS2_EDpOT_
FNDA:0,_ZNSt7__cxx114listIN3PzG21InfoPunktyDoRysowaniaESaIS2_EE9_M_insertIJS2_EEEvSt14_List_iteratorIS2_EDpOT_
FN:1905,_ZNSt7__cxx114listIN3PzG20InfoPlikuDoRysowaniaESaIS2_EE9_M_insertIJRKS2_EEEvSt14_List_iteratorIS2_EDpOT_
FNDA:0,_ZNSt7__cxx114listIN3PzG20InfoPlikuDoRysowaniaESaIS2_EE9_M_insertIJRKS2_EEEvSt14_List_iteratorIS2_EDpOT_
FN:1915,_ZNSt7__cxx114listIN3PzG20InfoPlikuDoRysowaniaESaIS2_EE8_M_eraseESt14_List_iteratorIS2_E
FNDA:0,_ZNSt7__cxx114listIN3PzG20InfoPlikuDoRysowaniaESaIS2_EE8_M_eraseESt14_List_iteratorIS2_E
FN:1931,_ZNSt7__cxx114listIN3PzG21InfoPunktyDoRysowaniaESaIS2_EE25_M_check_equal_allocatorsERS4_
FNDA:0,_ZNSt7__cxx114listIN3PzG21InfoPunktyDoRysowaniaESaIS2_EE25_M_check_equal_allocatorsERS4_
DA:109,1
DA:110,1
DA:149,1
DA:151,1
DA:153,1
DA:155,1
DA:170,0
DA:170,0
DA:171,0
DA:171,0
DA:200,0
DA:201,0
DA:200,0
DA:201,0
DA:209,0
DA:210,0
DA:209,0
DA:210,0
DA:213,0
DA:214,0
DA:217,0
DA:219,0
DA:220,0
DA:217,0
DA:219,0
DA:220,0
DA:232,0
DA:234,0
DA:235,0
DA:232,0
DA:234,0
DA:235,0
DA:251,0
DA:252,0
DA:251,0
DA:252,0
DA:280,0
DA:282,0
DA:280,0
DA:282,0
DA:284,0
DA:285,0
DA:284,0
DA:285,0
DA:288,0
DA:289,0
DA:288,0
DA:289,0
DA:293,0
DA:294,0
DA:297,0
DA:298,0
DA:297,0
DA:298,0
DA:301,0
DA:303,0
DA:304,0
DA:301,0
DA:303,0
DA:304,0
DA:331,0
DA:332,0
DA:335,0
DA:336,0
DA:335,0
DA:336,0
DA:375,0
DA:377,0
DA:378,0
DA:375,1
DA:377,1
DA:378,1
DA:400,0
DA:402,0
DA:404,0
DA:404,0
DA:406,0
DA:406,0
DA:437,0
DA:438,0
DA:437,0
DA:438,0
DA:441,0
DA:442,0
DA:441,0
DA:442,0
DA:448,0
DA:449,0
DA:448,0
DA:449,0
DA:456,0
DA:456,1
DA:494,0
DA:495,0
DA:494,1
DA:495,1
DA:501,0
DA:502,0
DA:628,0
DA:630,0
DA:631,0
DA:632,0
DA:633,0
DA:635,0
DA:636,0
DA:628,0
DA:630,0
DA:631,0
DA:632,0
DA:633,0
DA:635,0
DA:636,0
DA:647,0
DA:648,0
DA:669,0
DA:669,1
DA:823,0
DA:823,1
DA:941,0
DA:942,0
DA:941,0
DA:942,0
DA:950,0
DA:951,0
DA:950,0
DA:951,0
DA:959,0
DA:960,0
DA:959,0
DA:960,0
DA:968,0
DA:969,0
DA:968,0
DA:969,0
DA:977,0
DA:978,0
DA:1051,0
DA:1052,0
DA:1051,0
DA:1052,0
DA:1056,0
DA:1057,0
DA:1126,0
DA:1128,0
DA:1129,0
DA:1130,0
DA:1207,0
DA:1208,0
DA:1212,0
DA:1213,0
DA:1474,0
DA:1476,0
DA:1479,0
DA:1480,0
DA:1481,0
DA:1483,0
DA:1485,0
DA:1494,0
DA:1496,0
DA:1497,0
DA:1498,0
DA:1514,0
DA:1519,0
DA:1521,0
DA:1523,0
DA:1526,0
DA:1527,0
DA:1529,0
DA:1533,0
DA:1534,0
DA:1549,0
DA:1564,0
DA:1565,0
DA:1566,0
DA:1567,0
DA:1569,0
DA:1570,0
DA:1572,0
DA:1575,0
DA:1576,0
DA:1591,0
DA:1592,0
DA:1753,0
DA:1754,0
DA:1890,0
DA:1891,0
DA:1905,0
DA:1907,0
DA:1908,0
DA:1909,0
DA:1910,0
DA:1905,0
DA:1907,0
DA:1908,0
DA:1909,0
DA:1910,0
DA:1915,0
DA:1917,0
DA:1918,0
DA:1919,0
DA:1921,0
DA:1926,0
DA:1927,0
DA:1931,0
DA:1933,0
DA:1934,0
DA:1935,0
DA:1936,0
end_of_record
SF:/usr/include/c++/9/bits/char_traits.h
FN:100,_ZN9__gnu_cxx11char_traitsIcE2eqERKcS3_
FNDA:0,_ZN9__gnu_cxx11char_traitsIcE2eqERKcS3_
FN:104,_ZN9__gnu_cxx11char_traitsIcE2ltERKcS3_
FNDA:0,_ZN9__gnu_cxx11char_traitsIcE2ltERKcS3_
FN:148,_ZN9__gnu_cxx11char_traitsIcE7compareEPKcS3_m
FNDA:0,_ZN9__gnu_cxx11char_traitsIcE7compareEPKcS3_m
FN:161,_ZN9__gnu_cxx11char_traitsIcE6lengthEPKc
FNDA:0,_ZN9__gnu_cxx11char_traitsIcE6lengthEPKc
FN:315,_ZNSt11char_traitsIcE7compareEPKcS2_m
FNDA:0,_ZNSt11char_traitsIcE7compareEPKcS2_m
FN:329,_ZNSt11char_traitsIcE6lengthEPKc
FNDA:0,_ZNSt11char_traitsIcE6lengthEPKc
FN:361,_ZNSt11char_traitsIcE4copyEPcPKcm
FNDA:0,_ZNSt11char_traitsIcE4copyEPcPKcm
DA:100,0
DA:101,0
DA:104,0
DA:105,0
DA:148,0
DA:151,0
DA:152,0
DA:153,0
DA:154,0
DA:155,0
DA:156,0
DA:161,0
DA:164,0
DA:165,0
DA:166,0
DA:167,0
DA:236,0
DA:315,0
DA:317,0
DA:318,0
DA:320,0
DA:322,0
DA:323,0
DA:325,0
DA:329,0
DA:332,0
DA:333,0
DA:335,0
DA:361,0
DA:363,0
DA:364,0
DA:365,0
end_of_record
SF:/usr/include/c++/9/bits/stl_iterator.h
FN:137,_ZNSt16reverse_iteratorISt14_List_iteratorIN3PzG21InfoPunktyDoRysowaniaEEEC2ES3_
FNDA:0,_ZNSt16reverse_iteratorISt14_List_iteratorIN3PzG21InfoPunktyDoRysowaniaEEEC2ES3_
FN:189,_ZNKSt16reverse_iteratorISt14_List_iteratorIN3PzG21InfoPunktyDoRysowaniaEEEptEv
FNDA:0,_ZNKSt16reverse_iteratorISt14_List_iteratorIN3PzG21InfoPunktyDoRysowaniaEEEptEv
FN:204,_ZNSt16reverse_iteratorISt14_List_iteratorIN3PzG21InfoPunktyDoRysowaniaEEEppEv
FNDA:0,_ZNSt16reverse_iteratorISt14_List_iteratorIN3PzG21InfoPunktyDoRysowaniaEEEppEv
FN:309,_ZNSt16reverse_iteratorISt14_List_iteratorIN3PzG21InfoPunktyDoRysowaniaEEE13_S_to_pointerIS3_EEPS2_T_
FNDA:0,_ZNSt16reverse_iteratorISt14_List_iteratorIN3PzG21InfoPunktyDoRysowaniaEEE13_S_to_pointerIS3_EEPS2_T_
DA:137,0
DA:189,0
DA:193,0
DA:194,0
DA:195,0
DA:204,0
DA:206,0
DA:207,0
DA:309,0
DA:310,0
end_of_record
SF:/usr/include/c++/9/bits/stl_iterator_base_funcs.h
FN:98,_ZSt10__distanceIPcENSt15iterator_traitsIT_E15difference_typeES2_S2_St26random_access_iterator_tag
FNDA:0,_ZSt10__distanceIPcENSt15iterator_traitsIT_E15difference_typeES2_S2_St26random_access_iterator_tag
FN:98,_ZSt10__distanceIPKcENSt15iterator_traitsIT_E15difference_typeES3_S3_St26random_access_iterator_tag
FNDA:0,_ZSt10__distanceIPKcENSt15iterator_traitsIT_E15difference_typeES3_S3_St26random_access_iterator_tag
FN:138,_ZSt8distanceIPcENSt15iterator_traitsIT_E15difference_typeES2_S2_
FNDA:0,_ZSt8distanceIPcENSt15iterator_traitsIT_E15difference_typeES2_S2_
FN:138,_ZSt8distanceIPKcENSt15iterator_traitsIT_E15difference_typeES3_S3_
FNDA:0,_ZSt8distanceIPKcENSt15iterator_traitsIT_E15difference_typeES3_S3_
DA:98,0
DA:104,0
DA:98,0
DA:104,0
DA:138,0
DA:141,0
DA:142,0
DA:138,0
DA:141,0
DA:142,0
end_of_record
SF:/usr/include/c++/9/bits/allocator.h
FN:138,_ZNSaISt10_List_nodeIN3PzG21InfoPunktyDoRysowaniaEEEC2Ev
FNDA:0,_ZNSaISt10_List_nodeIN3PzG21InfoPunktyDoRysowaniaEEEC2Ev
FN:138,_ZNSaISt10_List_nodeIN3PzG20InfoPlikuDoRysowaniaEEEC2Ev
FNDA:1,_ZNSaISt10_List_nodeIN3PzG20InfoPlikuDoRysowaniaEEEC2Ev
FN:153,_ZNSaISt10_List_nodeIN3PzG21InfoPunktyDoRysowaniaEEED2Ev
FNDA:0,_ZNSaISt10_List_nodeIN3PzG21InfoPunktyDoRysowaniaEEED2Ev
FN:153,_ZNSaISt10_List_nodeIN3PzG20InfoPlikuDoRysowaniaEEED2Ev
FNDA:1,_ZNSaISt10_List_nodeIN3PzG20InfoPlikuDoRysowaniaEEED2Ev
FN:238,_ZNSt11__alloc_neqISaISt10_List_nodeIN3PzG21InfoPunktyDoRysowaniaEEELb1EE8_S_do_itERKS4_S7_
FNDA:0,_ZNSt11__alloc_neqISaISt10_List_nodeIN3PzG21InfoPunktyDoRysowaniaEEELb1EE8_S_do_itERKS4_S7_
DA:138,0
DA:138,1
DA:153,0
DA:153,1
DA:238,0
DA:239,0
end_of_record
SF:/usr/include/c++/9/bits/list.tcc
FN:66,_ZNSt7__cxx1110_List_baseIN3PzG21InfoPunktyDoRysowaniaESaIS2_EE8_M_clearEv
FNDA:0,_ZNSt7__cxx1110_List_baseIN3PzG21InfoPunktyDoRysowaniaESaIS2_EE8_M_clearEv
FN:66,_ZNSt7__cxx1110_List_baseIN3PzG20InfoPlikuDoRysowaniaESaIS2_EE8_M_clearEv
FNDA:1,_ZNSt7__cxx1110_List_baseIN3PzG20InfoPlikuDoRysowaniaESaIS2_EE8_M_clearEv
FN:150,_ZNSt7__cxx114listIN3PzG20InfoPlikuDoRysowaniaESaIS2_EE5eraseESt20_List_const_iteratorIS2_E
FNDA:0,_ZNSt7__cxx114listIN3PzG20InfoPlikuDoRysowaniaESaIS2_EE5eraseESt20_List_const_iteratorIS2_E
FN:392,_ZNSt7__cxx114listIN3PzG21InfoPunktyDoRysowaniaESaIS2_EE5mergeEOS4_
FNDA:0,_ZNSt7__cxx114listIN3PzG21InfoPunktyDoRysowaniaESaIS2_EE5mergeEOS4_
FN:486,_ZNSt7__cxx114listIN3PzG21InfoPunktyDoRysowaniaESaIS2_EE4sortEv
FNDA:0,_ZNSt7__cxx114listIN3PzG21InfoPunktyDoRysowaniaESaIS2_EE4sortEv
FN:533,_ZNSt7__cxx114listIN3PzG20InfoPlikuDoRysowaniaESaIS2_EE9remove_ifIZNS1_15LaczeDoGNUPlota14UsunNazwePlikuERKNS_12basic_stringIcSt11char_traitsIcESaIcEEENS1_18TypDostepuDoZasobuEE13TakaSamaNazwaEEvT_
FNDA:0,_ZNSt7__cxx114listIN3PzG20InfoPlikuDoRysowaniaESaIS2_EE9remove_ifIZNS1_15LaczeDoGNUPlota14UsunNazwePlikuERKNS_12basic_stringIcSt11char_traitsIcESaIcEEENS1_18TypDostepuDoZasobuEE13TakaSamaNazwaEEvT_
DA:66,0
DA:70,0
DA:71,0
DA:73,0
DA:74,0
DA:75,0
DA:77,0
DA:81,0
DA:83,0
DA:66,1
DA:70,1
DA:71,1
DA:73,0
DA:74,0
DA:75,0
DA:77,0
DA:81,0
DA:83,1
DA:150,0
DA:157,0
DA:158,0
DA:159,0
DA:392,0
DA:401,0
DA:403,0
DA:405,0
DA:406,0
DA:407,0
DA:408,0
DA:409,0
DA:411,0
DA:412,0
DA:414,0
DA:415,0
DA:416,0
DA:419,0
DA:420,0
DA:421,0
DA:423,0
DA:424,0
DA:434,0
DA:486,0
DA:490,0
DA:491,0
DA:493,0
DA:494,0
DA:495,0
DA:499,0
DA:501,0
DA:503,0
DA:504,0
DA:507,0
DA:508,0
DA:510,0
DA:511,0
DA:512,0
DA:514,0
DA:516,0
DA:517,0
DA:518,0
DA:520,0
DA:522,0
DA:523,0
DA:524,0
DA:525,0
DA:528,0
DA:533,0
DA:536,0
DA:537,0
DA:538,0
DA:539,0
DA:541,0
DA:542,0
DA:543,0
DA:545,0
DA:548,0
DA:550,0
end_of_record
SF:/usr/include/c++/9/bits/move.h
FN:47,_ZSt11__addressofISaISt10_List_nodeIN3PzG21InfoPunktyDoRysowaniaEEEEPT_RS5_
FNDA:0,_ZSt11__addressofISaISt10_List_nodeIN3PzG21InfoPunktyDoRysowaniaEEEEPT_RS5_
FN:47,_ZSt11__addressofISaISt10_List_nodeIN3PzG20InfoPlikuDoRysowaniaEEEEPT_RS5_
FNDA:0,_ZSt11__addressofISaISt10_List_nodeIN3PzG20InfoPlikuDoRysowaniaEEEEPT_RS5_
FN:47,_ZSt11__addressofINSt7__cxx114listIN3PzG21InfoPunktyDoRysowaniaESaIS3_EEEEPT_RS6_
FNDA:0,_ZSt11__addressofINSt7__cxx114listIN3PzG21InfoPunktyDoRysowaniaESaIS3_EEEEPT_RS6_
FN:74,_ZSt7forwardIN3PzG21InfoPunktyDoRysowaniaEEOT_RNSt16remove_referenceIS2_E4typeE
FNDA:0,_ZSt7forwardIN3PzG21InfoPunktyDoRysowaniaEEOT_RNSt16remove_referenceIS2_E4typeE
FN:74,_ZSt7forwardIRKN3PzG20InfoPlikuDoRysowaniaEEOT_RNSt16remove_referenceIS4_E4typeE
FNDA:0,_ZSt7forwardIRKN3PzG20InfoPlikuDoRysowaniaEEOT_RNSt16remove_referenceIS4_E4typeE
FN:99,_ZSt4moveIRNSt7__cxx114listIN3PzG21InfoPunktyDoRysowaniaESaIS3_EEEEONSt16remove_referenceIT_E4typeEOS8_
FNDA:0,_ZSt4moveIRNSt7__cxx114listIN3PzG21InfoPunktyDoRysowaniaESaIS3_EEEEONSt16remove_referenceIT_E4typeEOS8_
FN:99,_ZSt4moveIRSaIcEEONSt16remove_referenceIT_E4typeEOS3_
FNDA:0,_ZSt4moveIRSaIcEEONSt16remove_referenceIT_E4typeEOS3_
FN:99,_ZSt4moveIRN3PzG21InfoPunktyDoRysowaniaEEONSt16remove_referenceIT_E4typeEOS4_
FNDA:0,_ZSt4moveIRN3PzG21InfoPunktyDoRysowaniaEEONSt16remove_referenceIT_E4typeEOS4_
FN:99,_ZSt4moveIRNSt7__cxx1112basic_stringIcSt11char_traitsIcESaIcEEEEONSt16remove_referenceIT_E4typeEOS8_
FNDA:0,_ZSt4moveIRNSt7__cxx1112basic_stringIcSt11char_traitsIcESaIcEEEEONSt16remove_referenceIT_E4typeEOS8_
DA:47,0
DA:48,0
DA:47,0
DA:48,0
DA:47,0
DA:48,0
DA:74,0
DA:75,0
DA:74,0
DA:75,0
DA:99,0
DA:100,0
DA:99,0
DA:100,0
DA:99,0
DA:100,0
DA:99,0
DA:100,0
end_of_record
SF:/usr/include/c++/9/ext/aligned_buffer.h
FN:64,_ZN9__gnu_cxx16__aligned_membufIN3PzG21InfoPunktyDoRysowaniaEE7_M_addrEv
FNDA:0,_ZN9__gnu_cxx16__aligned_membufIN3PzG21InfoPunktyDoRysowaniaEE7_M_addrEv
FN:64,_ZN9__gnu_cxx16__aligned_membufIN3PzG20InfoPlikuDoRysowaniaEE7_M_addrEv
FNDA:0,_ZN9__gnu_cxx16__aligned_membufIN3PzG20InfoPlikuDoRysowaniaEE7_M_addrEv
FN:68,_ZNK9__gnu_cxx16__aligned_membufIN3PzG21InfoPunktyDoRysowaniaEE7_M_addrEv
FNDA:0,_ZNK9__gnu_cxx16__aligned_membufIN3PzG21InfoPunktyDoRysowaniaEE7_M_addrEv
FN:68,_ZNK9__gnu_cxx16__aligned_membufIN3PzG20InfoPlikuDoRysowaniaEE7_M_addrEv
FNDA:0,_ZNK9__gnu_cxx16__aligned_membufIN3PzG20InfoPlikuDoRysowaniaEE7_M_addrEv
FN:72,_ZN9__gnu_cxx16__aligned_membufIN3PzG21InfoPunktyDoRysowaniaEE6_M_ptrEv
FNDA:0,_ZN9__gnu_cxx16__aligned_membufIN3PzG21InfoPunktyDoRysowaniaEE6_M_ptrEv
FN:72,_ZN9__gnu_cxx16__aligned_membufIN3PzG20InfoPlikuDoRysowaniaEE6_M_ptrEv
FNDA:0,_ZN9__gnu_cxx16__aligned_membufIN3PzG20InfoPlikuDoRysowaniaEE6_M_ptrEv
FN:76,_ZNK9__gnu_cxx16__aligned_membufIN3PzG21InfoPunktyDoRysowaniaEE6_M_ptrEv
FNDA:0,_ZNK9__gnu_cxx16__aligned_membufIN3PzG21InfoPunktyDoRysowaniaEE6_M_ptrEv
FN:76,_ZNK9__gnu_cxx16__aligned_membufIN3PzG20InfoPlikuDoRysowaniaEE6_M_ptrEv
FNDA:0,_ZNK9__gnu_cxx16__aligned_membufIN3PzG20InfoPlikuDoRysowaniaEE6_M_ptrEv
DA:64,0
DA:65,0
DA:64,0
DA:65,0
DA:68,0
DA:69,0
DA:68,0
DA:69,0
DA:72,0
DA:73,0
DA:72,0
DA:73,0
DA:76,0
DA:77,0
DA:76,0
DA:77,0
end_of_record
SF:/usr/include/c++/9/bits/stl_iterator_base_types.h
FN:205,_ZSt19__iterator_categoryIPcENSt15iterator_traitsIT_E17iterator_categoryERKS2_
FNDA:0,_ZSt19__iterator_categoryIPcENSt15iterator_traitsIT_E17iterator_categoryERKS2_
FN:205,_ZSt19__iterator_categoryIPKcENSt15iterator_traitsIT_E17iterator_categoryERKS3_
FNDA:0,_ZSt19__iterator_categoryIPKcENSt15iterator_traitsIT_E17iterator_categoryERKS3_
DA:205,0
DA:206,0
DA:205,0
DA:206,0
end_of_record
SF:/usr/include/c++/9/bits/basic_string.tcc
FN:206,_ZNSt7__cxx1112basic_stringIcSt11char_traitsIcESaIcEE12_M_constructIPcEEvT_S7_St20forward_iterator_tag
FNDA:0,_ZNSt7__cxx1112basic_stringIcSt11char_traitsIcESaIcEE12_M_constructIPcEEvT_S7_St20forward_iterator_tag
FN:206,_ZNSt7__cxx1112basic_stringIcSt11char_traitsIcESaIcEE12_M_constructIPKcEEvT_S8_St20forward_iterator_tag
FNDA:0,_ZNSt7__cxx1112basic_stringIcSt11char_traitsIcESaIcEE12_M_constructIPKcEEvT_S8_St20forward_iterator_tag
DA:206,0
DA:211,0
DA:212,0
DA:215,0
DA:217,0
DA:219,0
DA:220,0
DA:225,0
DA:226,0
DA:228,0
DA:229,0
DA:232,0
DA:233,0
DA:206,0
DA:211,0
DA:212,0
DA:215,0
DA:217,0
DA:219,0
DA:220,0
DA:225,0
DA:226,0
DA:228,0
DA:229,0
DA:232,0
DA:233,0
end_of_record
SF:/usr/include/c++/9/bits/basic_string.h
FN:243,_ZNSt7__cxx1112basic_stringIcSt11char_traitsIcESaIcEE16_M_construct_auxIPcEEvT_S7_St12__false_type
FNDA:0,_ZNSt7__cxx1112basic_stringIcSt11char_traitsIcESaIcEE16_M_construct_auxIPcEEvT_S7_St12__false_type
FN:243,_ZNSt7__cxx1112basic_stringIcSt11char_traitsIcESaIcEE16_M_construct_auxIPKcEEvT_S8_St12__false_type
FNDA:0,_ZNSt7__cxx1112basic_stringIcSt11char_traitsIcESaIcEE16_M_construct_auxIPKcEEvT_S8_St12__false_type
FN:263,_ZNSt7__cxx1112basic_stringIcSt11char_traitsIcESaIcEE12_M_constructIPcEEvT_S7_
FNDA:0,_ZNSt7__cxx1112basic_stringIcSt11char_traitsIcESaIcEE12_M_constructIPcEEvT_S7_
FN:263,_ZNSt7__cxx1112basic_stringIcSt11char_traitsIcESaIcEE12_M_constructIPKcEEvT_S8_
FNDA:0,_ZNSt7__cxx1112basic_stringIcSt11char_traitsIcESaIcEE12_M_constructIPKcEEvT_S8_
FN:525,_ZNSt7__cxx1112basic_stringIcSt11char_traitsIcESaIcEEC2IS3_EEPKcRKS3_
FNDA:0,_ZNSt7__cxx1112basic_stringIcSt11char_traitsIcESaIcEEC2IS3_EEPKcRKS3_
FN:6085,_ZStplIcSt11char_traitsIcESaIcEENSt7__cxx1112basic_stringIT_T0_T1_EEOS8_RKS8_
FNDA:0,_ZStplIcSt11char_traitsIcESaIcEENSt7__cxx1112basic_stringIT_T0_T1_EEOS8_RKS8_
FN:6149,_ZSteqIcEN9__gnu_cxx11__enable_ifIXsrSt9__is_charIT_E7__valueEbE6__typeERKNSt7__cxx1112basic_stringIS3_St11char_traitsIS3_ESaIS3_EEESE_
FNDA:0,_ZSteqIcEN9__gnu_cxx11__enable_ifIXsrSt9__is_charIT_E7__valueEbE6__typeERKNSt7__cxx1112basic_stringIS3_St11char_traitsIS3_ESaIS3_EEESE_
FN:6175,_ZSteqIcSt11char_traitsIcESaIcEEbRKNSt7__cxx1112basic_stringIT_T0_T1_EEPKS5_
FNDA:0,_ZSteqIcSt11char_traitsIcESaIcEEbRKNSt7__cxx1112basic_stringIT_T0_T1_EEPKS5_
DA:243,0
DA:247,0
DA:248,0
DA:243,0
DA:247,0
DA:248,0
DA:263,0
DA:266,0
DA:267,0
DA:263,0
DA:266,0
DA:267,0
DA:525,0
DA:526,0
DA:527,0
DA:6085,0
DA:6087,0
DA:6149,0
DA:6151,0
DA:6152,0
DA:6153,0
DA:6175,0
DA:6177,0
end_of_record
SF:/usr/include/c++/9/limits
FN:1207,_ZNSt14numeric_limitsIlE3maxEv
FNDA:0,_ZNSt14numeric_limitsIlE3maxEv
DA:1207,0
end_of_record
SF:/home/mburakowski/pobiektowe/zad5_3-mburakow/include/lacze_do_gnuplota.hh
FN:133,_ZNK3PzG20InfoPlikuDoRysowania13WezNazwePlikuB5cxx11Ev
FNDA:0,_ZNK3PzG20InfoPlikuDoRysowania13WezNazwePlikuB5cxx11Ev
FN:140,_ZN3PzG20InfoPlikuDoRysowania15ZmienNazwePlikuERKNSt7__cxx1112basic_stringIcSt11char_traitsIcESaIcEEE
FNDA:0,_ZN3PzG20InfoPlikuDoRysowania15ZmienNazwePlikuERKNSt7__cxx1112basic_stringIcSt11char_traitsIcESaIcEEE
FN:149,_ZNK3PzG20InfoPlikuDoRysowania12WezSposobRysEv
FNDA:0,_ZNK3PzG20InfoPlikuDoRysowania12WezSposobRysEv
FN:160,_ZN3PzG20InfoPlikuDoRysowania14ZmienSposobRysENS_19TypSposobuRysowaniaE
FNDA:0,_ZN3PzG20InfoPlikuDoRysowania14ZmienSposobRysENS_19TypSposobuRysowaniaE
FN:168,_ZNK3PzG20InfoPlikuDoRysowania12WezSzerokoscEv
FNDA:0,_ZNK3PzG20InfoPlikuDoRysowania12WezSzerokoscEv
FN:178,_ZN3PzG20InfoPlikuDoRysowania14ZmienSzerokoscEi
FNDA:0,_ZN3PzG20InfoPlikuDoRysowania14ZmienSzerokoscEi
FN:187,_ZNK3PzG20InfoPlikuDoRysowania8WezKolorEv
FNDA:0,_ZNK3PzG20InfoPlikuDoRysowania8WezKolorEv
FN:203,_ZN3PzG20InfoPlikuDoRysowania10ZmienKolorEi
FNDA:0,_ZN3PzG20InfoPlikuDoRysowania10ZmienKolorEi
FN:221,_ZNK3PzG20InfoPlikuDoRysowania7WezStylEv
FNDA:0,_ZNK3PzG20InfoPlikuDoRysowania7WezStylEv
FN:237,_ZN3PzG20InfoPlikuDoRysowania9ZmienStylEi
FNDA:0,_ZN3PzG20InfoPlikuDoRysowania9ZmienStylEi
FN:246,_ZNK3PzG20InfoPlikuDoRysowania11WezEtykieteB5cxx11Ev
FNDA:0,_ZNK3PzG20InfoPlikuDoRysowania11WezEtykieteB5cxx11Ev
FN:255,_ZN3PzG20InfoPlikuDoRysowania13ZmienEtykieteEPKc
FNDA:0,_ZN3PzG20InfoPlikuDoRysowania13ZmienEtykieteEPKc
FN:544,_ZNK3PzG15LaczeDoGNUPlota23CzyWyswietlacKomunikatyEv
FNDA:0,_ZNK3PzG15LaczeDoGNUPlota23CzyWyswietlacKomunikatyEv
FN:606,_ZN3PzG15LaczeDoGNUPlota10PokazOs_OXEb
FNDA:0,_ZN3PzG15LaczeDoGNUPlota10PokazOs_OXEb
FN:616,_ZNK3PzG15LaczeDoGNUPlota10PokazOs_OXEv
FNDA:0,_ZNK3PzG15LaczeDoGNUPlota10PokazOs_OXEv
FN:626,_ZN3PzG15LaczeDoGNUPlota10PokazOs_OYEb
FNDA:0,_ZN3PzG15LaczeDoGNUPlota10PokazOs_OYEb
FN:636,_ZNK3PzG15LaczeDoGNUPlota10PokazOs_OYEv
FNDA:0,_ZNK3PzG15LaczeDoGNUPlota10PokazOs_OYEv
FN:645,_ZNK3PzG15LaczeDoGNUPlota4XminEv
FNDA:0,_ZNK3PzG15LaczeDoGNUPlota4XminEv
FN:652,_ZNK3PzG15LaczeDoGNUPlota4XmaxEv
FNDA:0,_ZNK3PzG15LaczeDoGNUPlota4XmaxEv
FN:659,_ZNK3PzG15LaczeDoGNUPlota4YminEv
FNDA:0,_ZNK3PzG15LaczeDoGNUPlota4YminEv
FN:666,_ZNK3PzG15LaczeDoGNUPlota4YmaxEv
FNDA:0,_ZNK3PzG15LaczeDoGNUPlota4YmaxEv
FN:673,_ZNK3PzG15LaczeDoGNUPlota4ZminEv
FNDA:0,_ZNK3PzG15LaczeDoGNUPlota4ZminEv
FN:680,_ZNK3PzG15LaczeDoGNUPlota4ZmaxEv
FNDA:0,_ZNK3PzG15LaczeDoGNUPlota4ZmaxEv
FN:689,_ZN3PzG15LaczeDoGNUPlota12ZmienTrybRysENS_17TypTrybuRysowaniaE
FNDA:0,_ZN3PzG15LaczeDoGNUPlota12ZmienTrybRysENS_17TypTrybuRysowaniaE
FN:697,_ZNK3PzG15LaczeDoGNUPlota10WezTrybRysEv
FNDA:0,_ZNK3PzG15LaczeDoGNUPlota10WezTrybRysEv
FN:707,_ZN3PzG15LaczeDoGNUPlota12UstawZakresXEff
FNDA:0,_ZN3PzG15LaczeDoGNUPlota12UstawZakresXEff
FN:716,_ZN3PzG15LaczeDoGNUPlota12UstawZakresYEff
FNDA:0,_ZN3PzG15LaczeDoGNUPlota12UstawZakresYEff
FN:725,_ZN3PzG15LaczeDoGNUPlota12UstawZakresZEff
FNDA:0,_ZN3PzG15LaczeDoGNUPlota12UstawZakresZEff
FN:734,_ZNK3PzG15LaczeDoGNUPlota6SkalaXEv
FNDA:0,_ZNK3PzG15LaczeDoGNUPlota6SkalaXEv
FN:741,_ZNK3PzG15LaczeDoGNUPlota6SkalaZEv
FNDA:0,_ZNK3PzG15LaczeDoGNUPlota6SkalaZEv
FN:772,_ZNK3PzG15LaczeDoGNUPlota8RotacjaXEv
FNDA:0,_ZNK3PzG15LaczeDoGNUPlota8RotacjaXEv
FN:780,_ZNK3PzG15LaczeDoGNUPlota8RotacjaZEv
FNDA:0,_ZNK3PzG15LaczeDoGNUPlota8RotacjaZEv
FN:981,_ZNK3PzG15LaczeDoGNUPlota16ZnajdzNazwePlikuERKNSt7__cxx1112basic_stringIcSt11char_traitsIcESaIcEEENS_18TypDostepuDoZasobuE
FNDA:0,_ZNK3PzG15LaczeDoGNUPlota16ZnajdzNazwePlikuERKNSt7__cxx1112basic_stringIcSt11char_traitsIcESaIcEEENS_18TypDostepuDoZasobuE
FN:1008,_ZN3PzG15LaczeDoGNUPlota16ZnajdzNazwePlikuEPKcNS_18TypDostepuDoZasobuE
FNDA:0,_ZN3PzG15LaczeDoGNUPlota16ZnajdzNazwePlikuEPKcNS_18TypDostepuDoZasobuE
FN:1037,_ZN3PzG15LaczeDoGNUPlota16ZnajdzNazwePlikuERKNSt7__cxx1112basic_stringIcSt11char_traitsIcESaIcEEENS_18TypDostepuDoZasobuE
FNDA:0,_ZN3PzG15LaczeDoGNUPlota16ZnajdzNazwePlikuERKNSt7__cxx1112basic_stringIcSt11char_traitsIcESaIcEEENS_18TypDostepuDoZasobuE
FN:1181,_ZN3PzG15LaczeDoGNUPlota31DopiszPlikiDoPoleceniaRysowaniaERNSt7__cxx1112basic_stringIcSt11char_traitsIcESaIcEEEPPKc
FNDA:0,_ZN3PzG15LaczeDoGNUPlota31DopiszPlikiDoPoleceniaRysowaniaERNSt7__cxx1112basic_stringIcSt11char_traitsIcESaIcEEEPPKc
DA:133,0
DA:140,0
DA:141,0
DA:149,0
DA:160,0
DA:161,0
DA:168,0
DA:178,0
DA:179,0
DA:187,0
DA:203,0
DA:204,0
DA:221,0
DA:237,0
DA:238,0
DA:246,0
DA:255,0
DA:256,0
DA:544,0
DA:606,0
DA:616,0
DA:626,0
DA:636,0
DA:645,0
DA:652,0
DA:659,0
DA:666,0
DA:673,0
DA:680,0
DA:689,0
DA:697,0
DA:707,0
DA:716,0
DA:725,0
DA:734,0
DA:741,0
DA:772,0
DA:780,0
DA:981,0
DA:984,0
DA:1008,0
DA:1012,0
DA:1013,0
DA:1037,0
DA:1040,0
DA:1181,0
DA:1184,0
end_of_record
SF:/usr/include/c++/9/iostream
end_of_record
TN:
SF:/usr/include/c++/9/bits/move.h
FN:47,_ZSt11__addressofISaISt23_Sp_counted_ptr_inplaceI6WektorILi3EESaIS2_ELN9__gnu_cxx12_Lock_policyE2EEEEPT_RS8_
FNDA:0,_ZSt11__addressofISaISt23_Sp_counted_ptr_inplaceI6WektorILi3EESaIS2_ELN9__gnu_cxx12_Lock_policyE2EEEEPT_RS8_
FN:47,_ZSt11__addressofI6WektorILi3EEEPT_RS2_
FNDA:0,_ZSt11__addressofI6WektorILi3EEEPT_RS2_
FN:74,_ZSt7forwardIR6WektorILi3EEEOT_RNSt16remove_referenceIS3_E4typeE
FNDA:0,_ZSt7forwardIR6WektorILi3EEEOT_RNSt16remove_referenceIS3_E4typeE
FN:74,_ZSt7forwardIRK6WektorILi3EEEOT_RNSt16remove_referenceIS4_E4typeE
FNDA:0,_ZSt7forwardIRK6WektorILi3EEEOT_RNSt16remove_referenceIS4_E4typeE
FN:74,_ZSt7forwardIRA3_dEOT_RNSt16remove_referenceIS2_E4typeE
FNDA:0,_ZSt7forwardIRA3_dEOT_RNSt16remove_referenceIS2_E4typeE
FN:99,_ZSt4moveIRP6WektorILi3EEEONSt16remove_referenceIT_E4typeEOS5_
FNDA:0,_ZSt4moveIRP6WektorILi3EEEONSt16remove_referenceIT_E4typeEOS5_
FN:99,_ZSt4moveIRSt12__shared_ptrI6WektorILi3EELN9__gnu_cxx12_Lock_policyE2EEEONSt16remove_referenceIT_E4typeEOS8_
FNDA:0,_ZSt4moveIRSt12__shared_ptrI6WektorILi3EELN9__gnu_cxx12_Lock_policyE2EEEONSt16remove_referenceIT_E4typeEOS8_
FN:99,_ZSt4moveIRSaIcEEONSt16remove_referenceIT_E4typeEOS3_
FNDA:0,_ZSt4moveIRSaIcEEONSt16remove_referenceIT_E4typeEOS3_
FN:99,_ZSt4moveIRSt10shared_ptrI6WektorILi3EEEEONSt16remove_referenceIT_E4typeEOS6_
FNDA:0,_ZSt4moveIRSt10shared_ptrI6WektorILi3EEEEONSt16remove_referenceIT_E4typeEOS6_
FN:182,_ZSt4swapIP6WektorILi3EEENSt9enable_ifIXsrSt6__and_IJSt6__not_ISt15__is_tuple_likeIT_EESt21is_move_constructibleIS7_ESt18is_move_assignableIS7_EEE5valueEvE4typeERS7_SH_
FNDA:0,_ZSt4swapIP6WektorILi3EEENSt9enable_ifIXsrSt6__and_IJSt6__not_ISt15__is_tuple_likeIT_EESt21is_move_constructibleIS7_ESt18is_move_assignableIS7_EEE5valueEvE4typeERS7_SH_
DA:47,0
DA:48,0
DA:47,0
DA:48,0
DA:74,0
DA:75,0
DA:74,0
DA:75,0
DA:74,0
DA:75,0
DA:99,0
DA:100,0
DA:99,0
DA:100,0
DA:99,0
DA:100,0
DA:99,0
DA:100,0
DA:182,0
DA:193,0
DA:194,0
DA:195,0
DA:196,0
end_of_record
SF:/usr/include/c++/9/ext/aligned_buffer.h
FN:102,_ZN9__gnu_cxx16__aligned_bufferI6WektorILi3EEE7_M_addrEv
FNDA:0,_ZN9__gnu_cxx16__aligned_bufferI6WektorILi3EEE7_M_addrEv
FN:114,_ZN9__gnu_cxx16__aligned_bufferI6WektorILi3EEE6_M_ptrEv
FNDA:0,_ZN9__gnu_cxx16__aligned_bufferI6WektorILi3EEE6_M_ptrEv
DA:102,0
DA:104,0
DA:114,0
DA:115,0
end_of_record
SF:/home/mburakowski/pobiektowe/zad5_3-mburakow/include/Bryla.hh
FN:20,_ZN5Bryla7promienEv
FNDA:0,_ZN5Bryla7promienEv
DA:20,0
end_of_record
SF:/usr/include/c++/9/bits/stl_construct.h
FN:74,_ZSt10_ConstructI6WektorILi3EEJRKS1_EEvPT_DpOT0_
FNDA:0,_ZSt10_ConstructI6WektorILi3EEJRKS1_EEvPT_DpOT0_
FN:74,_ZSt10_ConstructI6WektorILi3EEJRS1_EEvPT_DpOT0_
FNDA:0,_ZSt10_ConstructI6WektorILi3EEJRS1_EEvPT_DpOT0_
FN:97,_ZSt8_DestroyI6WektorILi3EEEvPT_
FNDA:0,_ZSt8_DestroyI6WektorILi3EEEvPT_
FN:105,_ZNSt12_Destroy_auxILb0EE9__destroyIN9__gnu_cxx17__normal_iteratorIP6WektorILi3EESt6vectorIS5_SaIS5_EEEEEEvT_SB_
FNDA:0,_ZNSt12_Destroy_auxILb0EE9__destroyIN9__gnu_cxx17__normal_iteratorIP6WektorILi3EESt6vectorIS5_SaIS5_EEEEEEvT_SB_
FN:105,_ZNSt12_Destroy_auxILb0EE9__destroyIP6WektorILi3EEEEvT_S5_
FNDA:0,_ZNSt12_Destroy_auxILb0EE9__destroyIP6WektorILi3EEEEvT_S5_
FN:127,_ZSt8_DestroyIN9__gnu_cxx17__normal_iteratorIP6WektorILi3EESt6vectorIS3_SaIS3_EEEEEvT_S9_
FNDA:0,_ZSt8_DestroyIN9__gnu_cxx17__normal_iteratorIP6WektorILi3EESt6vectorIS3_SaIS3_EEEEEvT_S9_
FN:127,_ZSt8_DestroyIP6WektorILi3EEEvT_S3_
FNDA:0,_ZSt8_DestroyIP6WektorILi3EEEvT_S3_
FN:203,_ZSt8_DestroyIN9__gnu_cxx17__normal_iteratorIP6WektorILi3EESt6vectorIS3_SaIS3_EEEES3_EvT_S9_RSaIT0_E
FNDA:0,_ZSt8_DestroyIN9__gnu_cxx17__normal_iteratorIP6WektorILi3EESt6vectorIS3_SaIS3_EEEES3_EvT_S9_RSaIT0_E
FN:203,_ZSt8_DestroyIP6WektorILi3EES1_EvT_S3_RSaIT0_E
FNDA:0,_ZSt8_DestroyIP6WektorILi3EES1_EvT_S3_RSaIT0_E
DA:74,0
DA:75,0
DA:74,0
DA:75,0
DA:97,0
DA:98,0
DA:105,0
DA:107,0
DA:108,0
DA:109,0
DA:105,0
DA:107,0
DA:108,0
DA:109,0
DA:127,0
DA:137,0
DA:138,0
DA:127,0
DA:137,0
DA:138,0
DA:203,0
DA:206,0
DA:207,0
DA:203,0
DA:206,0
DA:207,0
end_of_record
SF:/usr/include/c++/9/bits/cpp_type_traits.h
FN:428,_ZSt12__miter_baseIP6WektorILi3EEET_S3_
FNDA:0,_ZSt12__miter_baseIP6WektorILi3EEET_S3_
FN:428,_ZSt12__miter_baseIN9__gnu_cxx17__normal_iteratorIPK6WektorILi3EESt6vectorIS3_SaIS3_EEEEET_SA_
FNDA:0,_ZSt12__miter_baseIN9__gnu_cxx17__normal_iteratorIPK6WektorILi3EESt6vectorIS3_SaIS3_EEEEET_SA_
DA:428,0
DA:429,0
DA:428,0
DA:429,0
end_of_record
SF:/usr/include/c++/9/bits/allocator.h
FN:138,_ZNSaI6WektorILi3EEEC2Ev
FNDA:0,_ZNSaI6WektorILi3EEEC2Ev
FN:141,_ZNSaI6WektorILi3EEEC2ERKS1_
FNDA:0,_ZNSaI6WektorILi3EEEC2ERKS1_
FN:151,_ZNSaISt23_Sp_counted_ptr_inplaceI6WektorILi3EESaIS1_ELN9__gnu_cxx12_Lock_policyE2EEEC2IS1_EERKSaIT_E
FNDA:0,_ZNSaISt23_Sp_counted_ptr_inplaceI6WektorILi3EESaIS1_ELN9__gnu_cxx12_Lock_policyE2EEEC2IS1_EERKSaIT_E
FN:153,_ZNSaISt23_Sp_counted_ptr_inplaceI6WektorILi3EESaIS1_ELN9__gnu_cxx12_Lock_policyE2EEED2Ev
FNDA:0,_ZNSaISt23_Sp_counted_ptr_inplaceI6WektorILi3EESaIS1_ELN9__gnu_cxx12_Lock_policyE2EEED2Ev
FN:153,_ZNSaI6WektorILi3EEED2Ev
FNDA:0,_ZNSaI6WektorILi3EEED2Ev
FN:160,_ZStneRKSaI6WektorILi3EEES3_
FNDA:0,_ZStneRKSaI6WektorILi3EEES3_
DA:138,0
DA:141,0
DA:142,0
DA:151,0
DA:153,0
DA:153,0
DA:160,0
DA:161,0
end_of_record
SF:/usr/include/c++/9/bits/vector.tcc
FN:198,_ZNSt6vectorI6WektorILi3EESaIS1_EEaSERKS3_
FNDA:0,_ZNSt6vectorI6WektorILi3EESaIS1_EEaSERKS3_
FN:426,_ZNSt6vectorI6WektorILi3EESaIS1_EE17_M_realloc_insertIJRKS1_EEEvN9__gnu_cxx17__normal_iteratorIPS1_S3_EEDpOT_
FNDA:0,_ZNSt6vectorI6WektorILi3EESaIS1_EE17_M_realloc_insertIJRKS1_EEEvN9__gnu_cxx17__normal_iteratorIPS1_S3_EEDpOT_
DA:198,0
DA:201,0
DA:205,0
DA:207,0
DA:208,0
DA:211,0
DA:212,0
DA:213,0
DA:214,0
DA:215,0
DA:216,0
DA:217,0
DA:219,0
DA:223,0
DA:224,0
DA:226,0
DA:228,0
DA:229,0
DA:230,0
DA:231,0
DA:232,0
DA:233,0
DA:234,0
DA:236,0
DA:238,0
DA:239,0
DA:243,0
DA:245,0
DA:246,0
DA:248,0
DA:250,0
DA:252,0
DA:426,0
DA:435,0
DA:437,0
DA:438,0
DA:439,0
DA:440,0
DA:441,0
DA:449,0
DA:450,0
DA:456,0
DA:474,0
DA:475,0
DA:477,0
DA:481,0
DA:482,0
DA:485,0
DA:487,0
DA:488,0
DA:489,0
DA:491,0
DA:492,0
DA:493,0
DA:498,0
DA:500,0
DA:501,0
DA:502,0
DA:503,0
DA:504,0
DA:505,0
end_of_record
SF:/home/mburakowski/pobiektowe/zad5_3-mburakow/src/Plaskowyz.cpp
FN:3,_ZN9PlaskowyzC2E6WektorILi3EEdddNSt7__cxx1112basic_stringIcSt11char_traitsIcESaIcEEE
FNDA:0,_ZN9PlaskowyzC2E6WektorILi3EEdddNSt7__cxx1112basic_stringIcSt11char_traitsIcESaIcEEE
FN:55,_ZN9PlaskowyzC2ERS_
FNDA:0,_ZN9PlaskowyzC2ERS_
DA:3,0
DA:5,0
DA:6,0
DA:7,0
DA:8,0
DA:9,0
DA:11,0
DA:12,0
DA:13,0
DA:14,0
DA:16,0
DA:17,0
DA:18,0
DA:19,0
DA:22,0
DA:23,0
DA:24,0
DA:25,0
DA:27,0
DA:28,0
DA:29,0
DA:30,0
DA:32,0
DA:33,0
DA:34,0
DA:35,0
DA:37,0
DA:38,0
DA:39,0
DA:40,0
DA:43,0
DA:44,0
DA:45,0
DA:46,0
DA:48,0
DA:49,0
DA:50,0
DA:51,0
DA:53,0
DA:55,0
DA:57,0
DA:58,0
DA:59,0
DA:60,0
DA:61,0
end_of_record
SF:/usr/include/c++/9/cmath
FN:415,_ZSt3powIdiEN9__gnu_cxx11__promote_2IT_T0_NS0_9__promoteIS2_XsrSt12__is_integerIS2_E7__valueEE6__typeENS4_IS3_XsrS5_IS3_E7__valueEE6__typeEE6__typeES2_S3_
FNDA:0,_ZSt3powIdiEN9__gnu_cxx11__promote_2IT_T0_NS0_9__promoteIS2_XsrSt12__is_integerIS2_E7__valueEE6__typeENS4_IS3_XsrS5_IS3_E7__valueEE6__typeEE6__typeES2_S3_
DA:415,0
DA:418,0
end_of_record
SF:/usr/include/c++/9/bits/stl_algobase.h
FN:198,_ZSt3minImERKT_S2_S2_
FNDA:0,_ZSt3minImERKT_S2_S2_
FN:222,_ZSt3maxImERKT_S2_S2_
FNDA:0,_ZSt3maxImERKT_S2_S2_
FN:280,_ZSt12__niter_baseIP6WektorILi3EEET_S3_
FNDA:0,_ZSt12__niter_baseIP6WektorILi3EEET_S3_
FN:289,_ZSt12__niter_wrapIN9__gnu_cxx17__normal_iteratorIP6WektorILi3EESt6vectorIS3_SaIS3_EEEES4_ET_S9_T0_
FNDA:0,_ZSt12__niter_wrapIN9__gnu_cxx17__normal_iteratorIP6WektorILi3EESt6vectorIS3_SaIS3_EEEES4_ET_S9_T0_
FN:295,_ZSt12__niter_wrapIP6WektorILi3EEET_RKS3_S3_
FNDA:0,_ZSt12__niter_wrapIP6WektorILi3EEET_RKS3_S3_
FN:337,_ZNSt11__copy_moveILb0ELb0ESt26random_access_iterator_tagE8__copy_mIP6WektorILi3EES5_EET0_T_S7_S6_
FNDA:0,_ZNSt11__copy_moveILb0ELb0ESt26random_access_iterator_tagE8__copy_mIP6WektorILi3EES5_EET0_T_S7_S6_
FN:337,_ZNSt11__copy_moveILb0ELb0ESt26random_access_iterator_tagE8__copy_mIPK6WektorILi3EEPS4_EET0_T_S9_S8_
FNDA:0,_ZNSt11__copy_moveILb0ELb0ESt26random_access_iterator_tagE8__copy_mIPK6WektorILi3EEPS4_EET0_T_S9_S8_
FN:393,_ZSt13__copy_move_aILb0EP6WektorILi3EES2_ET1_T0_S4_S3_
FNDA:0,_ZSt13__copy_move_aILb0EP6WektorILi3EES2_ET1_T0_S4_S3_
FN:393,_ZSt13__copy_move_aILb0EPK6WektorILi3EEPS1_ET1_T0_S6_S5_
FNDA:0,_ZSt13__copy_move_aILb0EPK6WektorILi3EEPS1_ET1_T0_S6_S5_
FN:438,_ZSt14__copy_move_a2ILb0EP6WektorILi3EES2_ET1_T0_S4_S3_
FNDA:0,_ZSt14__copy_move_a2ILb0EP6WektorILi3EES2_ET1_T0_S4_S3_
FN:438,_ZSt14__copy_move_a2ILb0EN9__gnu_cxx17__normal_iteratorIPK6WektorILi3EESt6vectorIS3_SaIS3_EEEENS1_IPS3_S8_EEET1_T0_SD_SC_
FNDA:0,_ZSt14__copy_move_a2ILb0EN9__gnu_cxx17__normal_iteratorIPK6WektorILi3EESt6vectorIS3_SaIS3_EEEENS1_IPS3_S8_EEET1_T0_SD_SC_
FN:465,_ZSt4copyIP6WektorILi3EES2_ET0_T_S4_S3_
FNDA:0,_ZSt4copyIP6WektorILi3EES2_ET0_T_S4_S3_
FN:465,_ZSt4copyIN9__gnu_cxx17__normal_iteratorIPK6WektorILi3EESt6vectorIS3_SaIS3_EEEENS1_IPS3_S8_EEET0_T_SD_SC_
FNDA:0,_ZSt4copyIN9__gnu_cxx17__normal_iteratorIPK6WektorILi3EESt6vectorIS3_SaIS3_EEEENS1_IPS3_S8_EEET0_T_SD_SC_
DA:198,0
DA:203,0
DA:204,0
DA:205,0
DA:222,0
DA:227,0
DA:228,0
DA:229,0
DA:280,0
DA:282,0
DA:289,0
DA:290,0
DA:295,0
DA:296,0
DA:337,0
DA:340,0
DA:342,0
DA:343,0
DA:344,0
DA:346,0
DA:337,0
DA:340,0
DA:342,0
DA:343,0
DA:344,0
DA:346,0
DA:393,0
DA:398,0
DA:404,0
DA:393,0
DA:398,0
DA:404,0
DA:438,0
DA:440,0
DA:443,0
DA:438,0
DA:440,0
DA:443,0
DA:465,0
DA:474,0
DA:465,0
DA:474,0
end_of_record
SF:/usr/include/c++/9/iostream
end_of_record
SF:/usr/include/c++/9/bits/shared_ptr.h
FN:103,_ZNSt10shared_ptrI6WektorILi3EEEaSERKS2_
FNDA:0,_ZNSt10shared_ptrI6WektorILi3EEEaSERKS2_
FN:127,_ZNSt10shared_ptrI6WektorILi3EEEC2Ev
FNDA:0,_ZNSt10shared_ptrI6WektorILi3EEEC2Ev
FN:333,_ZNSt10shared_ptrI6WektorILi3EEEaSEOS2_
FNDA:0,_ZNSt10shared_ptrI6WektorILi3EEEaSEOS2_
FN:358,_ZNSt10shared_ptrI6WektorILi3EEEC2ISaIS1_EJRA3_dEEESt20_Sp_alloc_shared_tagIT_EDpOT0_
FNDA:0,_ZNSt10shared_ptrI6WektorILi3EEEC2ISaIS1_EJRA3_dEEESt20_Sp_alloc_shared_tagIT_EDpOT0_
FN:544,_ZNSt8weak_ptrI5BrylaEC2Ev
FNDA:0,_ZNSt8weak_ptrI5BrylaEC2Ev
FN:638,_ZNSt23enable_shared_from_thisI5BrylaEC2Ev
FNDA:0,_ZNSt23enable_shared_from_thisI5BrylaEC2Ev
FN:646,_ZNSt23enable_shared_from_thisI5BrylaED2Ev
FNDA:0,_ZNSt23enable_shared_from_thisI5BrylaED2Ev
FN:699,_ZSt15allocate_sharedI6WektorILi3EESaIS1_EJRA3_dEESt10shared_ptrIT_ERKT0_DpOT1_
FNDA:0,_ZSt15allocate_sharedI6WektorILi3EESaIS1_EJRA3_dEESt10shared_ptrIT_ERKT0_DpOT1_
FN:714,_ZSt11make_sharedI6WektorILi3EEJRA3_dEESt10shared_ptrIT_EDpOT0_
FNDA:0,_ZSt11make_sharedI6WektorILi3EEJRA3_dEESt10shared_ptrIT_EDpOT0_
DA:103,0
DA:127,0
DA:333,0
DA:335,0
DA:336,0
DA:358,0
DA:359,0
DA:360,0
DA:544,0
DA:638,0
DA:646,0
DA:699,0
DA:702,0
DA:714,0
DA:718,0
end_of_record
SF:/usr/include/c++/9/bits/basic_string.h
end_of_record
SF:/usr/include/c++/9/new
FN:173,_ZnwmPv
FNDA:0,_ZnwmPv
FN:179,_ZdlPvS_
FNDA:0,_ZdlPvS_
DA:173,0
DA:174,0
DA:179,0
end_of_record
SF:/usr/include/c++/9/bits/allocated_ptr.h
FN:52,_ZNSt15__allocated_ptrISaISt23_Sp_counted_ptr_inplaceI6WektorILi3EESaIS2_ELN9__gnu_cxx12_Lock_policyE2EEEEC2ERS7_PS6_
FNDA:0,_ZNSt15__allocated_ptrISaISt23_Sp_counted_ptr_inplaceI6WektorILi3EESaIS2_ELN9__gnu_cxx12_Lock_policyE2EEEEC2ERS7_PS6_
FN:70,_ZNSt15__allocated_ptrISaISt23_Sp_counted_ptr_inplaceI6WektorILi3EESaIS2_ELN9__gnu_cxx12_Lock_policyE2EEEED2Ev
FNDA:0,_ZNSt15__allocated_ptrISaISt23_Sp_counted_ptr_inplaceI6WektorILi3EESaIS2_ELN9__gnu_cxx12_Lock_policyE2EEEED2Ev
FN:78,_ZNSt15__allocated_ptrISaISt23_Sp_counted_ptr_inplaceI6WektorILi3EESaIS2_ELN9__gnu_cxx12_Lock_policyE2EEEEaSEDn
FNDA:0,_ZNSt15__allocated_ptrISaISt23_Sp_counted_ptr_inplaceI6WektorILi3EESaIS2_ELN9__gnu_cxx12_Lock_policyE2EEEEaSEDn
FN:85,_ZNSt15__allocated_ptrISaISt23_Sp_counted_ptr_inplaceI6WektorILi3EESaIS2_ELN9__gnu_cxx12_Lock_policyE2EEEE3getEv
FNDA:0,_ZNSt15__allocated_ptrISaISt23_Sp_counted_ptr_inplaceI6WektorILi3EESaIS2_ELN9__gnu_cxx12_Lock_policyE2EEEE3getEv
FN:95,_ZSt18__allocate_guardedISaISt23_Sp_counted_ptr_inplaceI6WektorILi3EESaIS2_ELN9__gnu_cxx12_Lock_policyE2EEEESt15__allocated_ptrIT_ERS9_
FNDA:0,_ZSt18__allocate_guardedISaISt23_Sp_counted_ptr_inplaceI6WektorILi3EESaIS2_ELN9__gnu_cxx12_Lock_policyE2EEEESt15__allocated_ptrIT_ERS9_
DA:52,0
DA:53,0
DA:54,0
DA:70,0
DA:72,0
DA:73,0
DA:74,0
DA:78,0
DA:80,0
DA:81,0
DA:85,0
DA:95,0
DA:97,0
end_of_record
SF:/usr/include/c++/9/bits/stl_vector.h
FN:94,_ZNSt12_Vector_baseI6WektorILi3EESaIS1_EE17_Vector_impl_dataC2Ev
FNDA:0,_ZNSt12_Vector_baseI6WektorILi3EESaIS1_EE17_Vector_impl_dataC2Ev
FN:128,_ZNSt12_Vector_baseI6WektorILi3EESaIS1_EE12_Vector_implC2Ev
FNDA:0,_ZNSt12_Vector_baseI6WektorILi3EESaIS1_EE12_Vector_implC2Ev
FN:273,_ZNSt12_Vector_baseI6WektorILi3EESaIS1_EE19_M_get_Tp_allocatorEv
FNDA:0,_ZNSt12_Vector_baseI6WektorILi3EESaIS1_EE19_M_get_Tp_allocatorEv
FN:277,_ZNKSt12_Vector_baseI6WektorILi3EESaIS1_EE19_M_get_Tp_allocatorEv
FNDA:0,_ZNKSt12_Vector_baseI6WektorILi3EESaIS1_EE19_M_get_Tp_allocatorEv
FN:285,_ZNSt12_Vector_baseI6WektorILi3EESaIS1_EEC2Ev
FNDA:0,_ZNSt12_Vector_baseI6WektorILi3EESaIS1_EEC2Ev
FN:330,_ZNSt12_Vector_baseI6WektorILi3EESaIS1_EED2Ev
FNDA:0,_ZNSt12_Vector_baseI6WektorILi3EESaIS1_EED2Ev
FN:340,_ZNSt12_Vector_baseI6WektorILi3EESaIS1_EE11_M_allocateEm
FNDA:0,_ZNSt12_Vector_baseI6WektorILi3EESaIS1_EE11_M_allocateEm
FN:347,_ZNSt12_Vector_baseI6WektorILi3EESaIS1_EE13_M_deallocateEPS1_m
FNDA:0,_ZNSt12_Vector_baseI6WektorILi3EESaIS1_EE13_M_deallocateEPS1_m
FN:484,_ZNSt6vectorI6WektorILi3EESaIS1_EEC2Ev
FNDA:0,_ZNSt6vectorI6WektorILi3EESaIS1_EEC2Ev
FN:675,_ZNSt6vectorI6WektorILi3EESaIS1_EED2Ev
FNDA:0,_ZNSt6vectorI6WektorILi3EESaIS1_EED2Ev
FN:808,_ZNSt6vectorI6WektorILi3EESaIS1_EE5beginEv
FNDA:0,_ZNSt6vectorI6WektorILi3EESaIS1_EE5beginEv
FN:817,_ZNKSt6vectorI6WektorILi3EESaIS1_EE5beginEv
FNDA:0,_ZNKSt6vectorI6WektorILi3EESaIS1_EE5beginEv
FN:826,_ZNSt6vectorI6WektorILi3EESaIS1_EE3endEv
FNDA:0,_ZNSt6vectorI6WektorILi3EESaIS1_EE3endEv
FN:835,_ZNKSt6vectorI6WektorILi3EESaIS1_EE3endEv
FNDA:0,_ZNKSt6vectorI6WektorILi3EESaIS1_EE3endEv
FN:915,_ZNKSt6vectorI6WektorILi3EESaIS1_EE4sizeEv
FNDA:0,_ZNKSt6vectorI6WektorILi3EESaIS1_EE4sizeEv
FN:920,_ZNKSt6vectorI6WektorILi3EESaIS1_EE8max_sizeEv
FNDA:0,_ZNKSt6vectorI6WektorILi3EESaIS1_EE8max_sizeEv
FN:995,_ZNKSt6vectorI6WektorILi3EESaIS1_EE8capacityEv
FNDA:0,_ZNKSt6vectorI6WektorILi3EESaIS1_EE8capacityEv
FN:1040,_ZNSt6vectorI6WektorILi3EESaIS1_EEixEm
FNDA:0,_ZNSt6vectorI6WektorILi3EESaIS1_EEixEm
FN:1184,_ZNSt6vectorI6WektorILi3EESaIS1_EE9push_backERKS1_
FNDA:0,_ZNSt6vectorI6WektorILi3EESaIS1_EE9push_backERKS1_
FN:1495,_ZNSt6vectorI6WektorILi3EESaIS1_EE5clearEv
FNDA:0,_ZNSt6vectorI6WektorILi3EESaIS1_EE5clearEv
FN:1505,_ZNSt6vectorI6WektorILi3EESaIS1_EE20_M_allocate_and_copyIN9__gnu_cxx17__normal_iteratorIPKS1_S3_EEEEPS1_mT_SB_
FNDA:0,_ZNSt6vectorI6WektorILi3EESaIS1_EE20_M_allocate_and_copyIN9__gnu_cxx17__normal_iteratorIPKS1_S3_EEEEPS1_mT_SB_
FN:1753,_ZNKSt6vectorI6WektorILi3EESaIS1_EE12_M_check_lenEmPKc
FNDA:0,_ZNKSt6vectorI6WektorILi3EESaIS1_EE12_M_check_lenEmPKc
FN:1773,_ZNSt6vectorI6WektorILi3EESaIS1_EE11_S_max_sizeERKS2_
FNDA:0,_ZNSt6vectorI6WektorILi3EESaIS1_EE11_S_max_sizeERKS2_
FN:1789,_ZNSt6vectorI6WektorILi3EESaIS1_EE15_M_erase_at_endEPS1_
FNDA:0,_ZNSt6vectorI6WektorILi3EESaIS1_EE15_M_erase_at_endEPS1_
DA:94,0
DA:95,0
DA:96,0
DA:128,0
DA:130,0
DA:131,0
DA:273,0
DA:274,0
DA:277,0
DA:278,0
DA:285,0
DA:330,0
DA:332,0
DA:333,0
DA:334,0
DA:340,0
DA:343,0
DA:347,0
DA:350,0
DA:351,0
DA:352,0
DA:484,0
DA:675,0
DA:677,0
DA:678,0
DA:680,0
DA:808,0
DA:809,0
DA:817,0
DA:818,0
DA:826,0
DA:827,0
DA:835,0
DA:836,0
DA:915,0
DA:916,0
DA:920,0
DA:921,0
DA:995,0
DA:996,0
DA:997,0
DA:1040,0
DA:1043,0
DA:1184,0
DA:1186,0
DA:1189,0
DA:1191,0
DA:1195,0
DA:1196,0
DA:1495,0
DA:1496,0
DA:1505,0
DA:1508,0
DA:1511,0
DA:1512,0
DA:1513,0
DA:1515,0
DA:1517,0
DA:1518,0
DA:1753,0
DA:1755,0
DA:1756,0
DA:1758,0
DA:1759,0
DA:1773,0
DA:1778,0
DA:1780,0
DA:1781,0
DA:1789,0
DA:1791,0
DA:1793,0
DA:1794,0
DA:1795,0
DA:1798,0
end_of_record
SF:/usr/include/c++/9/bits/alloc_traits.h
FN:443,_ZNSt16allocator_traitsISaISt23_Sp_counted_ptr_inplaceI6WektorILi3EESaIS2_ELN9__gnu_cxx12_Lock_policyE2EEEE8allocateERS7_m
FNDA:0,_ZNSt16allocator_traitsISaISt23_Sp_counted_ptr_inplaceI6WektorILi3EESaIS2_ELN9__gnu_cxx12_Lock_policyE2EEEE8allocateERS7_m
FN:443,_ZNSt16allocator_traitsISaI6WektorILi3EEEE8allocateERS2_m
FNDA:0,_ZNSt16allocator_traitsISaI6WektorILi3EEEE8allocateERS2_m
FN:469,_ZNSt16allocator_traitsISaISt23_Sp_counted_ptr_inplaceI6WektorILi3EESaIS2_ELN9__gnu_cxx12_Lock_policyE2EEEE10deallocateERS7_PS6_m
FNDA:0,_ZNSt16allocator_traitsISaISt23_Sp_counted_ptr_inplaceI6WektorILi3EESaIS2_ELN9__gnu_cxx12_Lock_policyE2EEEE10deallocateERS7_PS6_m
FN:469,_ZNSt16allocator_traitsISaI6WektorILi3EEEE10deallocateERS2_PS1_m
FNDA:0,_ZNSt16allocator_traitsISaI6WektorILi3EEEE10deallocateERS2_PS1_m
FN:482,_ZNSt16allocator_traitsISaI6WektorILi3EEEE9constructIS1_JRA3_dEEEvRS2_PT_DpOT0_
FNDA:0,_ZNSt16allocator_traitsISaI6WektorILi3EEEE9constructIS1_JRA3_dEEEvRS2_PT_DpOT0_
FN:482,_ZNSt16allocator_traitsISaI6WektorILi3EEEE9constructIS1_JRKS1_EEEvRS2_PT_DpOT0_
FNDA:0,_ZNSt16allocator_traitsISaI6WektorILi3EEEE9constructIS1_JRKS1_EEEvRS2_PT_DpOT0_
FN:495,_ZNSt16allocator_traitsISaI6WektorILi3EEEE7destroyIS1_EEvRS2_PT_
FNDA:0,_ZNSt16allocator_traitsISaI6WektorILi3EEEE7destroyIS1_EEvRS2_PT_
FN:505,_ZNSt16allocator_traitsISaI6WektorILi3EEEE8max_sizeERKS2_
FNDA:0,_ZNSt16allocator_traitsISaI6WektorILi3EEEE8max_sizeERKS2_
FN:526,_ZSt18__do_alloc_on_copyISaI6WektorILi3EEEEvRT_RKS3_St17integral_constantIbLb0EE
FNDA:0,_ZSt18__do_alloc_on_copyISaI6WektorILi3EEEEvRT_RKS3_St17integral_constantIbLb0EE
FN:530,_ZSt15__alloc_on_copyISaI6WektorILi3EEEEvRT_RKS3_
FNDA:0,_ZSt15__alloc_on_copyISaI6WektorILi3EEEEvRT_RKS3_
DA:443,0
DA:444,0
DA:443,0
DA:444,0
DA:469,0
DA:470,0
DA:469,0
DA:470,0
DA:482,0
DA:484,0
DA:482,0
DA:484,0
DA:495,0
DA:497,0
DA:505,0
DA:506,0
DA:526,0
DA:527,0
DA:530,0
DA:534,0
DA:535,0
end_of_record
SF:/usr/include/c++/9/ext/new_allocator.h
FN:80,_ZN9__gnu_cxx13new_allocatorISt23_Sp_counted_ptr_inplaceI6WektorILi3EESaIS3_ELNS_12_Lock_policyE2EEEC2Ev
FNDA:0,_ZN9__gnu_cxx13new_allocatorISt23_Sp_counted_ptr_inplaceI6WektorILi3EESaIS3_ELNS_12_Lock_policyE2EEEC2Ev
FN:80,_ZN9__gnu_cxx13new_allocatorI6WektorILi3EEEC2Ev
FNDA:0,_ZN9__gnu_cxx13new_allocatorI6WektorILi3EEEC2Ev
FN:80,_ZN9__gnu_cxx13new_allocatorIcEC2Ev
FNDA:0,_ZN9__gnu_cxx13new_allocatorIcEC2Ev
FN:83,_ZN9__gnu_cxx13new_allocatorI6WektorILi3EEEC2ERKS3_
FNDA:0,_ZN9__gnu_cxx13new_allocatorI6WektorILi3EEEC2ERKS3_
FN:89,_ZN9__gnu_cxx13new_allocatorISt23_Sp_counted_ptr_inplaceI6WektorILi3EESaIS3_ELNS_12_Lock_policyE2EEED2Ev
FNDA:0,_ZN9__gnu_cxx13new_allocatorISt23_Sp_counted_ptr_inplaceI6WektorILi3EESaIS3_ELNS_12_Lock_policyE2EEED2Ev
FN:89,_ZN9__gnu_cxx13new_allocatorI6WektorILi3EEED2Ev
FNDA:0,_ZN9__gnu_cxx13new_allocatorI6WektorILi3EEED2Ev
FN:89,_ZN9__gnu_cxx13new_allocatorIcED2Ev
FNDA:0,_ZN9__gnu_cxx13new_allocatorIcED2Ev
FN:102,_ZN9__gnu_cxx13new_allocatorISt23_Sp_counted_ptr_inplaceI6WektorILi3EESaIS3_ELNS_12_Lock_policyE2EEE8allocateEmPKv
FNDA:0,_ZN9__gnu_cxx13new_allocatorISt23_Sp_counted_ptr_inplaceI6WektorILi3EESaIS3_ELNS_12_Lock_policyE2EEE8allocateEmPKv
FN:102,_ZN9__gnu_cxx13new_allocatorI6WektorILi3EEE8allocateEmPKv
FNDA:0,_ZN9__gnu_cxx13new_allocatorI6WektorILi3EEE8allocateEmPKv
FN:119,_ZN9__gnu_cxx13new_allocatorISt23_Sp_counted_ptr_inplaceI6WektorILi3EESaIS3_ELNS_12_Lock_policyE2EEE10deallocateEPS6_m
FNDA:0,_ZN9__gnu_cxx13new_allocatorISt23_Sp_counted_ptr_inplaceI6WektorILi3EESaIS3_ELNS_12_Lock_policyE2EEE10deallocateEPS6_m
FN:119,_ZN9__gnu_cxx13new_allocatorI6WektorILi3EEE10deallocateEPS2_m
FNDA:0,_ZN9__gnu_cxx13new_allocatorI6WektorILi3EEE10deallocateEPS2_m
FN:132,_ZNK9__gnu_cxx13new_allocatorISt23_Sp_counted_ptr_inplaceI6WektorILi3EESaIS3_ELNS_12_Lock_policyE2EEE8max_sizeEv
FNDA:0,_ZNK9__gnu_cxx13new_allocatorISt23_Sp_counted_ptr_inplaceI6WektorILi3EESaIS3_ELNS_12_Lock_policyE2EEE8max_sizeEv
FN:132,_ZNK9__gnu_cxx13new_allocatorI6WektorILi3EEE8max_sizeEv
FNDA:0,_ZNK9__gnu_cxx13new_allocatorI6WektorILi3EEE8max_sizeEv
FN:144,_ZN9__gnu_cxx13new_allocatorI6WektorILi3EEE9constructIS2_JRA3_dEEEvPT_DpOT0_
FNDA:0,_ZN9__gnu_cxx13new_allocatorI6WektorILi3EEE9constructIS2_JRA3_dEEEvPT_DpOT0_
FN:144,_ZN9__gnu_cxx13new_allocatorI6WektorILi3EEE9constructIS2_JRKS2_EEEvPT_DpOT0_
FNDA:0,_ZN9__gnu_cxx13new_allocatorI6WektorILi3EEE9constructIS2_JRKS2_EEEvPT_DpOT0_
FN:151,_ZN9__gnu_cxx13new_allocatorI6WektorILi3EEE7destroyIS2_EEvPT_
FNDA:0,_ZN9__gnu_cxx13new_allocatorI6WektorILi3EEE7destroyIS2_EEvPT_
DA:80,0
DA:80,0
DA:80,0
DA:83,0
DA:89,0
DA:89,0
DA:89,0
DA:102,0
DA:104,0
DA:105,0
DA:114,0
DA:102,0
DA:104,0
DA:105,0
DA:114,0
DA:119,0
DA:128,0
DA:119,0
DA:128,0
DA:132,0
DA:135,0
DA:132,0
DA:135,0
DA:144,0
DA:147,0
DA:144,0
DA:147,0
DA:151,0
DA:153,0
end_of_record
SF:/usr/include/x86_64-linux-gnu/c++/9/bits/gthr-default.h
FN:248,_ZL18__gthread_active_pv
FNDA:0,_ZL18__gthread_active_pv
DA:248,0
DA:252,0
end_of_record
SF:/home/mburakowski/pobiektowe/zad5_3-mburakow/include/Obiekt_Sceny.hh
end_of_record
SF:/usr/include/c++/9/typeinfo
FN:120,_ZNKSt9type_infoeqERKS_
FNDA:0,_ZNKSt9type_infoeqERKS_
DA:120,0
DA:122,0
DA:123,0
DA:124,0
end_of_record
SF:/usr/include/c++/9/ext/alloc_traits.h
FN:103,_ZN9__gnu_cxx14__alloc_traitsISaI6WektorILi3EEES2_E27_S_propagate_on_copy_assignEv
FNDA:0,_ZN9__gnu_cxx14__alloc_traitsISaI6WektorILi3EEES2_E27_S_propagate_on_copy_assignEv
FN:112,_ZN9__gnu_cxx14__alloc_traitsISaI6WektorILi3EEES2_E15_S_always_equalEv
FNDA:0,_ZN9__gnu_cxx14__alloc_traitsISaI6WektorILi3EEES2_E15_S_always_equalEv
DA:103,0
DA:104,0
DA:112,0
DA:113,0
end_of_record
SF:/usr/include/c++/9/ext/atomicity.h
FN:48,_ZN9__gnu_cxxL18__exchange_and_addEPVii
FNDA:0,_ZN9__gnu_cxxL18__exchange_and_addEPVii
FN:52,_ZN9__gnu_cxxL12__atomic_addEPVii
FNDA:0,_ZN9__gnu_cxxL12__atomic_addEPVii
FN:65,_ZN9__gnu_cxxL25__exchange_and_add_singleEPii
FNDA:0,_ZN9__gnu_cxxL25__exchange_and_add_singleEPii
FN:73,_ZN9__gnu_cxxL19__atomic_add_singleEPii
FNDA:0,_ZN9__gnu_cxxL19__atomic_add_singleEPii
FN:78,_ZN9__gnu_cxxL27__exchange_and_add_dispatchEPii
FNDA:0,_ZN9__gnu_cxxL27__exchange_and_add_dispatchEPii
FN:92,_ZN9__gnu_cxxL21__atomic_add_dispatchEPii
FNDA:0,_ZN9__gnu_cxxL21__atomic_add_dispatchEPii
DA:48,0
DA:49,0
DA:52,0
DA:53,0
DA:65,0
DA:67,0
DA:68,0
DA:69,0
DA:73,0
DA:74,0
DA:78,0
DA:81,0
DA:82,0
DA:84,0
DA:92,0
DA:95,0
DA:96,0
DA:98,0
DA:102,0
end_of_record
SF:/usr/include/c++/9/bits/stl_iterator.h
FN:806,_ZN9__gnu_cxx17__normal_iteratorIP6WektorILi3EESt6vectorIS2_SaIS2_EEEC2ERKS3_
FNDA:0,_ZN9__gnu_cxx17__normal_iteratorIP6WektorILi3EESt6vectorIS2_SaIS2_EEEC2ERKS3_
FN:806,_ZN9__gnu_cxx17__normal_iteratorIPK6WektorILi3EESt6vectorIS2_SaIS2_EEEC2ERKS4_
FNDA:0,_ZN9__gnu_cxx17__normal_iteratorIPK6WektorILi3EESt6vectorIS2_SaIS2_EEEC2ERKS4_
FN:819,_ZNK9__gnu_cxx17__normal_iteratorIPK6WektorILi3EESt6vectorIS2_SaIS2_EEEdeEv
FNDA:0,_ZNK9__gnu_cxx17__normal_iteratorIPK6WektorILi3EESt6vectorIS2_SaIS2_EEEdeEv
FN:819,_ZNK9__gnu_cxx17__normal_iteratorIP6WektorILi3EESt6vectorIS2_SaIS2_EEEdeEv
FNDA:0,_ZNK9__gnu_cxx17__normal_iteratorIP6WektorILi3EESt6vectorIS2_SaIS2_EEEdeEv
FN:827,_ZN9__gnu_cxx17__normal_iteratorIPK6WektorILi3EESt6vectorIS2_SaIS2_EEEppEv
FNDA:0,_ZN9__gnu_cxx17__normal_iteratorIPK6WektorILi3EESt6vectorIS2_SaIS2_EEEppEv
FN:827,_ZN9__gnu_cxx17__normal_iteratorIP6WektorILi3EESt6vectorIS2_SaIS2_EEEppEv
FNDA:0,_ZN9__gnu_cxx17__normal_iteratorIP6WektorILi3EESt6vectorIS2_SaIS2_EEEppEv
FN:859,_ZNK9__gnu_cxx17__normal_iteratorIP6WektorILi3EESt6vectorIS2_SaIS2_EEEplEl
FNDA:0,_ZNK9__gnu_cxx17__normal_iteratorIP6WektorILi3EESt6vectorIS2_SaIS2_EEEplEl
FN:871,_ZNK9__gnu_cxx17__normal_iteratorIPK6WektorILi3EESt6vectorIS2_SaIS2_EEE4baseEv
FNDA:0,_ZNK9__gnu_cxx17__normal_iteratorIPK6WektorILi3EESt6vectorIS2_SaIS2_EEE4baseEv
FN:871,_ZNK9__gnu_cxx17__normal_iteratorIP6WektorILi3EESt6vectorIS2_SaIS2_EEE4baseEv
FNDA:0,_ZNK9__gnu_cxx17__normal_iteratorIP6WektorILi3EESt6vectorIS2_SaIS2_EEE4baseEv
FN:907,_ZN9__gnu_cxxneIPK6WektorILi3EESt6vectorIS2_SaIS2_EEEEbRKNS_17__normal_iteratorIT_T0_EESD_
FNDA:0,_ZN9__gnu_cxxneIPK6WektorILi3EESt6vectorIS2_SaIS2_EEEEbRKNS_17__normal_iteratorIT_T0_EESD_
FN:907,_ZN9__gnu_cxxneIP6WektorILi3EESt6vectorIS2_SaIS2_EEEEbRKNS_17__normal_iteratorIT_T0_EESC_
FNDA:0,_ZN9__gnu_cxxneIP6WektorILi3EESt6vectorIS2_SaIS2_EEEEbRKNS_17__normal_iteratorIT_T0_EESC_
FN:989,_ZN9__gnu_cxxmiIP6WektorILi3EESt6vectorIS2_SaIS2_EEEENS_17__normal_iteratorIT_T0_E15difference_typeERKSA_SD_
FNDA:0,_ZN9__gnu_cxxmiIP6WektorILi3EESt6vectorIS2_SaIS2_EEEENS_17__normal_iteratorIT_T0_E15difference_typeERKSA_SD_
FN:1010,_ZSt12__niter_baseIP6WektorILi3EESt6vectorIS1_SaIS1_EEET_N9__gnu_cxx17__normal_iteratorIS6_T0_EE
FNDA:0,_ZSt12__niter_baseIP6WektorILi3EESt6vectorIS1_SaIS1_EEET_N9__gnu_cxx17__normal_iteratorIS6_T0_EE
FN:1010,_ZSt12__niter_baseIPK6WektorILi3EESt6vectorIS1_SaIS1_EEET_N9__gnu_cxx17__normal_iteratorIS7_T0_EE
FNDA:0,_ZSt12__niter_baseIPK6WektorILi3EESt6vectorIS1_SaIS1_EEET_N9__gnu_cxx17__normal_iteratorIS7_T0_EE
FN:1242,_ZSt32__make_move_if_noexcept_iteratorI6WektorILi3EEPKS1_ET0_PT_
FNDA:0,_ZSt32__make_move_if_noexcept_iteratorI6WektorILi3EEPKS1_ET0_PT_
DA:806,0
DA:807,0
DA:806,0
DA:807,0
DA:819,0
DA:820,0
DA:819,0
DA:820,0
DA:827,0
DA:829,0
DA:830,0
DA:827,0
DA:829,0
DA:830,0
DA:859,0
DA:860,0
DA:871,0
DA:872,0
DA:871,0
DA:872,0
DA:907,0
DA:910,0
DA:907,0
DA:910,0
DA:989,0
DA:992,0
DA:1010,0
DA:1012,0
DA:1010,0
DA:1012,0
DA:1242,0
DA:1243,0
end_of_record
SF:/usr/include/c++/9/bits/ptr_traits.h
FN:156,_ZSt12__to_addressISt23_Sp_counted_ptr_inplaceI6WektorILi3EESaIS2_ELN9__gnu_cxx12_Lock_policyE2EEEPT_S8_
FNDA:0,_ZSt12__to_addressISt23_Sp_counted_ptr_inplaceI6WektorILi3EESaIS2_ELN9__gnu_cxx12_Lock_policyE2EEEPT_S8_
DA:156,0
DA:159,0
end_of_record
SF:/usr/include/c++/9/bits/stl_uninitialized.h
FN:76,_ZNSt20__uninitialized_copyILb0EE13__uninit_copyIPK6WektorILi3EEPS3_EET0_T_S8_S7_
FNDA:0,_ZNSt20__uninitialized_copyILb0EE13__uninit_copyIPK6WektorILi3EEPS3_EET0_T_S8_S7_
FN:76,_ZNSt20__uninitialized_copyILb0EE13__uninit_copyIN9__gnu_cxx17__normal_iteratorIPK6WektorILi3EESt6vectorIS5_SaIS5_EEEEPS5_EET0_T_SE_SD_
FNDA:0,_ZNSt20__uninitialized_copyILb0EE13__uninit_copyIN9__gnu_cxx17__normal_iteratorIPK6WektorILi3EESt6vectorIS5_SaIS5_EEEEPS5_EET0_T_SE_SD_
FN:76,_ZNSt20__uninitialized_copyILb0EE13__uninit_copyIP6WektorILi3EES4_EET0_T_S6_S5_
FNDA:0,_ZNSt20__uninitialized_copyILb0EE13__uninit_copyIP6WektorILi3EES4_EET0_T_S6_S5_
FN:115,_ZSt18uninitialized_copyIPK6WektorILi3EEPS1_ET0_T_S6_S5_
FNDA:0,_ZSt18uninitialized_copyIPK6WektorILi3EEPS1_ET0_T_S6_S5_
FN:115,_ZSt18uninitialized_copyIN9__gnu_cxx17__normal_iteratorIPK6WektorILi3EESt6vectorIS3_SaIS3_EEEEPS3_ET0_T_SC_SB_
FNDA:0,_ZSt18uninitialized_copyIN9__gnu_cxx17__normal_iteratorIPK6WektorILi3EESt6vectorIS3_SaIS3_EEEEPS3_ET0_T_SC_SB_
FN:115,_ZSt18uninitialized_copyIP6WektorILi3EES2_ET0_T_S4_S3_
FNDA:0,_ZSt18uninitialized_copyIP6WektorILi3EES2_ET0_T_S4_S3_
FN:305,_ZSt22__uninitialized_copy_aIPK6WektorILi3EEPS1_S1_ET0_T_S6_S5_RSaIT1_E
FNDA:0,_ZSt22__uninitialized_copy_aIPK6WektorILi3EEPS1_S1_ET0_T_S6_S5_RSaIT1_E
FN:305,_ZSt22__uninitialized_copy_aIN9__gnu_cxx17__normal_iteratorIPK6WektorILi3EESt6vectorIS3_SaIS3_EEEEPS3_S3_ET0_T_SC_SB_RSaIT1_E
FNDA:0,_ZSt22__uninitialized_copy_aIN9__gnu_cxx17__normal_iteratorIPK6WektorILi3EESt6vectorIS3_SaIS3_EEEEPS3_S3_ET0_T_SC_SB_RSaIT1_E
FN:305,_ZSt22__uninitialized_copy_aIP6WektorILi3EES2_S1_ET0_T_S4_S3_RSaIT1_E
FNDA:0,_ZSt22__uninitialized_copy_aIP6WektorILi3EES2_S1_ET0_T_S4_S3_RSaIT1_E
FN:323,_ZSt34__uninitialized_move_if_noexcept_aIP6WektorILi3EES2_SaIS1_EET0_T_S5_S4_RT1_
FNDA:0,_ZSt34__uninitialized_move_if_noexcept_aIP6WektorILi3EES2_SaIS1_EET0_T_S5_S4_RT1_
DA:76,0
DA:79,0
DA:82,0
DA:83,0
DA:84,0
DA:76,0
DA:79,0
DA:82,0
DA:83,0
DA:84,0
DA:76,0
DA:79,0
DA:82,0
DA:83,0
DA:84,0
DA:86,0
DA:88,0
DA:89,0
DA:115,0
DA:134,0
DA:140,0
DA:115,0
DA:134,0
DA:140,0
DA:115,0
DA:134,0
DA:140,0
DA:305,0
DA:307,0
DA:305,0
DA:307,0
DA:305,0
DA:307,0
DA:323,0
DA:329,0
DA:330,0
end_of_record
SF:/usr/include/c++/9/bits/shared_ptr_base.h
FN:117,_ZNSt16_Sp_counted_baseILN9__gnu_cxx12_Lock_policyE2EEC2Ev
FNDA:0,_ZNSt16_Sp_counted_baseILN9__gnu_cxx12_Lock_policyE2EEC2Ev
FN:121,_ZNSt16_Sp_counted_baseILN9__gnu_cxx12_Lock_policyE2EED2Ev
FNDA:0,_ZNSt16_Sp_counted_baseILN9__gnu_cxx12_Lock_policyE2EED2Ev
FN:121,_ZNSt16_Sp_counted_baseILN9__gnu_cxx12_Lock_policyE2EED0Ev
FNDA:0,_ZNSt16_Sp_counted_baseILN9__gnu_cxx12_Lock_policyE2EED0Ev
FN:131,_ZNSt16_Sp_counted_baseILN9__gnu_cxx12_Lock_policyE2EE10_M_destroyEv
FNDA:0,_ZNSt16_Sp_counted_baseILN9__gnu_cxx12_Lock_policyE2EE10_M_destroyEv
FN:138,_ZNSt16_Sp_counted_baseILN9__gnu_cxx12_Lock_policyE2EE15_M_add_ref_copyEv
FNDA:0,_ZNSt16_Sp_counted_baseILN9__gnu_cxx12_Lock_policyE2EE15_M_add_ref_copyEv
FN:148,_ZNSt16_Sp_counted_baseILN9__gnu_cxx12_Lock_policyE2EE10_M_releaseEv
FNDA:0,_ZNSt16_Sp_counted_baseILN9__gnu_cxx12_Lock_policyE2EE10_M_releaseEv
FN:181,_ZNSt16_Sp_counted_baseILN9__gnu_cxx12_Lock_policyE2EE15_M_weak_releaseEv
FNDA:0,_ZNSt16_Sp_counted_baseILN9__gnu_cxx12_Lock_policyE2EE15_M_weak_releaseEv
FN:414,_ZNSt14_Sp_ebo_helperILi0ESaI6WektorILi3EEELb1EEC2ERKS2_
FNDA:0,_ZNSt14_Sp_ebo_helperILi0ESaI6WektorILi3EEELb1EEC2ERKS2_
FN:418,_ZNSt14_Sp_ebo_helperILi0ESaI6WektorILi3EEELb1EE6_S_getERS3_
FNDA:0,_ZNSt14_Sp_ebo_helperILi0ESaI6WektorILi3EEELb1EE6_S_getERS3_
FN:508,_ZNSt19_Sp_make_shared_tag5_S_tiEv
FNDA:0,_ZNSt19_Sp_make_shared_tag5_S_tiEv
FN:531,_ZNSt23_Sp_counted_ptr_inplaceI6WektorILi3EESaIS1_ELN9__gnu_cxx12_Lock_policyE2EE5_ImplC2ES2_
FNDA:0,_ZNSt23_Sp_counted_ptr_inplaceI6WektorILi3EESaIS1_ELN9__gnu_cxx12_Lock_policyE2EE5_ImplC2ES2_
FN:533,_ZNSt23_Sp_counted_ptr_inplaceI6WektorILi3EESaIS1_ELN9__gnu_cxx12_Lock_policyE2EE5_Impl8_M_allocEv
FNDA:0,_ZNSt23_Sp_counted_ptr_inplaceI6WektorILi3EESaIS1_ELN9__gnu_cxx12_Lock_policyE2EE5_Impl8_M_allocEv
FN:543,_ZNSt23_Sp_counted_ptr_inplaceI6WektorILi3EESaIS1_ELN9__gnu_cxx12_Lock_policyE2EEC2IJRA3_dEEES2_DpOT_
FNDA:0,_ZNSt23_Sp_counted_ptr_inplaceI6WektorILi3EESaIS1_ELN9__gnu_cxx12_Lock_policyE2EEC2IJRA3_dEEES2_DpOT_
FN:552,_ZNSt23_Sp_counted_ptr_inplaceI6WektorILi3EESaIS1_ELN9__gnu_cxx12_Lock_policyE2EED0Ev
FNDA:0,_ZNSt23_Sp_counted_ptr_inplaceI6WektorILi3EESaIS1_ELN9__gnu_cxx12_Lock_policyE2EED0Ev
FN:552,_ZNSt23_Sp_counted_ptr_inplaceI6WektorILi3EESaIS1_ELN9__gnu_cxx12_Lock_policyE2EED2Ev
FNDA:0,_ZNSt23_Sp_counted_ptr_inplaceI6WektorILi3EESaIS1_ELN9__gnu_cxx12_Lock_policyE2EED2Ev
FN:555,_ZNSt23_Sp_counted_ptr_inplaceI6WektorILi3EESaIS1_ELN9__gnu_cxx12_Lock_policyE2EE10_M_disposeEv
FNDA:0,_ZNSt23_Sp_counted_ptr_inplaceI6WektorILi3EESaIS1_ELN9__gnu_cxx12_Lock_policyE2EE10_M_disposeEv
FN:562,_ZNSt23_Sp_counted_ptr_inplaceI6WektorILi3EESaIS1_ELN9__gnu_cxx12_Lock_policyE2EE10_M_destroyEv
FNDA:0,_ZNSt23_Sp_counted_ptr_inplaceI6WektorILi3EESaIS1_ELN9__gnu_cxx12_Lock_policyE2EE10_M_destroyEv
FN:575,_ZNSt23_Sp_counted_ptr_inplaceI6WektorILi3EESaIS1_ELN9__gnu_cxx12_Lock_policyE2EE14_M_get_deleterERKSt9type_info
FNDA:0,_ZNSt23_Sp_counted_ptr_inplaceI6WektorILi3EESaIS1_ELN9__gnu_cxx12_Lock_policyE2EE14_M_get_deleterERKSt9type_info
FN:594,_ZNSt23_Sp_counted_ptr_inplaceI6WektorILi3EESaIS1_ELN9__gnu_cxx12_Lock_policyE2EE6_M_ptrEv
FNDA:0,_ZNSt23_Sp_counted_ptr_inplaceI6WektorILi3EESaIS1_ELN9__gnu_cxx12_Lock_policyE2EE6_M_ptrEv
FN:616,_ZNSt14__shared_countILN9__gnu_cxx12_Lock_policyE2EEC2Ev
FNDA:0,_ZNSt14__shared_countILN9__gnu_cxx12_Lock_policyE2EEC2Ev
FN:672,_ZNSt14__shared_countILN9__gnu_cxx12_Lock_policyE2EEC2I6WektorILi3EESaIS5_EJRA3_dEEERPT_St20_Sp_alloc_shared_tagIT0_EDpOT1_
FNDA:0,_ZNSt14__shared_countILN9__gnu_cxx12_Lock_policyE2EEC2I6WektorILi3EESaIS5_EJRA3_dEEERPT_St20_Sp_alloc_shared_tagIT0_EDpOT1_
FN:727,_ZNSt14__shared_countILN9__gnu_cxx12_Lock_policyE2EED2Ev
FNDA:0,_ZNSt14__shared_countILN9__gnu_cxx12_Lock_policyE2EED2Ev
FN:741,_ZNSt14__shared_countILN9__gnu_cxx12_Lock_policyE2EEaSERKS2_
FNDA:0,_ZNSt14__shared_countILN9__gnu_cxx12_Lock_policyE2EEaSERKS2_
FN:756,_ZNSt14__shared_countILN9__gnu_cxx12_Lock_policyE2EE7_M_swapERS2_
FNDA:0,_ZNSt14__shared_countILN9__gnu_cxx12_Lock_policyE2EE7_M_swapERS2_
FN:799,_ZNSt12__weak_countILN9__gnu_cxx12_Lock_policyE2EEC2Ev
FNDA:0,_ZNSt12__weak_countILN9__gnu_cxx12_Lock_policyE2EEC2Ev
FN:820,_ZNSt12__weak_countILN9__gnu_cxx12_Lock_policyE2EED2Ev
FNDA:0,_ZNSt12__weak_countILN9__gnu_cxx12_Lock_policyE2EED2Ev
FN:1080,_ZNSt12__shared_ptrI6WektorILi3EELN9__gnu_cxx12_Lock_policyE2EEaSERKS4_
FNDA:0,_ZNSt12__shared_ptrI6WektorILi3EELN9__gnu_cxx12_Lock_policyE2EEaSERKS4_
FN:1118,_ZNSt12__shared_ptrI6WektorILi3EELN9__gnu_cxx12_Lock_policyE2EEC2Ev
FNDA:0,_ZNSt12__shared_ptrI6WektorILi3EELN9__gnu_cxx12_Lock_policyE2EEC2Ev
FN:1169,_ZNSt12__shared_ptrI6WektorILi3EELN9__gnu_cxx12_Lock_policyE2EED2Ev
FNDA:0,_ZNSt12__shared_ptrI6WektorILi3EELN9__gnu_cxx12_Lock_policyE2EED2Ev
FN:1176,_ZNSt12__shared_ptrI6WektorILi3EELN9__gnu_cxx12_Lock_policyE2EEC2EOS4_
FNDA:0,_ZNSt12__shared_ptrI6WektorILi3EELN9__gnu_cxx12_Lock_policyE2EEC2EOS4_
FN:1263,_ZNSt12__shared_ptrI6WektorILi3EELN9__gnu_cxx12_Lock_policyE2EEaSEOS4_
FNDA:0,_ZNSt12__shared_ptrI6WektorILi3EELN9__gnu_cxx12_Lock_policyE2EEaSEOS4_
FN:1324,_ZNSt12__shared_ptrI6WektorILi3EELN9__gnu_cxx12_Lock_policyE2EE4swapERS4_
FNDA:0,_ZNSt12__shared_ptrI6WektorILi3EELN9__gnu_cxx12_Lock_policyE2EE4swapERS4_
FN:1343,_ZNSt12__shared_ptrI6WektorILi3EELN9__gnu_cxx12_Lock_policyE2EEC2ISaIS1_EJRA3_dEEESt20_Sp_alloc_shared_tagIT_EDpOT0_
FNDA:0,_ZNSt12__shared_ptrI6WektorILi3EELN9__gnu_cxx12_Lock_policyE2EEC2ISaIS1_EJRA3_dEEESt20_Sp_alloc_shared_tagIT_EDpOT0_
FN:1388,_ZNSt12__shared_ptrI6WektorILi3EELN9__gnu_cxx12_Lock_policyE2EE31_M_enable_shared_from_this_withIS1_S1_EENSt9enable_ifIXntsrNS4_15__has_esft_baseIT0_vEE5valueEvE4typeEPT_
FNDA:0,_ZNSt12__shared_ptrI6WektorILi3EELN9__gnu_cxx12_Lock_policyE2EE31_M_enable_shared_from_this_withIS1_S1_EENSt9enable_ifIXntsrNS4_15__has_esft_baseIT0_vEE5valueEvE4typeEPT_
FN:1590,_ZNSt10__weak_ptrI5BrylaLN9__gnu_cxx12_Lock_policyE2EEC2Ev
FNDA:0,_ZNSt10__weak_ptrI5BrylaLN9__gnu_cxx12_Lock_policyE2EEC2Ev
FN:1596,_ZNSt10__weak_ptrI5BrylaLN9__gnu_cxx12_Lock_policyE2EED2Ev
FNDA:0,_ZNSt10__weak_ptrI5BrylaLN9__gnu_cxx12_Lock_policyE2EED2Ev
DA:117,0
DA:118,0
DA:121,0
DA:122,0
DA:121,0
DA:122,0
DA:131,0
DA:132,0
DA:138,0
DA:139,0
DA:148,0
DA:152,0
DA:155,0
DA:167,0
DA:168,0
DA:171,0
DA:174,0
DA:181,0
DA:185,0
DA:194,0
DA:196,0
DA:414,0
DA:418,0
DA:508,0
DA:511,0
DA:531,0
DA:533,0
DA:543,0
DA:544,0
DA:548,0
DA:550,0
DA:552,0
DA:552,0
DA:555,0
DA:557,0
DA:558,0
DA:562,0
DA:564,0
DA:565,0
DA:566,0
DA:567,0
DA:575,0
DA:577,0
DA:582,0
DA:583,0
DA:585,0
DA:590,0
DA:591,0
DA:594,0
DA:616,0
DA:617,0
DA:672,0
DA:676,0
DA:677,0
DA:678,0
DA:679,0
DA:680,0
DA:681,0
DA:682,0
DA:683,0
DA:684,0
DA:727,0
DA:729,0
DA:730,0
DA:731,0
DA:741,0
DA:743,0
DA:744,0
DA:746,0
DA:747,0
DA:748,0
DA:749,0
DA:750,0
DA:752,0
DA:756,0
DA:758,0
DA:759,0
DA:760,0
DA:761,0
DA:799,0
DA:800,0
DA:820,0
DA:822,0
DA:823,0
DA:824,0
DA:1080,0
DA:1118,0
DA:1119,0
DA:1120,0
DA:1169,0
DA:1176,0
DA:1177,0
DA:1179,0
DA:1180,0
DA:1181,0
DA:1263,0
DA:1265,0
DA:1266,0
DA:1324,0
DA:1326,0
DA:1327,0
DA:1328,0
DA:1343,0
DA:1344,0
DA:1345,0
DA:1388,0
DA:1389,0
DA:1590,0
DA:1591,0
DA:1592,0
DA:1596,0
end_of_record
SF:/home/mburakowski/pobiektowe/zad5_3-mburakow/include/Wektor.hh
FN:17,_ZN6WektorILi3EEC2ERS0_
FNDA:0,_ZN6WektorILi3EEC2ERS0_
FN:24,_ZN6WektorILi3EEC2ERKS0_
FNDA:0,_ZN6WektorILi3EEC2ERKS0_
FN:30,_ZN6WektorILi3EEaSERKS0_
FNDA:0,_ZN6WektorILi3EEaSERKS0_
FN:66,_ZN6WektorILi3EEC2Ev
FNDA:0,_ZN6WektorILi3EEC2Ev
FN:75,_ZN6WektorILi3EEC2EPd
FNDA:0,_ZN6WektorILi3EEC2EPd
FN:84,_ZN6WektorILi3EED2Ev
FNDA:0,_ZN6WektorILi3EED2Ev
FN:101,_ZN6WektorILi3EEixEi
FNDA:0,_ZN6WektorILi3EEixEi
DA:17,0
DA:19,0
DA:20,0
DA:22,0
DA:23,0
DA:24,0
DA:26,0
DA:27,0
DA:28,0
DA:29,0
DA:30,0
DA:32,0
DA:33,0
DA:34,0
DA:66,0
DA:68,0
DA:69,0
DA:70,0
DA:71,0
DA:72,0
DA:75,0
DA:77,0
DA:78,0
DA:79,0
DA:80,0
DA:81,0
DA:84,0
DA:86,0
DA:87,0
DA:101,0
DA:103,0
DA:105,0
DA:106,0
DA:108,0
end_of_record
TN:
SF:/home/mburakowski/pobiektowe/zad5_3-mburakow/include/Wektor.hh
FN:17,_ZN6WektorILi3EEC2ERS0_
FNDA:0,_ZN6WektorILi3EEC2ERS0_
FN:24,_ZN6WektorILi3EEC2ERKS0_
FNDA:0,_ZN6WektorILi3EEC2ERKS0_
FN:30,_ZN6WektorILi3EEaSERKS0_
FNDA:0,_ZN6WektorILi3EEaSERKS0_
FN:66,_ZN6WektorILi3EEC2Ev
FNDA:0,_ZN6WektorILi3EEC2Ev
FN:75,_ZN6WektorILi3EEC2EPd
FNDA:0,_ZN6WektorILi3EEC2EPd
FN:84,_ZN6WektorILi3EED2Ev
FNDA:0,_ZN6WektorILi3EED2Ev
FN:90,_ZNK6WektorILi3EEixEi
FNDA:0,_ZNK6WektorILi3EEixEi
FN:101,_ZN6WektorILi3EEixEi
FNDA:0,_ZN6WektorILi3EEixEi
FN:112,_ZN6WektorILi3EEplERS0_
FNDA:0,_ZN6WektorILi3EEplERS0_
FN:123,_ZN6WektorILi3EEmiERS0_
FNDA:0,_ZN6WektorILi3EEmiERS0_
FN:145,_ZlsILi3EERSoS0_RK6WektorIXT_EE
FNDA:0,_ZlsILi3EERSoS0_RK6WektorIXT_EE
DA:17,0
DA:19,0
DA:20,0
DA:22,0
DA:23,0
DA:24,0
DA:26,0
DA:27,0
DA:28,0
DA:29,0
DA:30,0
DA:32,0
DA:33,0
DA:34,0
DA:66,0
DA:68,0
DA:69,0
DA:70,0
DA:71,0
DA:72,0
DA:75,0
DA:77,0
DA:78,0
DA:79,0
DA:80,0
DA:81,0
DA:84,0
DA:86,0
DA:87,0
DA:90,0
DA:92,0
DA:94,0
DA:95,0
DA:97,0
DA:101,0
DA:103,0
DA:105,0
DA:106,0
DA:108,0
DA:112,0
DA:114,0
DA:115,0
DA:117,0
DA:119,0
DA:123,0
DA:125,0
DA:126,0
DA:128,0
DA:130,0
DA:145,0
DA:147,0
DA:149,0
DA:151,0
end_of_record
SF:/usr/include/c++/9/bits/shared_ptr_base.h
FN:83,_ZSt20__throw_bad_weak_ptrv
FNDA:0,_ZSt20__throw_bad_weak_ptrv
FN:148,_ZNSt16_Sp_counted_baseILN9__gnu_cxx12_Lock_policyE2EE10_M_releaseEv
FNDA:0,_ZNSt16_Sp_counted_baseILN9__gnu_cxx12_Lock_policyE2EE10_M_releaseEv
FN:199,_ZNKSt16_Sp_counted_baseILN9__gnu_cxx12_Lock_policyE2EE16_M_get_use_countEv
FNDA:0,_ZNKSt16_Sp_counted_baseILN9__gnu_cxx12_Lock_policyE2EE16_M_get_use_countEv
FN:239,_ZNSt16_Sp_counted_baseILN9__gnu_cxx12_Lock_policyE2EE15_M_add_ref_lockEv
FNDA:0,_ZNSt16_Sp_counted_baseILN9__gnu_cxx12_Lock_policyE2EE15_M_add_ref_lockEv
FN:727,_ZNSt14__shared_countILN9__gnu_cxx12_Lock_policyE2EED2Ev
FNDA:0,_ZNSt14__shared_countILN9__gnu_cxx12_Lock_policyE2EED2Ev
FN:894,_ZNSt14__shared_countILN9__gnu_cxx12_Lock_policyE2EEC2ERKSt12__weak_countILS1_2EE
FNDA:0,_ZNSt14__shared_countILN9__gnu_cxx12_Lock_policyE2EEC2ERKSt12__weak_countILS1_2EE
FN:1005,_ZNKSt19__shared_ptr_accessI6WektorILi3EELN9__gnu_cxx12_Lock_policyE2ELb0ELb0EEdeEv
FNDA:0,_ZNKSt19__shared_ptr_accessI6WektorILi3EELN9__gnu_cxx12_Lock_policyE2ELb0ELb0EEdeEv
FN:1012,_ZNKSt19__shared_ptr_accessI12Obiekt_ScenyLN9__gnu_cxx12_Lock_policyE2ELb0ELb0EEptEv
FNDA:0,_ZNKSt19__shared_ptr_accessI12Obiekt_ScenyLN9__gnu_cxx12_Lock_policyE2ELb0ELb0EEptEv
FN:1020,_ZNKSt19__shared_ptr_accessI12Obiekt_ScenyLN9__gnu_cxx12_Lock_policyE2ELb0ELb0EE6_M_getEv
FNDA:0,_ZNKSt19__shared_ptr_accessI12Obiekt_ScenyLN9__gnu_cxx12_Lock_policyE2ELb0ELb0EE6_M_getEv
FN:1020,_ZNKSt19__shared_ptr_accessI6WektorILi3EELN9__gnu_cxx12_Lock_policyE2ELb0ELb0EE6_M_getEv
FNDA:0,_ZNKSt19__shared_ptr_accessI6WektorILi3EELN9__gnu_cxx12_Lock_policyE2ELb0ELb0EE6_M_getEv
FN:1169,_ZNSt12__shared_ptrI5BrylaLN9__gnu_cxx12_Lock_policyE2EED2Ev
FNDA:0,_ZNSt12__shared_ptrI5BrylaLN9__gnu_cxx12_Lock_policyE2EED2Ev
FN:1192,_ZNSt12__shared_ptrI5BrylaLN9__gnu_cxx12_Lock_policyE2EEC2IS0_vEERKSt10__weak_ptrIT_LS2_2EE
FNDA:0,_ZNSt12__shared_ptrI5BrylaLN9__gnu_cxx12_Lock_policyE2EEC2IS0_vEERKSt10__weak_ptrIT_LS2_2EE
FN:1309,_ZNKSt12__shared_ptrI6WektorILi3EELN9__gnu_cxx12_Lock_policyE2EE3getEv
FNDA:0,_ZNKSt12__shared_ptrI6WektorILi3EELN9__gnu_cxx12_Lock_policyE2EE3getEv
FN:1309,_ZNKSt12__shared_ptrI5BrylaLN9__gnu_cxx12_Lock_policyE2EE3getEv
FNDA:0,_ZNKSt12__shared_ptrI5BrylaLN9__gnu_cxx12_Lock_policyE2EE3getEv
FN:1309,_ZNKSt12__shared_ptrI12Obiekt_ScenyLN9__gnu_cxx12_Lock_policyE2EE3getEv
FNDA:0,_ZNKSt12__shared_ptrI12Obiekt_ScenyLN9__gnu_cxx12_Lock_policyE2EE3getEv
DA:83,0
DA:84,0
DA:148,0
DA:152,0
DA:155,0
DA:167,0
DA:168,0
DA:171,0
DA:174,0
DA:199,0
DA:203,0
DA:239,0
DA:243,0
DA:244,0
DA:246,0
DA:247,0
DA:251,0
DA:254,0
DA:727,0
DA:729,0
DA:730,0
DA:731,0
DA:894,0
DA:895,0
DA:897,0
DA:898,0
DA:900,0
DA:901,0
DA:1005,0
DA:1008,0
DA:1012,0
DA:1015,0
DA:1020,0
DA:1021,0
DA:1020,0
DA:1021,0
DA:1169,0
DA:1192,0
DA:1193,0
DA:1197,0
DA:1198,0
DA:1309,0
DA:1310,0
DA:1309,0
DA:1310,0
DA:1309,0
DA:1310,0
end_of_record
SF:/usr/include/c++/9/ext/atomicity.h
FN:48,_ZN9__gnu_cxxL18__exchange_and_addEPVii
FNDA:0,_ZN9__gnu_cxxL18__exchange_and_addEPVii
FN:65,_ZN9__gnu_cxxL25__exchange_and_add_singleEPii
FNDA:0,_ZN9__gnu_cxxL25__exchange_and_add_singleEPii
FN:78,_ZN9__gnu_cxxL27__exchange_and_add_dispatchEPii
FNDA:0,_ZN9__gnu_cxxL27__exchange_and_add_dispatchEPii
DA:48,0
DA:49,0
DA:65,0
DA:67,0
DA:68,0
DA:69,0
DA:78,0
DA:81,0
DA:82,0
DA:84,0
end_of_record
SF:/usr/include/c++/9/ext/alloc_traits.h
FN:97,_ZN9__gnu_cxx14__alloc_traitsISaIcEcE17_S_select_on_copyERKS1_
FNDA:0,_ZN9__gnu_cxx14__alloc_traitsISaIcEcE17_S_select_on_copyERKS1_
DA:97,0
DA:98,0
end_of_record
SF:/usr/include/x86_64-linux-gnu/c++/9/bits/gthr-default.h
FN:248,_ZL18__gthread_active_pv
FNDA:0,_ZL18__gthread_active_pv
DA:248,0
DA:252,0
end_of_record
SF:/usr/include/c++/9/ext/type_traits.h
FN:152,_ZN9__gnu_cxx17__is_null_pointerIcEEbPT_
FNDA:0,_ZN9__gnu_cxx17__is_null_pointerIcEEbPT_
DA:152,0
DA:153,0
end_of_record
SF:/usr/include/c++/9/ext/new_allocator.h
FN:83,_ZN9__gnu_cxx13new_allocatorIcEC2ERKS1_
FNDA:0,_ZN9__gnu_cxx13new_allocatorIcEC2ERKS1_
FN:89,_ZN9__gnu_cxx13new_allocatorIcED2Ev
FNDA:0,_ZN9__gnu_cxx13new_allocatorIcED2Ev
DA:83,0
DA:89,0
end_of_record
SF:/home/mburakowski/pobiektowe/zad5_3-mburakow/src/Bryla.cpp
FN:3,_ZN5BrylaixEi
FNDA:0,_ZN5BrylaixEi
FN:7,_ZNK5BrylaixEi
FNDA:0,_ZNK5BrylaixEi
FN:12,_ZN5Bryla9set_nazwaENSt7__cxx1112basic_stringIcSt11char_traitsIcESaIcEEE
FNDA:0,_ZN5Bryla9set_nazwaENSt7__cxx1112basic_stringIcSt11char_traitsIcESaIcEEE
FN:17,_ZN5Bryla10set_srodekE6WektorILi3EE
FNDA:0,_ZN5Bryla10set_srodekE6WektorILi3EE
FN:22,_ZNK5Bryla10get_srodekEv
FNDA:0,_ZNK5Bryla10get_srodekEv
FN:27,_ZNK5Bryla9get_nazwaB5cxx11Ev
FNDA:0,_ZNK5Bryla9get_nazwaB5cxx11Ev
FN:32,_ZN5Bryla7przesunE6WektorILi3EE
FNDA:0,_ZN5Bryla7przesunE6WektorILi3EE
FN:41,_ZN5Bryla10translacjaE7MacierzILi3EE
FNDA:0,_ZN5Bryla10translacjaE7MacierzILi3EE
FN:50,_ZN5Bryla6zapiszEv
FNDA:0,_ZN5Bryla6zapiszEv
FN:78,_ZN5Bryla11czy_kolizjaESt10shared_ptrI12Obiekt_ScenyE
FNDA:0,_ZN5Bryla11czy_kolizjaESt10shared_ptrI12Obiekt_ScenyE
DA:3,0
DA:5,0
DA:7,0
DA:9,0
DA:12,0
DA:14,0
DA:15,0
DA:17,0
DA:19,0
DA:20,0
DA:22,0
DA:24,0
DA:27,0
DA:29,0
DA:32,0
DA:34,0
DA:36,0
DA:38,0
DA:39,0
DA:41,0
DA:43,0
DA:45,0
DA:47,0
DA:48,0
DA:50,0
DA:52,0
DA:53,0
DA:54,0
DA:56,0
DA:58,0
DA:60,0
DA:61,0
DA:63,0
DA:65,0
DA:66,0
DA:69,0
DA:70,0
DA:72,0
DA:74,0
DA:75,0
DA:76,0
DA:77,0
DA:78,0
DA:80,0
DA:82,0
DA:85,0
DA:86,0
DA:87,0
DA:88,0
DA:90,0
DA:93,0
end_of_record
SF:/usr/include/c++/9/bits/alloc_traits.h
FN:514,_ZNSt16allocator_traitsISaIcEE37select_on_container_copy_constructionERKS0_
FNDA:0,_ZNSt16allocator_traitsISaIcEE37select_on_container_copy_constructionERKS0_
DA:514,0
DA:515,0
end_of_record
SF:/usr/include/c++/9/bits/stl_vector.h
FN:915,_ZNKSt6vectorI6WektorILi3EESaIS1_EE4sizeEv
FNDA:0,_ZNKSt6vectorI6WektorILi3EESaIS1_EE4sizeEv
FN:1040,_ZNSt6vectorI6WektorILi3EESaIS1_EEixEm
FNDA:0,_ZNSt6vectorI6WektorILi3EESaIS1_EEixEm
FN:1058,_ZNKSt6vectorI6WektorILi3EESaIS1_EEixEm
FNDA:0,_ZNKSt6vectorI6WektorILi3EESaIS1_EEixEm
DA:915,0
DA:916,0
DA:1040,0
DA:1043,0
DA:1058,0
DA:1061,0
end_of_record
SF:/usr/include/c++/9/bits/basic_string.tcc
FN:206,_ZNSt7__cxx1112basic_stringIcSt11char_traitsIcESaIcEE12_M_constructIPcEEvT_S7_St20forward_iterator_tag
FNDA:0,_ZNSt7__cxx1112basic_stringIcSt11char_traitsIcESaIcEE12_M_constructIPcEEvT_S7_St20forward_iterator_tag
DA:206,0
DA:211,0
DA:212,0
DA:215,0
DA:217,0
DA:219,0
DA:220,0
DA:225,0
DA:226,0
DA:228,0
DA:229,0
DA:232,0
DA:233,0
end_of_record
SF:/usr/include/c++/9/bits/basic_string.h
FN:243,_ZNSt7__cxx1112basic_stringIcSt11char_traitsIcESaIcEE16_M_construct_auxIPcEEvT_S7_St12__false_type
FNDA:0,_ZNSt7__cxx1112basic_stringIcSt11char_traitsIcESaIcEE16_M_construct_auxIPcEEvT_S7_St12__false_type
FN:263,_ZNSt7__cxx1112basic_stringIcSt11char_traitsIcESaIcEE12_M_constructIPcEEvT_S7_
FNDA:0,_ZNSt7__cxx1112basic_stringIcSt11char_traitsIcESaIcEE12_M_constructIPcEEvT_S7_
DA:243,0
DA:247,0
DA:248,0
DA:263,0
DA:266,0
DA:267,0
end_of_record
SF:/usr/include/c++/9/bits/stl_iterator_base_types.h
FN:205,_ZSt19__iterator_categoryIPcENSt15iterator_traitsIT_E17iterator_categoryERKS2_
FNDA:0,_ZSt19__iterator_categoryIPcENSt15iterator_traitsIT_E17iterator_categoryERKS2_
DA:205,0
DA:206,0
end_of_record
SF:/usr/include/c++/9/bits/shared_ptr.h
FN:275,_ZNSt10shared_ptrI5BrylaEC2IS0_vEERKSt8weak_ptrIT_E
FNDA:0,_ZNSt10shared_ptrI5BrylaEC2IS0_vEERKSt8weak_ptrIT_E
FN:398,_ZStneI12Obiekt_Sceny5BrylaEbRKSt10shared_ptrIT_ERKS2_IT0_E
FNDA:0,_ZStneI12Obiekt_Sceny5BrylaEbRKSt10shared_ptrIT_ERKS2_IT0_E
FN:650,_ZNSt23enable_shared_from_thisI5BrylaE16shared_from_thisEv
FNDA:0,_ZNSt23enable_shared_from_thisI5BrylaE16shared_from_thisEv
DA:275,0
DA:276,0
DA:398,0
DA:399,0
DA:650,0
DA:651,0
end_of_record
SF:/usr/include/c++/9/iostream
end_of_record
SF:/usr/include/c++/9/cmath
FN:415,_ZSt3powIdiEN9__gnu_cxx11__promote_2IT_T0_NS0_9__promoteIS2_XsrSt12__is_integerIS2_E7__valueEE6__typeENS4_IS3_XsrS5_IS3_E7__valueEE6__typeEE6__typeES2_S3_
FNDA:0,_ZSt3powIdiEN9__gnu_cxx11__promote_2IT_T0_NS0_9__promoteIS2_XsrSt12__is_integerIS2_E7__valueEE6__typeENS4_IS3_XsrS5_IS3_E7__valueEE6__typeEE6__typeES2_S3_
DA:415,0
DA:418,0
end_of_record
SF:/usr/include/c++/9/bits/stl_iterator_base_funcs.h
FN:98,_ZSt10__distanceIPcENSt15iterator_traitsIT_E15difference_typeES2_S2_St26random_access_iterator_tag
FNDA:0,_ZSt10__distanceIPcENSt15iterator_traitsIT_E15difference_typeES2_S2_St26random_access_iterator_tag
FN:138,_ZSt8distanceIPcENSt15iterator_traitsIT_E15difference_typeES2_S2_
FNDA:0,_ZSt8distanceIPcENSt15iterator_traitsIT_E15difference_typeES2_S2_
DA:98,0
DA:104,0
DA:138,0
DA:141,0
DA:142,0
end_of_record
SF:/home/mburakowski/pobiektowe/zad5_3-mburakow/include/Bryla.hh
FN:20,_ZN5Bryla7promienEv
FNDA:0,_ZN5Bryla7promienEv
DA:20,0
end_of_record
SF:/home/mburakowski/pobiektowe/zad5_3-mburakow/include/Macierz.hh
FN:65,_ZN7MacierzILi3EEmlE6WektorILi3EE
FNDA:0,_ZN7MacierzILi3EEmlE6WektorILi3EE
DA:65,0
DA:67,0
DA:69,0
DA:71,0
DA:73,0
DA:76,0
end_of_record
SF:/usr/include/c++/9/bits/exception.h
FN:63,_ZNSt9exceptionC2Ev
FNDA:0,_ZNSt9exceptionC2Ev
DA:63,0
end_of_record
SF:/usr/include/c++/9/bits/move.h
FN:99,_ZSt4moveIRSaIcEEONSt16remove_referenceIT_E4typeEOS3_
FNDA:0,_ZSt4moveIRSaIcEEONSt16remove_referenceIT_E4typeEOS3_
DA:99,0
DA:100,0
end_of_record
TN:
SF:/usr/include/c++/9/ext/alloc_traits.h
FN:103,_ZN9__gnu_cxx14__alloc_traitsISaI6WektorILi3EEES2_E27_S_propagate_on_copy_assignEv
FNDA:0,_ZN9__gnu_cxx14__alloc_traitsISaI6WektorILi3EEES2_E27_S_propagate_on_copy_assignEv
FN:112,_ZN9__gnu_cxx14__alloc_traitsISaI6WektorILi3EEES2_E15_S_always_equalEv
FNDA:0,_ZN9__gnu_cxx14__alloc_traitsISaI6WektorILi3EEES2_E15_S_always_equalEv
DA:103,0
DA:104,0
DA:112,0
DA:113,0
end_of_record
SF:/usr/include/c++/9/ext/atomicity.h
FN:48,_ZN9__gnu_cxxL18__exchange_and_addEPVii
FNDA:0,_ZN9__gnu_cxxL18__exchange_and_addEPVii
FN:52,_ZN9__gnu_cxxL12__atomic_addEPVii
FNDA:0,_ZN9__gnu_cxxL12__atomic_addEPVii
FN:65,_ZN9__gnu_cxxL25__exchange_and_add_singleEPii
FNDA:0,_ZN9__gnu_cxxL25__exchange_and_add_singleEPii
FN:73,_ZN9__gnu_cxxL19__atomic_add_singleEPii
FNDA:0,_ZN9__gnu_cxxL19__atomic_add_singleEPii
FN:78,_ZN9__gnu_cxxL27__exchange_and_add_dispatchEPii
FNDA:0,_ZN9__gnu_cxxL27__exchange_and_add_dispatchEPii
FN:92,_ZN9__gnu_cxxL21__atomic_add_dispatchEPii
FNDA:0,_ZN9__gnu_cxxL21__atomic_add_dispatchEPii
DA:48,0
DA:49,0
DA:52,0
DA:53,0
DA:65,0
DA:67,0
DA:68,0
DA:69,0
DA:73,0
DA:74,0
DA:78,0
DA:81,0
DA:82,0
DA:84,0
DA:92,0
DA:95,0
DA:96,0
DA:98,0
DA:102,0
end_of_record
SF:/usr/include/c++/9/ext/type_traits.h
FN:152,_ZN9__gnu_cxx17__is_null_pointerIcEEbPT_
FNDA:0,_ZN9__gnu_cxx17__is_null_pointerIcEEbPT_
FN:152,_ZN9__gnu_cxx17__is_null_pointerIKcEEbPT_
FNDA:0,_ZN9__gnu_cxx17__is_null_pointerIKcEEbPT_
DA:152,0
DA:153,0
DA:152,0
DA:153,0
end_of_record
SF:/home/mburakowski/pobiektowe/zad5_3-mburakow/include/Obiekt_Sceny.hh
end_of_record
SF:/usr/include/x86_64-linux-gnu/c++/9/bits/gthr-default.h
FN:248,_ZL18__gthread_active_pv
FNDA:0,_ZL18__gthread_active_pv
DA:248,0
DA:252,0
end_of_record
SF:/usr/include/c++/9/bits/alloc_traits.h
FN:443,_ZNSt16allocator_traitsISaI6WektorILi3EEEE8allocateERS2_m
FNDA:0,_ZNSt16allocator_traitsISaI6WektorILi3EEEE8allocateERS2_m
FN:469,_ZNSt16allocator_traitsISaI6WektorILi3EEEE10deallocateERS2_PS1_m
FNDA:0,_ZNSt16allocator_traitsISaI6WektorILi3EEEE10deallocateERS2_PS1_m
FN:482,_ZNSt16allocator_traitsISaI6WektorILi3EEEE9constructIS1_JRKS1_EEEvRS2_PT_DpOT0_
FNDA:0,_ZNSt16allocator_traitsISaI6WektorILi3EEEE9constructIS1_JRKS1_EEEvRS2_PT_DpOT0_
FN:495,_ZNSt16allocator_traitsISaI6WektorILi3EEEE7destroyIS1_EEvRS2_PT_
FNDA:0,_ZNSt16allocator_traitsISaI6WektorILi3EEEE7destroyIS1_EEvRS2_PT_
FN:505,_ZNSt16allocator_traitsISaI6WektorILi3EEEE8max_sizeERKS2_
FNDA:0,_ZNSt16allocator_traitsISaI6WektorILi3EEEE8max_sizeERKS2_
FN:526,_ZSt18__do_alloc_on_copyISaI6WektorILi3EEEEvRT_RKS3_St17integral_constantIbLb0EE
FNDA:0,_ZSt18__do_alloc_on_copyISaI6WektorILi3EEEEvRT_RKS3_St17integral_constantIbLb0EE
FN:530,_ZSt15__alloc_on_copyISaI6WektorILi3EEEEvRT_RKS3_
FNDA:0,_ZSt15__alloc_on_copyISaI6WektorILi3EEEEvRT_RKS3_
DA:443,0
DA:444,0
DA:469,0
DA:470,0
DA:482,0
DA:484,0
DA:495,0
DA:497,0
DA:505,0
DA:506,0
DA:526,0
DA:527,0
DA:530,0
DA:534,0
DA:535,0
end_of_record
SF:/usr/include/c++/9/ext/new_allocator.h
FN:80,_ZN9__gnu_cxx13new_allocatorI6WektorILi3EEEC2Ev
FNDA:0,_ZN9__gnu_cxx13new_allocatorI6WektorILi3EEEC2Ev
FN:80,_ZN9__gnu_cxx13new_allocatorIcEC2Ev
FNDA:0,_ZN9__gnu_cxx13new_allocatorIcEC2Ev
FN:89,_ZN9__gnu_cxx13new_allocatorI6WektorILi3EEED2Ev
FNDA:0,_ZN9__gnu_cxx13new_allocatorI6WektorILi3EEED2Ev
FN:89,_ZN9__gnu_cxx13new_allocatorIcED2Ev
FNDA:0,_ZN9__gnu_cxx13new_allocatorIcED2Ev
FN:102,_ZN9__gnu_cxx13new_allocatorI6WektorILi3EEE8allocateEmPKv
FNDA:0,_ZN9__gnu_cxx13new_allocatorI6WektorILi3EEE8allocateEmPKv
FN:119,_ZN9__gnu_cxx13new_allocatorI6WektorILi3EEE10deallocateEPS2_m
FNDA:0,_ZN9__gnu_cxx13new_allocatorI6WektorILi3EEE10deallocateEPS2_m
FN:132,_ZNK9__gnu_cxx13new_allocatorI6WektorILi3EEE8max_sizeEv
FNDA:0,_ZNK9__gnu_cxx13new_allocatorI6WektorILi3EEE8max_sizeEv
FN:144,_ZN9__gnu_cxx13new_allocatorI6WektorILi3EEE9constructIS2_JRKS2_EEEvPT_DpOT0_
FNDA:0,_ZN9__gnu_cxx13new_allocatorI6WektorILi3EEE9constructIS2_JRKS2_EEEvPT_DpOT0_
FN:151,_ZN9__gnu_cxx13new_allocatorI6WektorILi3EEE7destroyIS2_EEvPT_
FNDA:0,_ZN9__gnu_cxx13new_allocatorI6WektorILi3EEE7destroyIS2_EEvPT_
DA:80,0
DA:80,0
DA:89,0
DA:89,0
DA:102,0
DA:104,0
DA:105,0
DA:114,0
DA:119,0
DA:128,0
DA:132,0
DA:135,0
DA:144,0
DA:147,0
DA:151,0
DA:153,0
end_of_record
SF:/usr/include/c++/9/new
FN:173,_ZnwmPv
FNDA:0,_ZnwmPv
DA:173,0
DA:174,0
end_of_record
SF:/usr/include/c++/9/bits/stl_vector.h
FN:94,_ZNSt12_Vector_baseI6WektorILi3EESaIS1_EE17_Vector_impl_dataC2Ev
FNDA:0,_ZNSt12_Vector_baseI6WektorILi3EESaIS1_EE17_Vector_impl_dataC2Ev
FN:128,_ZNSt12_Vector_baseI6WektorILi3EESaIS1_EE12_Vector_implC2Ev
FNDA:0,_ZNSt12_Vector_baseI6WektorILi3EESaIS1_EE12_Vector_implC2Ev
FN:273,_ZNSt12_Vector_baseI6WektorILi3EESaIS1_EE19_M_get_Tp_allocatorEv
FNDA:0,_ZNSt12_Vector_baseI6WektorILi3EESaIS1_EE19_M_get_Tp_allocatorEv
FN:277,_ZNKSt12_Vector_baseI6WektorILi3EESaIS1_EE19_M_get_Tp_allocatorEv
FNDA:0,_ZNKSt12_Vector_baseI6WektorILi3EESaIS1_EE19_M_get_Tp_allocatorEv
FN:285,_ZNSt12_Vector_baseI6WektorILi3EESaIS1_EEC2Ev
FNDA:0,_ZNSt12_Vector_baseI6WektorILi3EESaIS1_EEC2Ev
FN:330,_ZNSt12_Vector_baseI6WektorILi3EESaIS1_EED2Ev
FNDA:0,_ZNSt12_Vector_baseI6WektorILi3EESaIS1_EED2Ev
FN:340,_ZNSt12_Vector_baseI6WektorILi3EESaIS1_EE11_M_allocateEm
FNDA:0,_ZNSt12_Vector_baseI6WektorILi3EESaIS1_EE11_M_allocateEm
FN:347,_ZNSt12_Vector_baseI6WektorILi3EESaIS1_EE13_M_deallocateEPS1_m
FNDA:0,_ZNSt12_Vector_baseI6WektorILi3EESaIS1_EE13_M_deallocateEPS1_m
FN:484,_ZNSt6vectorI6WektorILi3EESaIS1_EEC2Ev
FNDA:0,_ZNSt6vectorI6WektorILi3EESaIS1_EEC2Ev
FN:675,_ZNSt6vectorI6WektorILi3EESaIS1_EED2Ev
FNDA:0,_ZNSt6vectorI6WektorILi3EESaIS1_EED2Ev
FN:808,_ZNSt6vectorI6WektorILi3EESaIS1_EE5beginEv
FNDA:0,_ZNSt6vectorI6WektorILi3EESaIS1_EE5beginEv
FN:817,_ZNKSt6vectorI6WektorILi3EESaIS1_EE5beginEv
FNDA:0,_ZNKSt6vectorI6WektorILi3EESaIS1_EE5beginEv
FN:826,_ZNSt6vectorI6WektorILi3EESaIS1_EE3endEv
FNDA:0,_ZNSt6vectorI6WektorILi3EESaIS1_EE3endEv
FN:835,_ZNKSt6vectorI6WektorILi3EESaIS1_EE3endEv
FNDA:0,_ZNKSt6vectorI6WektorILi3EESaIS1_EE3endEv
FN:915,_ZNKSt6vectorI6WektorILi3EESaIS1_EE4sizeEv
FNDA:0,_ZNKSt6vectorI6WektorILi3EESaIS1_EE4sizeEv
FN:920,_ZNKSt6vectorI6WektorILi3EESaIS1_EE8max_sizeEv
FNDA:0,_ZNKSt6vectorI6WektorILi3EESaIS1_EE8max_sizeEv
FN:995,_ZNKSt6vectorI6WektorILi3EESaIS1_EE8capacityEv
FNDA:0,_ZNKSt6vectorI6WektorILi3EESaIS1_EE8capacityEv
FN:1040,_ZNSt6vectorI6WektorILi3EESaIS1_EEixEm
FNDA:0,_ZNSt6vectorI6WektorILi3EESaIS1_EEixEm
FN:1184,_ZNSt6vectorI6WektorILi3EESaIS1_EE9push_backERKS1_
FNDA:0,_ZNSt6vectorI6WektorILi3EESaIS1_EE9push_backERKS1_
FN:1495,_ZNSt6vectorI6WektorILi3EESaIS1_EE5clearEv
FNDA:0,_ZNSt6vectorI6WektorILi3EESaIS1_EE5clearEv
FN:1505,_ZNSt6vectorI6WektorILi3EESaIS1_EE20_M_allocate_and_copyIN9__gnu_cxx17__normal_iteratorIPKS1_S3_EEEEPS1_mT_SB_
FNDA:0,_ZNSt6vectorI6WektorILi3EESaIS1_EE20_M_allocate_and_copyIN9__gnu_cxx17__normal_iteratorIPKS1_S3_EEEEPS1_mT_SB_
FN:1753,_ZNKSt6vectorI6WektorILi3EESaIS1_EE12_M_check_lenEmPKc
FNDA:0,_ZNKSt6vectorI6WektorILi3EESaIS1_EE12_M_check_lenEmPKc
FN:1773,_ZNSt6vectorI6WektorILi3EESaIS1_EE11_S_max_sizeERKS2_
FNDA:0,_ZNSt6vectorI6WektorILi3EESaIS1_EE11_S_max_sizeERKS2_
FN:1789,_ZNSt6vectorI6WektorILi3EESaIS1_EE15_M_erase_at_endEPS1_
FNDA:0,_ZNSt6vectorI6WektorILi3EESaIS1_EE15_M_erase_at_endEPS1_
DA:94,0
DA:95,0
DA:96,0
DA:128,0
DA:130,0
DA:131,0
DA:273,0
DA:274,0
DA:277,0
DA:278,0
DA:285,0
DA:330,0
DA:332,0
DA:333,0
DA:334,0
DA:340,0
DA:343,0
DA:347,0
DA:350,0
DA:351,0
DA:352,0
DA:484,0
DA:675,0
DA:677,0
DA:678,0
DA:680,0
DA:808,0
DA:809,0
DA:817,0
DA:818,0
DA:826,0
DA:827,0
DA:835,0
DA:836,0
DA:915,0
DA:916,0
DA:920,0
DA:921,0
DA:995,0
DA:996,0
DA:997,0
DA:1040,0
DA:1043,0
DA:1184,0
DA:1186,0
DA:1189,0
DA:1191,0
DA:1195,0
DA:1196,0
DA:1495,0
DA:1496,0
DA:1505,0
DA:1508,0
DA:1511,0
DA:1512,0
DA:1513,0
DA:1515,0
DA:1517,0
DA:1518,0
DA:1753,0
DA:1755,0
DA:1756,0
DA:1758,0
DA:1759,0
DA:1773,0
DA:1778,0
DA:1780,0
DA:1781,0
DA:1789,0
DA:1791,0
DA:1793,0
DA:1794,0
DA:1795,0
DA:1798,0
end_of_record
SF:/home/mburakowski/pobiektowe/zad5_3-mburakow/src/Dron.cpp
FN:4,_ZN4DronC2EiRN3PzG15LaczeDoGNUPlotaE6WektorILi3EE
FNDA:0,_ZN4DronC2EiRN3PzG15LaczeDoGNUPlotaE6WektorILi3EE
FN:29,_ZN4Dron9unoszenieEd
FNDA:0,_ZN4Dron9unoszenieEd
FN:39,_ZN4Dron7przesunEd
FNDA:0,_ZN4Dron7przesunEd
FN:49,_ZN4Dron5obrotEd
FNDA:0,_ZN4Dron5obrotEd
FN:57,_ZN4Dron12obrot_rotrowEv
FNDA:0,_ZN4Dron12obrot_rotrowEv
FN:86,_ZN4Dron6zapiszEv
FNDA:0,_ZN4Dron6zapiszEv
FN:93,_ZN4Dron10sterowanieERNSt7__cxx114listISt10shared_ptrI12Obiekt_ScenyESaIS4_EEE
FNDA:0,_ZN4Dron10sterowanieERNSt7__cxx114listISt10shared_ptrI12Obiekt_ScenyESaIS4_EEE
FN:207,_ZNK4Dron10get_srodekEv
FNDA:0,_ZNK4Dron10get_srodekEv
FN:211,_ZN4Dron11czy_kolizjaESt10shared_ptrI12Obiekt_ScenyE
FNDA:0,_ZN4Dron11czy_kolizjaESt10shared_ptrI12Obiekt_ScenyE
FN:229,_ZN4Dron12okresl_drogeEd
FNDA:0,_ZN4Dron12okresl_drogeEd
FN:253,_ZN4Dron4usunEv
FNDA:0,_ZN4Dron4usunEv
DA:4,0
DA:6,0
DA:7,0
DA:9,0
DA:11,0
DA:12,0
DA:14,0
DA:15,0
DA:16,0
DA:17,0
DA:18,0
DA:19,0
DA:20,0
DA:21,0
DA:23,0
DA:24,0
DA:26,0
DA:27,0
DA:29,0
DA:31,0
DA:32,0
DA:34,0
DA:35,0
DA:36,0
DA:37,0
DA:39,0
DA:41,0
DA:42,0
DA:43,0
DA:44,0
DA:45,0
DA:46,0
DA:47,0
DA:49,0
DA:51,0
DA:52,0
DA:53,0
DA:54,0
DA:55,0
DA:56,0
DA:57,0
DA:60,0
DA:61,0
DA:62,0
DA:64,0
DA:66,0
DA:68,0
DA:70,0
DA:71,0
DA:75,0
DA:76,0
DA:80,0
DA:82,0
DA:84,0
DA:86,0
DA:88,0
DA:89,0
DA:90,0
DA:91,0
DA:93,0
DA:99,0
DA:100,0
DA:101,0
DA:102,0
DA:104,0
DA:106,0
DA:107,0
DA:108,0
DA:109,0
DA:110,0
DA:112,0
DA:113,0
DA:114,0
DA:115,0
DA:116,0
DA:117,0
DA:118,0
DA:119,0
DA:121,0
DA:125,0
DA:127,0
DA:128,0
DA:129,0
DA:130,0
DA:131,0
DA:132,0
DA:133,0
DA:134,0
DA:137,0
DA:139,0
DA:140,0
DA:141,0
DA:143,0
DA:144,0
DA:146,0
DA:147,0
DA:150,0
DA:152,0
DA:154,0
DA:155,0
DA:156,0
DA:157,0
DA:158,0
DA:160,0
DA:161,0
DA:162,0
DA:163,0
DA:164,0
DA:165,0
DA:166,0
DA:167,0
DA:169,0
DA:171,0
DA:172,0
DA:173,0
DA:174,0
DA:175,0
DA:177,0
DA:179,0
DA:180,0
DA:181,0
DA:182,0
DA:183,0
DA:184,0
DA:185,0
DA:186,0
DA:191,0
DA:193,0
DA:194,0
DA:195,0
DA:196,0
DA:197,0
DA:198,0
DA:202,0
DA:203,0
DA:204,0
DA:206,0
DA:207,0
DA:209,0
DA:211,0
DA:213,0
DA:215,0
DA:218,0
DA:219,0
DA:220,0
DA:221,0
DA:223,0
DA:226,0
DA:229,0
DA:231,0
DA:232,0
DA:233,0
DA:234,0
DA:235,0
DA:236,0
DA:237,0
DA:238,0
DA:239,0
DA:240,0
DA:242,0
DA:244,0
DA:245,0
DA:248,0
DA:250,0
DA:251,0
DA:253,0
DA:255,0
DA:256,0
DA:257,0
DA:258,0
end_of_record
SF:/usr/include/c++/9/bits/char_traits.h
FN:100,_ZN9__gnu_cxx11char_traitsIcE2eqERKcS3_
FNDA:0,_ZN9__gnu_cxx11char_traitsIcE2eqERKcS3_
FN:161,_ZN9__gnu_cxx11char_traitsIcE6lengthEPKc
FNDA:0,_ZN9__gnu_cxx11char_traitsIcE6lengthEPKc
FN:329,_ZNSt11char_traitsIcE6lengthEPKc
FNDA:0,_ZNSt11char_traitsIcE6lengthEPKc
FN:361,_ZNSt11char_traitsIcE4copyEPcPKcm
FNDA:0,_ZNSt11char_traitsIcE4copyEPcPKcm
DA:100,0
DA:101,0
DA:161,0
DA:164,0
DA:165,0
DA:166,0
DA:167,0
DA:236,0
DA:329,0
DA:332,0
DA:333,0
DA:335,0
DA:361,0
DA:363,0
DA:364,0
DA:365,0
end_of_record
SF:/usr/include/c++/9/bits/stl_list.h
FN:171,_ZNKSt10_List_nodeISt10shared_ptrI12Obiekt_ScenyEE9_M_valptrEv
FNDA:0,_ZNKSt10_List_nodeISt10shared_ptrI12Obiekt_ScenyEE9_M_valptrEv
FN:200,_ZNSt14_List_iteratorISt10shared_ptrI12Obiekt_ScenyEEC2EPNSt8__detail15_List_node_baseE
FNDA:0,_ZNSt14_List_iteratorISt10shared_ptrI12Obiekt_ScenyEEC2EPNSt8__detail15_List_node_baseE
FN:284,_ZNSt20_List_const_iteratorISt10shared_ptrI12Obiekt_ScenyEEC2ERKSt14_List_iteratorIS2_E
FNDA:0,_ZNSt20_List_const_iteratorISt10shared_ptrI12Obiekt_ScenyEEC2ERKSt14_List_iteratorIS2_E
FN:293,_ZNKSt20_List_const_iteratorISt10shared_ptrI12Obiekt_ScenyEEdeEv
FNDA:0,_ZNKSt20_List_const_iteratorISt10shared_ptrI12Obiekt_ScenyEEdeEv
FN:308,_ZNSt20_List_const_iteratorISt10shared_ptrI12Obiekt_ScenyEEppEi
FNDA:0,_ZNSt20_List_const_iteratorISt10shared_ptrI12Obiekt_ScenyEEppEi
FN:335,_ZStneRKSt20_List_const_iteratorISt10shared_ptrI12Obiekt_ScenyEES5_
FNDA:0,_ZStneRKSt20_List_const_iteratorISt10shared_ptrI12Obiekt_ScenyEES5_
FN:941,_ZNSt7__cxx114listISt10shared_ptrI12Obiekt_ScenyESaIS3_EE5beginEv
FNDA:0,_ZNSt7__cxx114listISt10shared_ptrI12Obiekt_ScenyESaIS3_EE5beginEv
FN:959,_ZNSt7__cxx114listISt10shared_ptrI12Obiekt_ScenyESaIS3_EE3endEv
FNDA:0,_ZNSt7__cxx114listISt10shared_ptrI12Obiekt_ScenyESaIS3_EE3endEv
DA:171,0
DA:200,0
DA:201,0
DA:284,0
DA:285,0
DA:293,0
DA:294,0
DA:308,0
DA:310,0
DA:311,0
DA:312,0
DA:335,0
DA:336,0
DA:941,0
DA:942,0
DA:959,0
DA:960,0
end_of_record
SF:/home/mburakowski/pobiektowe/zad5_3-mburakow/include/Dron.hh
FN:25,_ZN4Dron7promienEv
FNDA:0,_ZN4Dron7promienEv
FN:29,_ZNK4Dron9get_nazwaB5cxx11Ev
FNDA:0,_ZNK4Dron9get_nazwaB5cxx11Ev
DA:25,0
DA:29,0
end_of_record
SF:/home/mburakowski/pobiektowe/zad5_3-mburakow/include/Wektor.hh
FN:17,_ZN6WektorILi3EEC2ERS0_
FNDA:0,_ZN6WektorILi3EEC2ERS0_
FN:24,_ZN6WektorILi3EEC2ERKS0_
FNDA:0,_ZN6WektorILi3EEC2ERKS0_
FN:30,_ZN6WektorILi3EEaSERKS0_
FNDA:0,_ZN6WektorILi3EEaSERKS0_
FN:66,_ZN6WektorILi3EEC2Ev
FNDA:0,_ZN6WektorILi3EEC2Ev
FN:84,_ZN6WektorILi3EED2Ev
FNDA:0,_ZN6WektorILi3EED2Ev
FN:90,_ZNK6WektorILi3EEixEi
FNDA:0,_ZNK6WektorILi3EEixEi
FN:101,_ZN6WektorILi3EEixEi
FNDA:0,_ZN6WektorILi3EEixEi
FN:112,_ZN6WektorILi3EEplERS0_
FNDA:0,_ZN6WektorILi3EEplERS0_
FN:145,_ZlsILi3EERSoS0_RK6WektorIXT_EE
FNDA:0,_ZlsILi3EERSoS0_RK6WektorIXT_EE
DA:17,0
DA:19,0
DA:20,0
DA:22,0
DA:23,0
DA:24,0
DA:26,0
DA:27,0
DA:28,0
DA:29,0
DA:30,0
DA:32,0
DA:33,0
DA:34,0
DA:66,0
DA:68,0
DA:69,0
DA:70,0
DA:71,0
DA:72,0
DA:84,0
DA:86,0
DA:87,0
DA:90,0
DA:92,0
DA:94,0
DA:95,0
DA:97,0
DA:101,0
DA:103,0
DA:105,0
DA:106,0
DA:108,0
DA:112,0
DA:114,0
DA:115,0
DA:117,0
DA:119,0
DA:145,0
DA:147,0
DA:149,0
DA:151,0
end_of_record
SF:/usr/include/c++/9/bits/shared_ptr_base.h
FN:83,_ZSt20__throw_bad_weak_ptrv
FNDA:0,_ZSt20__throw_bad_weak_ptrv
FN:138,_ZNSt16_Sp_counted_baseILN9__gnu_cxx12_Lock_policyE2EE15_M_add_ref_copyEv
FNDA:0,_ZNSt16_Sp_counted_baseILN9__gnu_cxx12_Lock_policyE2EE15_M_add_ref_copyEv
FN:148,_ZNSt16_Sp_counted_baseILN9__gnu_cxx12_Lock_policyE2EE10_M_releaseEv
FNDA:0,_ZNSt16_Sp_counted_baseILN9__gnu_cxx12_Lock_policyE2EE10_M_releaseEv
FN:181,_ZNSt16_Sp_counted_baseILN9__gnu_cxx12_Lock_policyE2EE15_M_weak_releaseEv
FNDA:0,_ZNSt16_Sp_counted_baseILN9__gnu_cxx12_Lock_policyE2EE15_M_weak_releaseEv
FN:199,_ZNKSt16_Sp_counted_baseILN9__gnu_cxx12_Lock_policyE2EE16_M_get_use_countEv
FNDA:0,_ZNKSt16_Sp_counted_baseILN9__gnu_cxx12_Lock_policyE2EE16_M_get_use_countEv
FN:239,_ZNSt16_Sp_counted_baseILN9__gnu_cxx12_Lock_policyE2EE15_M_add_ref_lockEv
FNDA:0,_ZNSt16_Sp_counted_baseILN9__gnu_cxx12_Lock_policyE2EE15_M_add_ref_lockEv
FN:727,_ZNSt14__shared_countILN9__gnu_cxx12_Lock_policyE2EED2Ev
FNDA:0,_ZNSt14__shared_countILN9__gnu_cxx12_Lock_policyE2EED2Ev
FN:733,_ZNSt14__shared_countILN9__gnu_cxx12_Lock_policyE2EEC2ERKS2_
FNDA:0,_ZNSt14__shared_countILN9__gnu_cxx12_Lock_policyE2EEC2ERKS2_
FN:741,_ZNSt14__shared_countILN9__gnu_cxx12_Lock_policyE2EEaSERKS2_
FNDA:0,_ZNSt14__shared_countILN9__gnu_cxx12_Lock_policyE2EEaSERKS2_
FN:799,_ZNSt12__weak_countILN9__gnu_cxx12_Lock_policyE2EEC2Ev
FNDA:0,_ZNSt12__weak_countILN9__gnu_cxx12_Lock_policyE2EEC2Ev
FN:820,_ZNSt12__weak_countILN9__gnu_cxx12_Lock_policyE2EED2Ev
FNDA:0,_ZNSt12__weak_countILN9__gnu_cxx12_Lock_policyE2EED2Ev
FN:894,_ZNSt14__shared_countILN9__gnu_cxx12_Lock_policyE2EEC2ERKSt12__weak_countILS1_2EE
FNDA:0,_ZNSt14__shared_countILN9__gnu_cxx12_Lock_policyE2EEC2ERKSt12__weak_countILS1_2EE
FN:1012,_ZNKSt19__shared_ptr_accessI12Obiekt_ScenyLN9__gnu_cxx12_Lock_policyE2ELb0ELb0EEptEv
FNDA:0,_ZNKSt19__shared_ptr_accessI12Obiekt_ScenyLN9__gnu_cxx12_Lock_policyE2ELb0ELb0EEptEv
FN:1020,_ZNKSt19__shared_ptr_accessI12Obiekt_ScenyLN9__gnu_cxx12_Lock_policyE2ELb0ELb0EE6_M_getEv
FNDA:0,_ZNKSt19__shared_ptr_accessI12Obiekt_ScenyLN9__gnu_cxx12_Lock_policyE2ELb0ELb0EE6_M_getEv
FN:1080,_ZNSt12__shared_ptrI6WektorILi3EELN9__gnu_cxx12_Lock_policyE2EEaSERKS4_
FNDA:0,_ZNSt12__shared_ptrI6WektorILi3EELN9__gnu_cxx12_Lock_policyE2EEaSERKS4_
FN:1167,_ZNSt12__shared_ptrI12Obiekt_ScenyLN9__gnu_cxx12_Lock_policyE2EEC2ERKS3_
FNDA:0,_ZNSt12__shared_ptrI12Obiekt_ScenyLN9__gnu_cxx12_Lock_policyE2EEC2ERKS3_
FN:1169,_ZNSt12__shared_ptrI4DronLN9__gnu_cxx12_Lock_policyE2EED2Ev
FNDA:0,_ZNSt12__shared_ptrI4DronLN9__gnu_cxx12_Lock_policyE2EED2Ev
FN:1169,_ZNSt12__shared_ptrI12Obiekt_ScenyLN9__gnu_cxx12_Lock_policyE2EED2Ev
FNDA:0,_ZNSt12__shared_ptrI12Obiekt_ScenyLN9__gnu_cxx12_Lock_policyE2EED2Ev
FN:1169,_ZNSt12__shared_ptrI6WektorILi3EELN9__gnu_cxx12_Lock_policyE2EED2Ev
FNDA:0,_ZNSt12__shared_ptrI6WektorILi3EELN9__gnu_cxx12_Lock_policyE2EED2Ev
FN:1192,_ZNSt12__shared_ptrI4DronLN9__gnu_cxx12_Lock_policyE2EEC2IS0_vEERKSt10__weak_ptrIT_LS2_2EE
FNDA:0,_ZNSt12__shared_ptrI4DronLN9__gnu_cxx12_Lock_policyE2EEC2IS0_vEERKSt10__weak_ptrIT_LS2_2EE
FN:1309,_ZNKSt12__shared_ptrI12Obiekt_ScenyLN9__gnu_cxx12_Lock_policyE2EE3getEv
FNDA:0,_ZNKSt12__shared_ptrI12Obiekt_ScenyLN9__gnu_cxx12_Lock_policyE2EE3getEv
FN:1309,_ZNKSt12__shared_ptrI4DronLN9__gnu_cxx12_Lock_policyE2EE3getEv
FNDA:0,_ZNKSt12__shared_ptrI4DronLN9__gnu_cxx12_Lock_policyE2EE3getEv
FN:1590,_ZNSt10__weak_ptrI4DronLN9__gnu_cxx12_Lock_policyE2EEC2Ev
FNDA:0,_ZNSt10__weak_ptrI4DronLN9__gnu_cxx12_Lock_policyE2EEC2Ev
FN:1596,_ZNSt10__weak_ptrI5BrylaLN9__gnu_cxx12_Lock_policyE2EED2Ev
FNDA:0,_ZNSt10__weak_ptrI5BrylaLN9__gnu_cxx12_Lock_policyE2EED2Ev
FN:1596,_ZNSt10__weak_ptrI4DronLN9__gnu_cxx12_Lock_policyE2EED2Ev
FNDA:0,_ZNSt10__weak_ptrI4DronLN9__gnu_cxx12_Lock_policyE2EED2Ev
DA:83,0
DA:84,0
DA:138,0
DA:139,0
DA:148,0
DA:152,0
DA:155,0
DA:167,0
DA:168,0
DA:171,0
DA:174,0
DA:181,0
DA:185,0
DA:194,0
DA:196,0
DA:199,0
DA:203,0
DA:239,0
DA:243,0
DA:244,0
DA:246,0
DA:247,0
DA:251,0
DA:254,0
DA:727,0
DA:729,0
DA:730,0
DA:731,0
DA:733,0
DA:734,0
DA:736,0
DA:737,0
DA:738,0
DA:741,0
DA:743,0
DA:744,0
DA:746,0
DA:747,0
DA:748,0
DA:749,0
DA:750,0
DA:752,0
DA:799,0
DA:800,0
DA:820,0
DA:822,0
DA:823,0
DA:824,0
DA:894,0
DA:895,0
DA:897,0
DA:898,0
DA:900,0
DA:901,0
DA:1012,0
DA:1015,0
DA:1020,0
DA:1021,0
DA:1080,0
DA:1167,0
DA:1169,0
DA:1169,0
DA:1169,0
DA:1192,0
DA:1193,0
DA:1197,0
DA:1198,0
DA:1309,0
DA:1310,0
DA:1309,0
DA:1310,0
DA:1590,0
DA:1591,0
DA:1592,0
DA:1596,0
DA:1596,0
end_of_record
SF:/usr/include/c++/9/bits/stl_uninitialized.h
FN:76,_ZNSt20__uninitialized_copyILb0EE13__uninit_copyIPK6WektorILi3EEPS3_EET0_T_S8_S7_
FNDA:0,_ZNSt20__uninitialized_copyILb0EE13__uninit_copyIPK6WektorILi3EEPS3_EET0_T_S8_S7_
FN:76,_ZNSt20__uninitialized_copyILb0EE13__uninit_copyIN9__gnu_cxx17__normal_iteratorIPK6WektorILi3EESt6vectorIS5_SaIS5_EEEEPS5_EET0_T_SE_SD_
FNDA:0,_ZNSt20__uninitialized_copyILb0EE13__uninit_copyIN9__gnu_cxx17__normal_iteratorIPK6WektorILi3EESt6vectorIS5_SaIS5_EEEEPS5_EET0_T_SE_SD_
FN:76,_ZNSt20__uninitialized_copyILb0EE13__uninit_copyIP6WektorILi3EES4_EET0_T_S6_S5_
FNDA:0,_ZNSt20__uninitialized_copyILb0EE13__uninit_copyIP6WektorILi3EES4_EET0_T_S6_S5_
FN:115,_ZSt18uninitialized_copyIPK6WektorILi3EEPS1_ET0_T_S6_S5_
FNDA:0,_ZSt18uninitialized_copyIPK6WektorILi3EEPS1_ET0_T_S6_S5_
FN:115,_ZSt18uninitialized_copyIN9__gnu_cxx17__normal_iteratorIPK6WektorILi3EESt6vectorIS3_SaIS3_EEEEPS3_ET0_T_SC_SB_
FNDA:0,_ZSt18uninitialized_copyIN9__gnu_cxx17__normal_iteratorIPK6WektorILi3EESt6vectorIS3_SaIS3_EEEEPS3_ET0_T_SC_SB_
FN:115,_ZSt18uninitialized_copyIP6WektorILi3EES2_ET0_T_S4_S3_
FNDA:0,_ZSt18uninitialized_copyIP6WektorILi3EES2_ET0_T_S4_S3_
FN:305,_ZSt22__uninitialized_copy_aIPK6WektorILi3EEPS1_S1_ET0_T_S6_S5_RSaIT1_E
FNDA:0,_ZSt22__uninitialized_copy_aIPK6WektorILi3EEPS1_S1_ET0_T_S6_S5_RSaIT1_E
FN:305,_ZSt22__uninitialized_copy_aIN9__gnu_cxx17__normal_iteratorIPK6WektorILi3EESt6vectorIS3_SaIS3_EEEEPS3_S3_ET0_T_SC_SB_RSaIT1_E
FNDA:0,_ZSt22__uninitialized_copy_aIN9__gnu_cxx17__normal_iteratorIPK6WektorILi3EESt6vectorIS3_SaIS3_EEEEPS3_S3_ET0_T_SC_SB_RSaIT1_E
FN:305,_ZSt22__uninitialized_copy_aIP6WektorILi3EES2_S1_ET0_T_S4_S3_RSaIT1_E
FNDA:0,_ZSt22__uninitialized_copy_aIP6WektorILi3EES2_S1_ET0_T_S4_S3_RSaIT1_E
FN:323,_ZSt34__uninitialized_move_if_noexcept_aIP6WektorILi3EES2_SaIS1_EET0_T_S5_S4_RT1_
FNDA:0,_ZSt34__uninitialized_move_if_noexcept_aIP6WektorILi3EES2_SaIS1_EET0_T_S5_S4_RT1_
DA:76,0
DA:79,0
DA:82,0
DA:83,0
DA:84,0
DA:76,0
DA:79,0
DA:82,0
DA:83,0
DA:84,0
DA:76,0
DA:79,0
DA:82,0
DA:83,0
DA:84,0
DA:115,0
DA:134,0
DA:140,0
DA:115,0
DA:134,0
DA:140,0
DA:115,0
DA:134,0
DA:140,0
DA:305,0
DA:307,0
DA:305,0
DA:307,0
DA:305,0
DA:307,0
DA:323,0
DA:329,0
DA:330,0
end_of_record
SF:/usr/include/c++/9/bits/stl_iterator.h
FN:806,_ZN9__gnu_cxx17__normal_iteratorIP6WektorILi3EESt6vectorIS2_SaIS2_EEEC2ERKS3_
FNDA:0,_ZN9__gnu_cxx17__normal_iteratorIP6WektorILi3EESt6vectorIS2_SaIS2_EEEC2ERKS3_
FN:806,_ZN9__gnu_cxx17__normal_iteratorIPK6WektorILi3EESt6vectorIS2_SaIS2_EEEC2ERKS4_
FNDA:0,_ZN9__gnu_cxx17__normal_iteratorIPK6WektorILi3EESt6vectorIS2_SaIS2_EEEC2ERKS4_
FN:819,_ZNK9__gnu_cxx17__normal_iteratorIPK6WektorILi3EESt6vectorIS2_SaIS2_EEEdeEv
FNDA:0,_ZNK9__gnu_cxx17__normal_iteratorIPK6WektorILi3EESt6vectorIS2_SaIS2_EEEdeEv
FN:819,_ZNK9__gnu_cxx17__normal_iteratorIP6WektorILi3EESt6vectorIS2_SaIS2_EEEdeEv
FNDA:0,_ZNK9__gnu_cxx17__normal_iteratorIP6WektorILi3EESt6vectorIS2_SaIS2_EEEdeEv
FN:827,_ZN9__gnu_cxx17__normal_iteratorIPK6WektorILi3EESt6vectorIS2_SaIS2_EEEppEv
FNDA:0,_ZN9__gnu_cxx17__normal_iteratorIPK6WektorILi3EESt6vectorIS2_SaIS2_EEEppEv
FN:827,_ZN9__gnu_cxx17__normal_iteratorIP6WektorILi3EESt6vectorIS2_SaIS2_EEEppEv
FNDA:0,_ZN9__gnu_cxx17__normal_iteratorIP6WektorILi3EESt6vectorIS2_SaIS2_EEEppEv
FN:859,_ZNK9__gnu_cxx17__normal_iteratorIP6WektorILi3EESt6vectorIS2_SaIS2_EEEplEl
FNDA:0,_ZNK9__gnu_cxx17__normal_iteratorIP6WektorILi3EESt6vectorIS2_SaIS2_EEEplEl
FN:871,_ZNK9__gnu_cxx17__normal_iteratorIPK6WektorILi3EESt6vectorIS2_SaIS2_EEE4baseEv
FNDA:0,_ZNK9__gnu_cxx17__normal_iteratorIPK6WektorILi3EESt6vectorIS2_SaIS2_EEE4baseEv
FN:871,_ZNK9__gnu_cxx17__normal_iteratorIP6WektorILi3EESt6vectorIS2_SaIS2_EEE4baseEv
FNDA:0,_ZNK9__gnu_cxx17__normal_iteratorIP6WektorILi3EESt6vectorIS2_SaIS2_EEE4baseEv
FN:907,_ZN9__gnu_cxxneIPK6WektorILi3EESt6vectorIS2_SaIS2_EEEEbRKNS_17__normal_iteratorIT_T0_EESD_
FNDA:0,_ZN9__gnu_cxxneIPK6WektorILi3EESt6vectorIS2_SaIS2_EEEEbRKNS_17__normal_iteratorIT_T0_EESD_
FN:907,_ZN9__gnu_cxxneIP6WektorILi3EESt6vectorIS2_SaIS2_EEEEbRKNS_17__normal_iteratorIT_T0_EESC_
FNDA:0,_ZN9__gnu_cxxneIP6WektorILi3EESt6vectorIS2_SaIS2_EEEEbRKNS_17__normal_iteratorIT_T0_EESC_
FN:989,_ZN9__gnu_cxxmiIP6WektorILi3EESt6vectorIS2_SaIS2_EEEENS_17__normal_iteratorIT_T0_E15difference_typeERKSA_SD_
FNDA:0,_ZN9__gnu_cxxmiIP6WektorILi3EESt6vectorIS2_SaIS2_EEEENS_17__normal_iteratorIT_T0_E15difference_typeERKSA_SD_
FN:1010,_ZSt12__niter_baseIP6WektorILi3EESt6vectorIS1_SaIS1_EEET_N9__gnu_cxx17__normal_iteratorIS6_T0_EE
FNDA:0,_ZSt12__niter_baseIP6WektorILi3EESt6vectorIS1_SaIS1_EEET_N9__gnu_cxx17__normal_iteratorIS6_T0_EE
FN:1010,_ZSt12__niter_baseIPK6WektorILi3EESt6vectorIS1_SaIS1_EEET_N9__gnu_cxx17__normal_iteratorIS7_T0_EE
FNDA:0,_ZSt12__niter_baseIPK6WektorILi3EESt6vectorIS1_SaIS1_EEET_N9__gnu_cxx17__normal_iteratorIS7_T0_EE
FN:1242,_ZSt32__make_move_if_noexcept_iteratorI6WektorILi3EEPKS1_ET0_PT_
FNDA:0,_ZSt32__make_move_if_noexcept_iteratorI6WektorILi3EEPKS1_ET0_PT_
DA:806,0
DA:807,0
DA:806,0
DA:807,0
DA:819,0
DA:820,0
DA:819,0
DA:820,0
DA:827,0
DA:829,0
DA:830,0
DA:827,0
DA:829,0
DA:830,0
DA:859,0
DA:860,0
DA:871,0
DA:872,0
DA:871,0
DA:872,0
DA:907,0
DA:910,0
DA:907,0
DA:910,0
DA:989,0
DA:992,0
DA:1010,0
DA:1012,0
DA:1010,0
DA:1012,0
DA:1242,0
DA:1243,0
end_of_record
SF:/usr/include/c++/9/bits/vector.tcc
FN:198,_ZNSt6vectorI6WektorILi3EESaIS1_EEaSERKS3_
FNDA:0,_ZNSt6vectorI6WektorILi3EESaIS1_EEaSERKS3_
FN:426,_ZNSt6vectorI6WektorILi3EESaIS1_EE17_M_realloc_insertIJRKS1_EEEvN9__gnu_cxx17__normal_iteratorIPS1_S3_EEDpOT_
FNDA:0,_ZNSt6vectorI6WektorILi3EESaIS1_EE17_M_realloc_insertIJRKS1_EEEvN9__gnu_cxx17__normal_iteratorIPS1_S3_EEDpOT_
DA:198,0
DA:201,0
DA:205,0
DA:207,0
DA:208,0
DA:211,0
DA:212,0
DA:213,0
DA:214,0
DA:215,0
DA:216,0
DA:217,0
DA:219,0
DA:223,0
DA:224,0
DA:226,0
DA:228,0
DA:229,0
DA:230,0
DA:231,0
DA:232,0
DA:233,0
DA:234,0
DA:236,0
DA:238,0
DA:239,0
DA:243,0
DA:245,0
DA:246,0
DA:248,0
DA:250,0
DA:252,0
DA:426,0
DA:435,0
DA:437,0
DA:438,0
DA:439,0
DA:440,0
DA:441,0
DA:449,0
DA:450,0
DA:456,0
DA:474,0
DA:475,0
DA:477,0
DA:481,0
DA:482,0
DA:485,0
DA:487,0
DA:488,0
DA:489,0
DA:491,0
DA:492,0
DA:493,0
DA:498,0
DA:500,0
DA:501,0
DA:502,0
DA:503,0
DA:504,0
DA:505,0
end_of_record
SF:/usr/include/c++/9/bits/allocator.h
FN:138,_ZNSaI6WektorILi3EEEC2Ev
FNDA:0,_ZNSaI6WektorILi3EEEC2Ev
FN:153,_ZNSaI6WektorILi3EEED2Ev
FNDA:0,_ZNSaI6WektorILi3EEED2Ev
FN:160,_ZStneRKSaI6WektorILi3EEES3_
FNDA:0,_ZStneRKSaI6WektorILi3EEES3_
DA:138,0
DA:153,0
DA:160,0
DA:161,0
end_of_record
SF:/usr/include/c++/9/bits/stl_construct.h
FN:74,_ZSt10_ConstructI6WektorILi3EEJRKS1_EEvPT_DpOT0_
FNDA:0,_ZSt10_ConstructI6WektorILi3EEJRKS1_EEvPT_DpOT0_
FN:74,_ZSt10_ConstructI6WektorILi3EEJRS1_EEvPT_DpOT0_
FNDA:0,_ZSt10_ConstructI6WektorILi3EEJRS1_EEvPT_DpOT0_
FN:97,_ZSt8_DestroyI6WektorILi3EEEvPT_
FNDA:0,_ZSt8_DestroyI6WektorILi3EEEvPT_
FN:105,_ZNSt12_Destroy_auxILb0EE9__destroyIN9__gnu_cxx17__normal_iteratorIP6WektorILi3EESt6vectorIS5_SaIS5_EEEEEEvT_SB_
FNDA:0,_ZNSt12_Destroy_auxILb0EE9__destroyIN9__gnu_cxx17__normal_iteratorIP6WektorILi3EESt6vectorIS5_SaIS5_EEEEEEvT_SB_
FN:105,_ZNSt12_Destroy_auxILb0EE9__destroyIP6WektorILi3EEEEvT_S5_
FNDA:0,_ZNSt12_Destroy_auxILb0EE9__destroyIP6WektorILi3EEEEvT_S5_
FN:127,_ZSt8_DestroyIN9__gnu_cxx17__normal_iteratorIP6WektorILi3EESt6vectorIS3_SaIS3_EEEEEvT_S9_
FNDA:0,_ZSt8_DestroyIN9__gnu_cxx17__normal_iteratorIP6WektorILi3EESt6vectorIS3_SaIS3_EEEEEvT_S9_
FN:127,_ZSt8_DestroyIP6WektorILi3EEEvT_S3_
FNDA:0,_ZSt8_DestroyIP6WektorILi3EEEvT_S3_
FN:203,_ZSt8_DestroyIN9__gnu_cxx17__normal_iteratorIP6WektorILi3EESt6vectorIS3_SaIS3_EEEES3_EvT_S9_RSaIT0_E
FNDA:0,_ZSt8_DestroyIN9__gnu_cxx17__normal_iteratorIP6WektorILi3EESt6vectorIS3_SaIS3_EEEES3_EvT_S9_RSaIT0_E
FN:203,_ZSt8_DestroyIP6WektorILi3EES1_EvT_S3_RSaIT0_E
FNDA:0,_ZSt8_DestroyIP6WektorILi3EES1_EvT_S3_RSaIT0_E
DA:74,0
DA:75,0
DA:74,0
DA:75,0
DA:97,0
DA:98,0
DA:105,0
DA:107,0
DA:108,0
DA:109,0
DA:105,0
DA:107,0
DA:108,0
DA:109,0
DA:127,0
DA:137,0
DA:138,0
DA:127,0
DA:137,0
DA:138,0
DA:203,0
DA:206,0
DA:207,0
DA:203,0
DA:206,0
DA:207,0
end_of_record
SF:/usr/include/c++/9/bits/stl_iterator_base_funcs.h
FN:98,_ZSt10__distanceIPcENSt15iterator_traitsIT_E15difference_typeES2_S2_St26random_access_iterator_tag
FNDA:0,_ZSt10__distanceIPcENSt15iterator_traitsIT_E15difference_typeES2_S2_St26random_access_iterator_tag
FN:98,_ZSt10__distanceIPKcENSt15iterator_traitsIT_E15difference_typeES3_S3_St26random_access_iterator_tag
FNDA:0,_ZSt10__distanceIPKcENSt15iterator_traitsIT_E15difference_typeES3_S3_St26random_access_iterator_tag
FN:138,_ZSt8distanceIPcENSt15iterator_traitsIT_E15difference_typeES2_S2_
FNDA:0,_ZSt8distanceIPcENSt15iterator_traitsIT_E15difference_typeES2_S2_
FN:138,_ZSt8distanceIPKcENSt15iterator_traitsIT_E15difference_typeES3_S3_
FNDA:0,_ZSt8distanceIPKcENSt15iterator_traitsIT_E15difference_typeES3_S3_
DA:98,0
DA:104,0
DA:98,0
DA:104,0
DA:138,0
DA:141,0
DA:142,0
DA:138,0
DA:141,0
DA:142,0
end_of_record
SF:/usr/include/c++/9/bits/cpp_type_traits.h
FN:428,_ZSt12__miter_baseIP6WektorILi3EEET_S3_
FNDA:0,_ZSt12__miter_baseIP6WektorILi3EEET_S3_
FN:428,_ZSt12__miter_baseIN9__gnu_cxx17__normal_iteratorIPK6WektorILi3EESt6vectorIS3_SaIS3_EEEEET_SA_
FNDA:0,_ZSt12__miter_baseIN9__gnu_cxx17__normal_iteratorIPK6WektorILi3EESt6vectorIS3_SaIS3_EEEEET_SA_
DA:428,0
DA:429,0
DA:428,0
DA:429,0
end_of_record
SF:/usr/include/c++/9/ext/aligned_buffer.h
FN:68,_ZNK9__gnu_cxx16__aligned_membufISt10shared_ptrI12Obiekt_ScenyEE7_M_addrEv
FNDA:0,_ZNK9__gnu_cxx16__aligned_membufISt10shared_ptrI12Obiekt_ScenyEE7_M_addrEv
FN:76,_ZNK9__gnu_cxx16__aligned_membufISt10shared_ptrI12Obiekt_ScenyEE6_M_ptrEv
FNDA:0,_ZNK9__gnu_cxx16__aligned_membufISt10shared_ptrI12Obiekt_ScenyEE6_M_ptrEv
DA:68,0
DA:69,0
DA:76,0
DA:77,0
end_of_record
SF:/home/mburakowski/pobiektowe/zad5_3-mburakow/include/Bryla.hh
FN:20,_ZN5Bryla7promienEv
FNDA:0,_ZN5Bryla7promienEv
DA:20,0
end_of_record
SF:/usr/include/c++/9/bits/move.h
FN:47,_ZSt11__addressofI6WektorILi3EEEPT_RS2_
FNDA:0,_ZSt11__addressofI6WektorILi3EEEPT_RS2_
FN:74,_ZSt7forwardIR6WektorILi3EEEOT_RNSt16remove_referenceIS3_E4typeE
FNDA:0,_ZSt7forwardIR6WektorILi3EEEOT_RNSt16remove_referenceIS3_E4typeE
FN:74,_ZSt7forwardIRK6WektorILi3EEEOT_RNSt16remove_referenceIS4_E4typeE
FNDA:0,_ZSt7forwardIRK6WektorILi3EEEOT_RNSt16remove_referenceIS4_E4typeE
FN:99,_ZSt4moveIRSaIcEEONSt16remove_referenceIT_E4typeEOS3_
FNDA:0,_ZSt4moveIRSaIcEEONSt16remove_referenceIT_E4typeEOS3_
FN:99,_ZSt4moveIRNSt7__cxx1112basic_stringIcSt11char_traitsIcESaIcEEEEONSt16remove_referenceIT_E4typeEOS8_
FNDA:0,_ZSt4moveIRNSt7__cxx1112basic_stringIcSt11char_traitsIcESaIcEEEEONSt16remove_referenceIT_E4typeEOS8_
DA:47,0
DA:48,0
DA:74,0
DA:75,0
DA:74,0
DA:75,0
DA:99,0
DA:100,0
DA:99,0
DA:100,0
end_of_record
SF:/usr/include/c++/9/bits/exception.h
FN:63,_ZNSt9exceptionC2Ev
FNDA:0,_ZNSt9exceptionC2Ev
DA:63,0
end_of_record
SF:/home/mburakowski/pobiektowe/zad5_3-mburakow/include/Macierz.hh
FN:24,_ZN7MacierzILi3EEC2Ev
FNDA:0,_ZN7MacierzILi3EEC2Ev
FN:54,_ZN7MacierzILi3EEclEii
FNDA:0,_ZN7MacierzILi3EEclEii
FN:80,_ZN7MacierzILi3EEmlES0_
FNDA:0,_ZN7MacierzILi3EEmlES0_
DA:24,0
DA:26,0
DA:28,0
DA:30,0
DA:32,0
DA:36,0
DA:40,0
DA:54,0
DA:56,0
DA:58,0
DA:59,0
DA:61,0
DA:80,0
DA:82,0
DA:84,0
DA:86,0
DA:88,0
DA:89,0
DA:92,0
end_of_record
SF:/usr/include/c++/9/bits/basic_string.h
FN:243,_ZNSt7__cxx1112basic_stringIcSt11char_traitsIcESaIcEE16_M_construct_auxIPcEEvT_S7_St12__false_type
FNDA:0,_ZNSt7__cxx1112basic_stringIcSt11char_traitsIcESaIcEE16_M_construct_auxIPcEEvT_S7_St12__false_type
FN:243,_ZNSt7__cxx1112basic_stringIcSt11char_traitsIcESaIcEE16_M_construct_auxIPKcEEvT_S8_St12__false_type
FNDA:0,_ZNSt7__cxx1112basic_stringIcSt11char_traitsIcESaIcEE16_M_construct_auxIPKcEEvT_S8_St12__false_type
FN:263,_ZNSt7__cxx1112basic_stringIcSt11char_traitsIcESaIcEE12_M_constructIPcEEvT_S7_
FNDA:0,_ZNSt7__cxx1112basic_stringIcSt11char_traitsIcESaIcEE12_M_constructIPcEEvT_S7_
FN:263,_ZNSt7__cxx1112basic_stringIcSt11char_traitsIcESaIcEE12_M_constructIPKcEEvT_S8_
FNDA:0,_ZNSt7__cxx1112basic_stringIcSt11char_traitsIcESaIcEE12_M_constructIPKcEEvT_S8_
FN:525,_ZNSt7__cxx1112basic_stringIcSt11char_traitsIcESaIcEEC2IS3_EEPKcRKS3_
FNDA:0,_ZNSt7__cxx1112basic_stringIcSt11char_traitsIcESaIcEEC2IS3_EEPKcRKS3_
FN:625,_ZNSt7__cxx1112basic_stringIcSt11char_traitsIcESaIcEEC2IPcvEET_S7_RKS3_
FNDA:0,_ZNSt7__cxx1112basic_stringIcSt11char_traitsIcESaIcEEC2IPcvEET_S7_RKS3_
FN:6097,_ZStplIcSt11char_traitsIcESaIcEENSt7__cxx1112basic_stringIT_T0_T1_EEOS8_S9_
FNDA:0,_ZStplIcSt11char_traitsIcESaIcEENSt7__cxx1112basic_stringIT_T0_T1_EEOS8_S9_
FN:6109,_ZStplIcSt11char_traitsIcESaIcEENSt7__cxx1112basic_stringIT_T0_T1_EEPKS5_OS8_
FNDA:0,_ZStplIcSt11char_traitsIcESaIcEENSt7__cxx1112basic_stringIT_T0_T1_EEPKS5_OS8_
FN:6121,_ZStplIcSt11char_traitsIcESaIcEENSt7__cxx1112basic_stringIT_T0_T1_EEOS8_PKS5_
FNDA:0,_ZStplIcSt11char_traitsIcESaIcEENSt7__cxx1112basic_stringIT_T0_T1_EEOS8_PKS5_
FN:6546,_ZNSt7__cxx119to_stringEi
FNDA:0,_ZNSt7__cxx119to_stringEi
DA:243,0
DA:247,0
DA:248,0
DA:243,0
DA:247,0
DA:248,0
DA:263,0
DA:266,0
DA:267,0
DA:263,0
DA:266,0
DA:267,0
DA:525,0
DA:526,0
DA:527,0
DA:625,0
DA:627,0
DA:628,0
DA:6097,0
DA:6100,0
DA:6101,0
DA:6102,0
DA:6103,0
DA:6104,0
DA:6109,0
DA:6111,0
DA:6121,0
DA:6123,0
DA:6546,0
DA:6548,0
end_of_record
SF:/home/mburakowski/pobiektowe/zad5_3-mburakow/include/Graniastoslup6.hh
end_of_record
SF:/usr/include/c++/9/bits/basic_string.tcc
FN:206,_ZNSt7__cxx1112basic_stringIcSt11char_traitsIcESaIcEE12_M_constructIPcEEvT_S7_St20forward_iterator_tag
FNDA:0,_ZNSt7__cxx1112basic_stringIcSt11char_traitsIcESaIcEE12_M_constructIPcEEvT_S7_St20forward_iterator_tag
FN:206,_ZNSt7__cxx1112basic_stringIcSt11char_traitsIcESaIcEE12_M_constructIPKcEEvT_S8_St20forward_iterator_tag
FNDA:0,_ZNSt7__cxx1112basic_stringIcSt11char_traitsIcESaIcEE12_M_constructIPKcEEvT_S8_St20forward_iterator_tag
DA:206,0
DA:211,0
DA:212,0
DA:215,0
DA:217,0
DA:219,0
DA:220,0
DA:225,0
DA:226,0
DA:228,0
DA:229,0
DA:232,0
DA:233,0
DA:206,0
DA:211,0
DA:212,0
DA:215,0
DA:217,0
DA:219,0
DA:220,0
DA:225,0
DA:226,0
DA:228,0
DA:229,0
DA:232,0
DA:233,0
end_of_record
SF:/usr/include/c++/9/bits/stl_iterator_base_types.h
FN:205,_ZSt19__iterator_categoryIPcENSt15iterator_traitsIT_E17iterator_categoryERKS2_
FNDA:0,_ZSt19__iterator_categoryIPcENSt15iterator_traitsIT_E17iterator_categoryERKS2_
FN:205,_ZSt19__iterator_categoryIPKcENSt15iterator_traitsIT_E17iterator_categoryERKS3_
FNDA:0,_ZSt19__iterator_categoryIPKcENSt15iterator_traitsIT_E17iterator_categoryERKS3_
DA:205,0
DA:206,0
DA:205,0
DA:206,0
end_of_record
SF:/home/mburakowski/pobiektowe/zad5_3-mburakow/include/Prostopadloscian.hh
FN:13,_ZN16ProstopadloscianaSERKS_
FNDA:0,_ZN16ProstopadloscianaSERKS_
DA:13,0
DA:15,0
DA:16,0
DA:17,0
DA:18,0
DA:19,0
end_of_record
SF:/usr/include/c++/9/ext/string_conversions.h
FN:99,_ZN9__gnu_cxx12__to_xstringINSt7__cxx1112basic_stringIcSt11char_traitsIcESaIcEEEcEET_PFiPT0_mPKS8_P13__va_list_tagEmSB_z
FNDA:0,_ZN9__gnu_cxx12__to_xstringINSt7__cxx1112basic_stringIcSt11char_traitsIcESaIcEEEcEET_PFiPT0_mPKS8_P13__va_list_tagEmSB_z
DA:99,0
DA:105,0
DA:109,0
DA:111,0
DA:113,0
DA:115,0
end_of_record
SF:/usr/include/c++/9/iostream
end_of_record
SF:/usr/include/c++/9/bits/shared_ptr.h
FN:103,_ZNSt10shared_ptrI6WektorILi3EEEaSERKS2_
FNDA:0,_ZNSt10shared_ptrI6WektorILi3EEEaSERKS2_
FN:129,_ZNSt10shared_ptrI12Obiekt_ScenyEC2ERKS1_
FNDA:0,_ZNSt10shared_ptrI12Obiekt_ScenyEC2ERKS1_
FN:275,_ZNSt10shared_ptrI4DronEC2IS0_vEERKSt8weak_ptrIT_E
FNDA:0,_ZNSt10shared_ptrI4DronEC2IS0_vEERKSt8weak_ptrIT_E
FN:398,_ZStneI12Obiekt_Sceny4DronEbRKSt10shared_ptrIT_ERKS2_IT0_E
FNDA:0,_ZStneI12Obiekt_Sceny4DronEbRKSt10shared_ptrIT_ERKS2_IT0_E
FN:544,_ZNSt8weak_ptrI4DronEC2Ev
FNDA:0,_ZNSt8weak_ptrI4DronEC2Ev
FN:638,_ZNSt23enable_shared_from_thisI4DronEC2Ev
FNDA:0,_ZNSt23enable_shared_from_thisI4DronEC2Ev
FN:643,_ZNSt23enable_shared_from_thisI5BrylaEaSERKS1_
FNDA:0,_ZNSt23enable_shared_from_thisI5BrylaEaSERKS1_
FN:646,_ZNSt23enable_shared_from_thisI5BrylaED2Ev
FNDA:0,_ZNSt23enable_shared_from_thisI5BrylaED2Ev
FN:646,_ZNSt23enable_shared_from_thisI4DronED2Ev
FNDA:0,_ZNSt23enable_shared_from_thisI4DronED2Ev
FN:650,_ZNSt23enable_shared_from_thisI4DronE16shared_from_thisEv
FNDA:0,_ZNSt23enable_shared_from_thisI4DronE16shared_from_thisEv
DA:103,0
DA:129,0
DA:275,0
DA:276,0
DA:398,0
DA:399,0
DA:544,0
DA:638,0
DA:643,0
DA:644,0
DA:646,0
DA:646,0
DA:650,0
DA:651,0
end_of_record
SF:/usr/include/c++/9/bits/stl_algobase.h
FN:198,_ZSt3minImERKT_S2_S2_
FNDA:0,_ZSt3minImERKT_S2_S2_
FN:222,_ZSt3maxImERKT_S2_S2_
FNDA:0,_ZSt3maxImERKT_S2_S2_
FN:280,_ZSt12__niter_baseIP6WektorILi3EEET_S3_
FNDA:0,_ZSt12__niter_baseIP6WektorILi3EEET_S3_
FN:289,_ZSt12__niter_wrapIN9__gnu_cxx17__normal_iteratorIP6WektorILi3EESt6vectorIS3_SaIS3_EEEES4_ET_S9_T0_
FNDA:0,_ZSt12__niter_wrapIN9__gnu_cxx17__normal_iteratorIP6WektorILi3EESt6vectorIS3_SaIS3_EEEES4_ET_S9_T0_
FN:295,_ZSt12__niter_wrapIP6WektorILi3EEET_RKS3_S3_
FNDA:0,_ZSt12__niter_wrapIP6WektorILi3EEET_RKS3_S3_
FN:337,_ZNSt11__copy_moveILb0ELb0ESt26random_access_iterator_tagE8__copy_mIP6WektorILi3EES5_EET0_T_S7_S6_
FNDA:0,_ZNSt11__copy_moveILb0ELb0ESt26random_access_iterator_tagE8__copy_mIP6WektorILi3EES5_EET0_T_S7_S6_
FN:337,_ZNSt11__copy_moveILb0ELb0ESt26random_access_iterator_tagE8__copy_mIPK6WektorILi3EEPS4_EET0_T_S9_S8_
FNDA:0,_ZNSt11__copy_moveILb0ELb0ESt26random_access_iterator_tagE8__copy_mIPK6WektorILi3EEPS4_EET0_T_S9_S8_
FN:393,_ZSt13__copy_move_aILb0EP6WektorILi3EES2_ET1_T0_S4_S3_
FNDA:0,_ZSt13__copy_move_aILb0EP6WektorILi3EES2_ET1_T0_S4_S3_
FN:393,_ZSt13__copy_move_aILb0EPK6WektorILi3EEPS1_ET1_T0_S6_S5_
FNDA:0,_ZSt13__copy_move_aILb0EPK6WektorILi3EEPS1_ET1_T0_S6_S5_
FN:438,_ZSt14__copy_move_a2ILb0EP6WektorILi3EES2_ET1_T0_S4_S3_
FNDA:0,_ZSt14__copy_move_a2ILb0EP6WektorILi3EES2_ET1_T0_S4_S3_
FN:438,_ZSt14__copy_move_a2ILb0EN9__gnu_cxx17__normal_iteratorIPK6WektorILi3EESt6vectorIS3_SaIS3_EEEENS1_IPS3_S8_EEET1_T0_SD_SC_
FNDA:0,_ZSt14__copy_move_a2ILb0EN9__gnu_cxx17__normal_iteratorIPK6WektorILi3EESt6vectorIS3_SaIS3_EEEENS1_IPS3_S8_EEET1_T0_SD_SC_
FN:465,_ZSt4copyIP6WektorILi3EES2_ET0_T_S4_S3_
FNDA:0,_ZSt4copyIP6WektorILi3EES2_ET0_T_S4_S3_
FN:465,_ZSt4copyIN9__gnu_cxx17__normal_iteratorIPK6WektorILi3EESt6vectorIS3_SaIS3_EEEENS1_IPS3_S8_EEET0_T_SD_SC_
FNDA:0,_ZSt4copyIN9__gnu_cxx17__normal_iteratorIPK6WektorILi3EESt6vectorIS3_SaIS3_EEEENS1_IPS3_S8_EEET0_T_SD_SC_
DA:198,0
DA:203,0
DA:204,0
DA:205,0
DA:222,0
DA:227,0
DA:228,0
DA:229,0
DA:280,0
DA:282,0
DA:289,0
DA:290,0
DA:295,0
DA:296,0
DA:337,0
DA:340,0
DA:342,0
DA:343,0
DA:344,0
DA:346,0
DA:337,0
DA:340,0
DA:342,0
DA:343,0
DA:344,0
DA:346,0
DA:393,0
DA:398,0
DA:404,0
DA:393,0
DA:398,0
DA:404,0
DA:438,0
DA:440,0
DA:443,0
DA:438,0
DA:440,0
DA:443,0
DA:465,0
DA:474,0
DA:465,0
DA:474,0
end_of_record
SF:/usr/include/c++/9/cmath
FN:415,_ZSt3powIdiEN9__gnu_cxx11__promote_2IT_T0_NS0_9__promoteIS2_XsrSt12__is_integerIS2_E7__valueEE6__typeENS4_IS3_XsrS5_IS3_E7__valueEE6__typeEE6__typeES2_S3_
FNDA:0,_ZSt3powIdiEN9__gnu_cxx11__promote_2IT_T0_NS0_9__promoteIS2_XsrSt12__is_integerIS2_E7__valueEE6__typeENS4_IS3_XsrS5_IS3_E7__valueEE6__typeEE6__typeES2_S3_
DA:415,0
DA:418,0
end_of_record
TN:
SF:/usr/include/c++/9/bits/stl_uninitialized.h
FN:76,_ZNSt20__uninitialized_copyILb0EE13__uninit_copyIPK6WektorILi3EEPS3_EET0_T_S8_S7_
FNDA:0,_ZNSt20__uninitialized_copyILb0EE13__uninit_copyIPK6WektorILi3EEPS3_EET0_T_S8_S7_
FN:76,_ZNSt20__uninitialized_copyILb0EE13__uninit_copyIN9__gnu_cxx17__normal_iteratorIPK6WektorILi3EESt6vectorIS5_SaIS5_EEEEPS5_EET0_T_SE_SD_
FNDA:0,_ZNSt20__uninitialized_copyILb0EE13__uninit_copyIN9__gnu_cxx17__normal_iteratorIPK6WektorILi3EESt6vectorIS5_SaIS5_EEEEPS5_EET0_T_SE_SD_
FN:76,_ZNSt20__uninitialized_copyILb0EE13__uninit_copyIP6WektorILi3EES4_EET0_T_S6_S5_
FNDA:0,_ZNSt20__uninitialized_copyILb0EE13__uninit_copyIP6WektorILi3EES4_EET0_T_S6_S5_
FN:115,_ZSt18uninitialized_copyIPK6WektorILi3EEPS1_ET0_T_S6_S5_
FNDA:0,_ZSt18uninitialized_copyIPK6WektorILi3EEPS1_ET0_T_S6_S5_
FN:115,_ZSt18uninitialized_copyIN9__gnu_cxx17__normal_iteratorIPK6WektorILi3EESt6vectorIS3_SaIS3_EEEEPS3_ET0_T_SC_SB_
FNDA:0,_ZSt18uninitialized_copyIN9__gnu_cxx17__normal_iteratorIPK6WektorILi3EESt6vectorIS3_SaIS3_EEEEPS3_ET0_T_SC_SB_
FN:115,_ZSt18uninitialized_copyIP6WektorILi3EES2_ET0_T_S4_S3_
FNDA:0,_ZSt18uninitialized_copyIP6WektorILi3EES2_ET0_T_S4_S3_
FN:305,_ZSt22__uninitialized_copy_aIPK6WektorILi3EEPS1_S1_ET0_T_S6_S5_RSaIT1_E
FNDA:0,_ZSt22__uninitialized_copy_aIPK6WektorILi3EEPS1_S1_ET0_T_S6_S5_RSaIT1_E
FN:305,_ZSt22__uninitialized_copy_aIN9__gnu_cxx17__normal_iteratorIPK6WektorILi3EESt6vectorIS3_SaIS3_EEEEPS3_S3_ET0_T_SC_SB_RSaIT1_E
FNDA:0,_ZSt22__uninitialized_copy_aIN9__gnu_cxx17__normal_iteratorIPK6WektorILi3EESt6vectorIS3_SaIS3_EEEEPS3_S3_ET0_T_SC_SB_RSaIT1_E
FN:305,_ZSt22__uninitialized_copy_aIP6WektorILi3EES2_S1_ET0_T_S4_S3_RSaIT1_E
FNDA:0,_ZSt22__uninitialized_copy_aIP6WektorILi3EES2_S1_ET0_T_S4_S3_RSaIT1_E
FN:323,_ZSt34__uninitialized_move_if_noexcept_aIP6WektorILi3EES2_SaIS1_EET0_T_S5_S4_RT1_
FNDA:0,_ZSt34__uninitialized_move_if_noexcept_aIP6WektorILi3EES2_SaIS1_EET0_T_S5_S4_RT1_
DA:76,0
DA:79,0
DA:82,0
DA:83,0
DA:84,0
DA:76,0
DA:79,0
DA:82,0
DA:83,0
DA:84,0
DA:76,0
DA:79,0
DA:82,0
DA:83,0
DA:84,0
DA:86,0
DA:88,0
DA:89,0
DA:115,0
DA:134,0
DA:140,0
DA:115,0
DA:134,0
DA:140,0
DA:115,0
DA:134,0
DA:140,0
DA:305,0
DA:307,0
DA:305,0
DA:307,0
DA:305,0
DA:307,0
DA:323,0
DA:329,0
DA:330,0
end_of_record
SF:/usr/include/c++/9/bits/shared_ptr_base.h
FN:117,_ZNSt16_Sp_counted_baseILN9__gnu_cxx12_Lock_policyE2EEC2Ev
FNDA:0,_ZNSt16_Sp_counted_baseILN9__gnu_cxx12_Lock_policyE2EEC2Ev
FN:121,_ZNSt16_Sp_counted_baseILN9__gnu_cxx12_Lock_policyE2EED2Ev
FNDA:0,_ZNSt16_Sp_counted_baseILN9__gnu_cxx12_Lock_policyE2EED2Ev
FN:121,_ZNSt16_Sp_counted_baseILN9__gnu_cxx12_Lock_policyE2EED0Ev
FNDA:0,_ZNSt16_Sp_counted_baseILN9__gnu_cxx12_Lock_policyE2EED0Ev
FN:131,_ZNSt16_Sp_counted_baseILN9__gnu_cxx12_Lock_policyE2EE10_M_destroyEv
FNDA:0,_ZNSt16_Sp_counted_baseILN9__gnu_cxx12_Lock_policyE2EE10_M_destroyEv
FN:138,_ZNSt16_Sp_counted_baseILN9__gnu_cxx12_Lock_policyE2EE15_M_add_ref_copyEv
FNDA:0,_ZNSt16_Sp_counted_baseILN9__gnu_cxx12_Lock_policyE2EE15_M_add_ref_copyEv
FN:148,_ZNSt16_Sp_counted_baseILN9__gnu_cxx12_Lock_policyE2EE10_M_releaseEv
FNDA:0,_ZNSt16_Sp_counted_baseILN9__gnu_cxx12_Lock_policyE2EE10_M_releaseEv
FN:181,_ZNSt16_Sp_counted_baseILN9__gnu_cxx12_Lock_policyE2EE15_M_weak_releaseEv
FNDA:0,_ZNSt16_Sp_counted_baseILN9__gnu_cxx12_Lock_policyE2EE15_M_weak_releaseEv
FN:414,_ZNSt14_Sp_ebo_helperILi0ESaI6WektorILi3EEELb1EEC2ERKS2_
FNDA:0,_ZNSt14_Sp_ebo_helperILi0ESaI6WektorILi3EEELb1EEC2ERKS2_
FN:418,_ZNSt14_Sp_ebo_helperILi0ESaI6WektorILi3EEELb1EE6_S_getERS3_
FNDA:0,_ZNSt14_Sp_ebo_helperILi0ESaI6WektorILi3EEELb1EE6_S_getERS3_
FN:508,_ZNSt19_Sp_make_shared_tag5_S_tiEv
FNDA:0,_ZNSt19_Sp_make_shared_tag5_S_tiEv
FN:531,_ZNSt23_Sp_counted_ptr_inplaceI6WektorILi3EESaIS1_ELN9__gnu_cxx12_Lock_policyE2EE5_ImplC2ES2_
FNDA:0,_ZNSt23_Sp_counted_ptr_inplaceI6WektorILi3EESaIS1_ELN9__gnu_cxx12_Lock_policyE2EE5_ImplC2ES2_
FN:533,_ZNSt23_Sp_counted_ptr_inplaceI6WektorILi3EESaIS1_ELN9__gnu_cxx12_Lock_policyE2EE5_Impl8_M_allocEv
FNDA:0,_ZNSt23_Sp_counted_ptr_inplaceI6WektorILi3EESaIS1_ELN9__gnu_cxx12_Lock_policyE2EE5_Impl8_M_allocEv
FN:543,_ZNSt23_Sp_counted_ptr_inplaceI6WektorILi3EESaIS1_ELN9__gnu_cxx12_Lock_policyE2EEC2IJRA3_dEEES2_DpOT_
FNDA:0,_ZNSt23_Sp_counted_ptr_inplaceI6WektorILi3EESaIS1_ELN9__gnu_cxx12_Lock_policyE2EEC2IJRA3_dEEES2_DpOT_
FN:552,_ZNSt23_Sp_counted_ptr_inplaceI6WektorILi3EESaIS1_ELN9__gnu_cxx12_Lock_policyE2EED0Ev
FNDA:0,_ZNSt23_Sp_counted_ptr_inplaceI6WektorILi3EESaIS1_ELN9__gnu_cxx12_Lock_policyE2EED0Ev
FN:552,_ZNSt23_Sp_counted_ptr_inplaceI6WektorILi3EESaIS1_ELN9__gnu_cxx12_Lock_policyE2EED2Ev
FNDA:0,_ZNSt23_Sp_counted_ptr_inplaceI6WektorILi3EESaIS1_ELN9__gnu_cxx12_Lock_policyE2EED2Ev
FN:555,_ZNSt23_Sp_counted_ptr_inplaceI6WektorILi3EESaIS1_ELN9__gnu_cxx12_Lock_policyE2EE10_M_disposeEv
FNDA:0,_ZNSt23_Sp_counted_ptr_inplaceI6WektorILi3EESaIS1_ELN9__gnu_cxx12_Lock_policyE2EE10_M_disposeEv
FN:562,_ZNSt23_Sp_counted_ptr_inplaceI6WektorILi3EESaIS1_ELN9__gnu_cxx12_Lock_policyE2EE10_M_destroyEv
FNDA:0,_ZNSt23_Sp_counted_ptr_inplaceI6WektorILi3EESaIS1_ELN9__gnu_cxx12_Lock_policyE2EE10_M_destroyEv
FN:575,_ZNSt23_Sp_counted_ptr_inplaceI6WektorILi3EESaIS1_ELN9__gnu_cxx12_Lock_policyE2EE14_M_get_deleterERKSt9type_info
FNDA:0,_ZNSt23_Sp_counted_ptr_inplaceI6WektorILi3EESaIS1_ELN9__gnu_cxx12_Lock_policyE2EE14_M_get_deleterERKSt9type_info
FN:594,_ZNSt23_Sp_counted_ptr_inplaceI6WektorILi3EESaIS1_ELN9__gnu_cxx12_Lock_policyE2EE6_M_ptrEv
FNDA:0,_ZNSt23_Sp_counted_ptr_inplaceI6WektorILi3EESaIS1_ELN9__gnu_cxx12_Lock_policyE2EE6_M_ptrEv
FN:616,_ZNSt14__shared_countILN9__gnu_cxx12_Lock_policyE2EEC2Ev
FNDA:0,_ZNSt14__shared_countILN9__gnu_cxx12_Lock_policyE2EEC2Ev
FN:672,_ZNSt14__shared_countILN9__gnu_cxx12_Lock_policyE2EEC2I6WektorILi3EESaIS5_EJRA3_dEEERPT_St20_Sp_alloc_shared_tagIT0_EDpOT1_
FNDA:0,_ZNSt14__shared_countILN9__gnu_cxx12_Lock_policyE2EEC2I6WektorILi3EESaIS5_EJRA3_dEEERPT_St20_Sp_alloc_shared_tagIT0_EDpOT1_
FN:727,_ZNSt14__shared_countILN9__gnu_cxx12_Lock_policyE2EED2Ev
FNDA:0,_ZNSt14__shared_countILN9__gnu_cxx12_Lock_policyE2EED2Ev
FN:741,_ZNSt14__shared_countILN9__gnu_cxx12_Lock_policyE2EEaSERKS2_
FNDA:0,_ZNSt14__shared_countILN9__gnu_cxx12_Lock_policyE2EEaSERKS2_
FN:756,_ZNSt14__shared_countILN9__gnu_cxx12_Lock_policyE2EE7_M_swapERS2_
FNDA:0,_ZNSt14__shared_countILN9__gnu_cxx12_Lock_policyE2EE7_M_swapERS2_
FN:799,_ZNSt12__weak_countILN9__gnu_cxx12_Lock_policyE2EEC2Ev
FNDA:0,_ZNSt12__weak_countILN9__gnu_cxx12_Lock_policyE2EEC2Ev
FN:820,_ZNSt12__weak_countILN9__gnu_cxx12_Lock_policyE2EED2Ev
FNDA:0,_ZNSt12__weak_countILN9__gnu_cxx12_Lock_policyE2EED2Ev
FN:1080,_ZNSt12__shared_ptrI6WektorILi3EELN9__gnu_cxx12_Lock_policyE2EEaSERKS4_
FNDA:0,_ZNSt12__shared_ptrI6WektorILi3EELN9__gnu_cxx12_Lock_policyE2EEaSERKS4_
FN:1118,_ZNSt12__shared_ptrI6WektorILi3EELN9__gnu_cxx12_Lock_policyE2EEC2Ev
FNDA:0,_ZNSt12__shared_ptrI6WektorILi3EELN9__gnu_cxx12_Lock_policyE2EEC2Ev
FN:1169,_ZNSt12__shared_ptrI6WektorILi3EELN9__gnu_cxx12_Lock_policyE2EED2Ev
FNDA:0,_ZNSt12__shared_ptrI6WektorILi3EELN9__gnu_cxx12_Lock_policyE2EED2Ev
FN:1176,_ZNSt12__shared_ptrI6WektorILi3EELN9__gnu_cxx12_Lock_policyE2EEC2EOS4_
FNDA:0,_ZNSt12__shared_ptrI6WektorILi3EELN9__gnu_cxx12_Lock_policyE2EEC2EOS4_
FN:1263,_ZNSt12__shared_ptrI6WektorILi3EELN9__gnu_cxx12_Lock_policyE2EEaSEOS4_
FNDA:0,_ZNSt12__shared_ptrI6WektorILi3EELN9__gnu_cxx12_Lock_policyE2EEaSEOS4_
FN:1324,_ZNSt12__shared_ptrI6WektorILi3EELN9__gnu_cxx12_Lock_policyE2EE4swapERS4_
FNDA:0,_ZNSt12__shared_ptrI6WektorILi3EELN9__gnu_cxx12_Lock_policyE2EE4swapERS4_
FN:1343,_ZNSt12__shared_ptrI6WektorILi3EELN9__gnu_cxx12_Lock_policyE2EEC2ISaIS1_EJRA3_dEEESt20_Sp_alloc_shared_tagIT_EDpOT0_
FNDA:0,_ZNSt12__shared_ptrI6WektorILi3EELN9__gnu_cxx12_Lock_policyE2EEC2ISaIS1_EJRA3_dEEESt20_Sp_alloc_shared_tagIT_EDpOT0_
FN:1388,_ZNSt12__shared_ptrI6WektorILi3EELN9__gnu_cxx12_Lock_policyE2EE31_M_enable_shared_from_this_withIS1_S1_EENSt9enable_ifIXntsrNS4_15__has_esft_baseIT0_vEE5valueEvE4typeEPT_
FNDA:0,_ZNSt12__shared_ptrI6WektorILi3EELN9__gnu_cxx12_Lock_policyE2EE31_M_enable_shared_from_this_withIS1_S1_EENSt9enable_ifIXntsrNS4_15__has_esft_baseIT0_vEE5valueEvE4typeEPT_
FN:1590,_ZNSt10__weak_ptrI5BrylaLN9__gnu_cxx12_Lock_policyE2EEC2Ev
FNDA:0,_ZNSt10__weak_ptrI5BrylaLN9__gnu_cxx12_Lock_policyE2EEC2Ev
FN:1596,_ZNSt10__weak_ptrI5BrylaLN9__gnu_cxx12_Lock_policyE2EED2Ev
FNDA:0,_ZNSt10__weak_ptrI5BrylaLN9__gnu_cxx12_Lock_policyE2EED2Ev
DA:117,0
DA:118,0
DA:121,0
DA:122,0
DA:121,0
DA:122,0
DA:131,0
DA:132,0
DA:138,0
DA:139,0
DA:148,0
DA:152,0
DA:155,0
DA:167,0
DA:168,0
DA:171,0
DA:174,0
DA:181,0
DA:185,0
DA:194,0
DA:196,0
DA:414,0
DA:418,0
DA:508,0
DA:511,0
DA:531,0
DA:533,0
DA:543,0
DA:544,0
DA:548,0
DA:550,0
DA:552,0
DA:552,0
DA:555,0
DA:557,0
DA:558,0
DA:562,0
DA:564,0
DA:565,0
DA:566,0
DA:567,0
DA:575,0
DA:577,0
DA:582,0
DA:583,0
DA:585,0
DA:590,0
DA:591,0
DA:594,0
DA:616,0
DA:617,0
DA:672,0
DA:676,0
DA:677,0
DA:678,0
DA:679,0
DA:680,0
DA:681,0
DA:682,0
DA:683,0
DA:684,0
DA:727,0
DA:729,0
DA:730,0
DA:731,0
DA:741,0
DA:743,0
DA:744,0
DA:746,0
DA:747,0
DA:748,0
DA:749,0
DA:750,0
DA:752,0
DA:756,0
DA:758,0
DA:759,0
DA:760,0
DA:761,0
DA:799,0
DA:800,0
DA:820,0
DA:822,0
DA:823,0
DA:824,0
DA:1080,0
DA:1118,0
DA:1119,0
DA:1120,0
DA:1169,0
DA:1176,0
DA:1177,0
DA:1179,0
DA:1180,0
DA:1181,0
DA:1263,0
DA:1265,0
DA:1266,0
DA:1324,0
DA:1326,0
DA:1327,0
DA:1328,0
DA:1343,0
DA:1344,0
DA:1345,0
DA:1388,0
DA:1389,0
DA:1590,0
DA:1591,0
DA:1592,0
DA:1596,0
end_of_record
SF:/usr/include/c++/9/bits/ptr_traits.h
FN:156,_ZSt12__to_addressISt23_Sp_counted_ptr_inplaceI6WektorILi3EESaIS2_ELN9__gnu_cxx12_Lock_policyE2EEEPT_S8_
FNDA:0,_ZSt12__to_addressISt23_Sp_counted_ptr_inplaceI6WektorILi3EESaIS2_ELN9__gnu_cxx12_Lock_policyE2EEEPT_S8_
DA:156,0
DA:159,0
end_of_record
SF:/usr/include/c++/9/bits/stl_iterator.h
FN:806,_ZN9__gnu_cxx17__normal_iteratorIP6WektorILi3EESt6vectorIS2_SaIS2_EEEC2ERKS3_
FNDA:0,_ZN9__gnu_cxx17__normal_iteratorIP6WektorILi3EESt6vectorIS2_SaIS2_EEEC2ERKS3_
FN:806,_ZN9__gnu_cxx17__normal_iteratorIPK6WektorILi3EESt6vectorIS2_SaIS2_EEEC2ERKS4_
FNDA:0,_ZN9__gnu_cxx17__normal_iteratorIPK6WektorILi3EESt6vectorIS2_SaIS2_EEEC2ERKS4_
FN:819,_ZNK9__gnu_cxx17__normal_iteratorIPK6WektorILi3EESt6vectorIS2_SaIS2_EEEdeEv
FNDA:0,_ZNK9__gnu_cxx17__normal_iteratorIPK6WektorILi3EESt6vectorIS2_SaIS2_EEEdeEv
FN:819,_ZNK9__gnu_cxx17__normal_iteratorIP6WektorILi3EESt6vectorIS2_SaIS2_EEEdeEv
FNDA:0,_ZNK9__gnu_cxx17__normal_iteratorIP6WektorILi3EESt6vectorIS2_SaIS2_EEEdeEv
FN:827,_ZN9__gnu_cxx17__normal_iteratorIPK6WektorILi3EESt6vectorIS2_SaIS2_EEEppEv
FNDA:0,_ZN9__gnu_cxx17__normal_iteratorIPK6WektorILi3EESt6vectorIS2_SaIS2_EEEppEv
FN:827,_ZN9__gnu_cxx17__normal_iteratorIP6WektorILi3EESt6vectorIS2_SaIS2_EEEppEv
FNDA:0,_ZN9__gnu_cxx17__normal_iteratorIP6WektorILi3EESt6vectorIS2_SaIS2_EEEppEv
FN:859,_ZNK9__gnu_cxx17__normal_iteratorIP6WektorILi3EESt6vectorIS2_SaIS2_EEEplEl
FNDA:0,_ZNK9__gnu_cxx17__normal_iteratorIP6WektorILi3EESt6vectorIS2_SaIS2_EEEplEl
FN:871,_ZNK9__gnu_cxx17__normal_iteratorIPK6WektorILi3EESt6vectorIS2_SaIS2_EEE4baseEv
FNDA:0,_ZNK9__gnu_cxx17__normal_iteratorIPK6WektorILi3EESt6vectorIS2_SaIS2_EEE4baseEv
FN:871,_ZNK9__gnu_cxx17__normal_iteratorIP6WektorILi3EESt6vectorIS2_SaIS2_EEE4baseEv
FNDA:0,_ZNK9__gnu_cxx17__normal_iteratorIP6WektorILi3EESt6vectorIS2_SaIS2_EEE4baseEv
FN:907,_ZN9__gnu_cxxneIPK6WektorILi3EESt6vectorIS2_SaIS2_EEEEbRKNS_17__normal_iteratorIT_T0_EESD_
FNDA:0,_ZN9__gnu_cxxneIPK6WektorILi3EESt6vectorIS2_SaIS2_EEEEbRKNS_17__normal_iteratorIT_T0_EESD_
FN:907,_ZN9__gnu_cxxneIP6WektorILi3EESt6vectorIS2_SaIS2_EEEEbRKNS_17__normal_iteratorIT_T0_EESC_
FNDA:0,_ZN9__gnu_cxxneIP6WektorILi3EESt6vectorIS2_SaIS2_EEEEbRKNS_17__normal_iteratorIT_T0_EESC_
FN:989,_ZN9__gnu_cxxmiIP6WektorILi3EESt6vectorIS2_SaIS2_EEEENS_17__normal_iteratorIT_T0_E15difference_typeERKSA_SD_
FNDA:0,_ZN9__gnu_cxxmiIP6WektorILi3EESt6vectorIS2_SaIS2_EEEENS_17__normal_iteratorIT_T0_E15difference_typeERKSA_SD_
FN:1010,_ZSt12__niter_baseIP6WektorILi3EESt6vectorIS1_SaIS1_EEET_N9__gnu_cxx17__normal_iteratorIS6_T0_EE
FNDA:0,_ZSt12__niter_baseIP6WektorILi3EESt6vectorIS1_SaIS1_EEET_N9__gnu_cxx17__normal_iteratorIS6_T0_EE
FN:1010,_ZSt12__niter_baseIPK6WektorILi3EESt6vectorIS1_SaIS1_EEET_N9__gnu_cxx17__normal_iteratorIS7_T0_EE
FNDA:0,_ZSt12__niter_baseIPK6WektorILi3EESt6vectorIS1_SaIS1_EEET_N9__gnu_cxx17__normal_iteratorIS7_T0_EE
FN:1242,_ZSt32__make_move_if_noexcept_iteratorI6WektorILi3EEPKS1_ET0_PT_
FNDA:0,_ZSt32__make_move_if_noexcept_iteratorI6WektorILi3EEPKS1_ET0_PT_
DA:806,0
DA:807,0
DA:806,0
DA:807,0
DA:819,0
DA:820,0
DA:819,0
DA:820,0
DA:827,0
DA:829,0
DA:830,0
DA:827,0
DA:829,0
DA:830,0
DA:859,0
DA:860,0
DA:871,0
DA:872,0
DA:871,0
DA:872,0
DA:907,0
DA:910,0
DA:907,0
DA:910,0
DA:989,0
DA:992,0
DA:1010,0
DA:1012,0
DA:1010,0
DA:1012,0
DA:1242,0
DA:1243,0
end_of_record
SF:/home/mburakowski/pobiektowe/zad5_3-mburakow/src/Prostopadloscian.cpp
FN:3,_ZN16ProstopadloscianC2E6WektorILi3EEdddNSt7__cxx1112basic_stringIcSt11char_traitsIcESaIcEEE
FNDA:0,_ZN16ProstopadloscianC2E6WektorILi3EEdddNSt7__cxx1112basic_stringIcSt11char_traitsIcESaIcEEE
FN:55,_ZN16ProstopadloscianC2ERS_
FNDA:0,_ZN16ProstopadloscianC2ERS_
DA:3,0
DA:5,0
DA:6,0
DA:7,0
DA:8,0
DA:9,0
DA:11,0
DA:12,0
DA:13,0
DA:14,0
DA:16,0
DA:17,0
DA:18,0
DA:19,0
DA:22,0
DA:23,0
DA:24,0
DA:25,0
DA:27,0
DA:28,0
DA:29,0
DA:30,0
DA:32,0
DA:33,0
DA:34,0
DA:35,0
DA:37,0
DA:38,0
DA:39,0
DA:40,0
DA:43,0
DA:44,0
DA:45,0
DA:46,0
DA:48,0
DA:49,0
DA:50,0
DA:51,0
DA:53,0
DA:55,0
DA:57,0
DA:58,0
DA:59,0
DA:60,0
DA:61,0
end_of_record
SF:/home/mburakowski/pobiektowe/zad5_3-mburakow/include/Wektor.hh
FN:17,_ZN6WektorILi3EEC2ERS0_
FNDA:0,_ZN6WektorILi3EEC2ERS0_
FN:24,_ZN6WektorILi3EEC2ERKS0_
FNDA:0,_ZN6WektorILi3EEC2ERKS0_
FN:30,_ZN6WektorILi3EEaSERKS0_
FNDA:0,_ZN6WektorILi3EEaSERKS0_
FN:66,_ZN6WektorILi3EEC2Ev
FNDA:0,_ZN6WektorILi3EEC2Ev
FN:75,_ZN6WektorILi3EEC2EPd
FNDA:0,_ZN6WektorILi3EEC2EPd
FN:84,_ZN6WektorILi3EED2Ev
FNDA:0,_ZN6WektorILi3EED2Ev
FN:101,_ZN6WektorILi3EEixEi
FNDA:0,_ZN6WektorILi3EEixEi
DA:17,0
DA:19,0
DA:20,0
DA:22,0
DA:23,0
DA:24,0
DA:26,0
DA:27,0
DA:28,0
DA:29,0
DA:30,0
DA:32,0
DA:33,0
DA:34,0
DA:66,0
DA:68,0
DA:69,0
DA:70,0
DA:71,0
DA:72,0
DA:75,0
DA:77,0
DA:78,0
DA:79,0
DA:80,0
DA:81,0
DA:84,0
DA:86,0
DA:87,0
DA:101,0
DA:103,0
DA:105,0
DA:106,0
DA:108,0
end_of_record
SF:/usr/include/c++/9/ext/new_allocator.h
FN:80,_ZN9__gnu_cxx13new_allocatorISt23_Sp_counted_ptr_inplaceI6WektorILi3EESaIS3_ELNS_12_Lock_policyE2EEEC2Ev
FNDA:0,_ZN9__gnu_cxx13new_allocatorISt23_Sp_counted_ptr_inplaceI6WektorILi3EESaIS3_ELNS_12_Lock_policyE2EEEC2Ev
FN:80,_ZN9__gnu_cxx13new_allocatorI6WektorILi3EEEC2Ev
FNDA:0,_ZN9__gnu_cxx13new_allocatorI6WektorILi3EEEC2Ev
FN:80,_ZN9__gnu_cxx13new_allocatorIcEC2Ev
FNDA:0,_ZN9__gnu_cxx13new_allocatorIcEC2Ev
FN:83,_ZN9__gnu_cxx13new_allocatorI6WektorILi3EEEC2ERKS3_
FNDA:0,_ZN9__gnu_cxx13new_allocatorI6WektorILi3EEEC2ERKS3_
FN:89,_ZN9__gnu_cxx13new_allocatorISt23_Sp_counted_ptr_inplaceI6WektorILi3EESaIS3_ELNS_12_Lock_policyE2EEED2Ev
FNDA:0,_ZN9__gnu_cxx13new_allocatorISt23_Sp_counted_ptr_inplaceI6WektorILi3EESaIS3_ELNS_12_Lock_policyE2EEED2Ev
FN:89,_ZN9__gnu_cxx13new_allocatorI6WektorILi3EEED2Ev
FNDA:0,_ZN9__gnu_cxx13new_allocatorI6WektorILi3EEED2Ev
FN:89,_ZN9__gnu_cxx13new_allocatorIcED2Ev
FNDA:0,_ZN9__gnu_cxx13new_allocatorIcED2Ev
FN:102,_ZN9__gnu_cxx13new_allocatorISt23_Sp_counted_ptr_inplaceI6WektorILi3EESaIS3_ELNS_12_Lock_policyE2EEE8allocateEmPKv
FNDA:0,_ZN9__gnu_cxx13new_allocatorISt23_Sp_counted_ptr_inplaceI6WektorILi3EESaIS3_ELNS_12_Lock_policyE2EEE8allocateEmPKv
FN:102,_ZN9__gnu_cxx13new_allocatorI6WektorILi3EEE8allocateEmPKv
FNDA:0,_ZN9__gnu_cxx13new_allocatorI6WektorILi3EEE8allocateEmPKv
FN:119,_ZN9__gnu_cxx13new_allocatorISt23_Sp_counted_ptr_inplaceI6WektorILi3EESaIS3_ELNS_12_Lock_policyE2EEE10deallocateEPS6_m
FNDA:0,_ZN9__gnu_cxx13new_allocatorISt23_Sp_counted_ptr_inplaceI6WektorILi3EESaIS3_ELNS_12_Lock_policyE2EEE10deallocateEPS6_m
FN:119,_ZN9__gnu_cxx13new_allocatorI6WektorILi3EEE10deallocateEPS2_m
FNDA:0,_ZN9__gnu_cxx13new_allocatorI6WektorILi3EEE10deallocateEPS2_m
FN:132,_ZNK9__gnu_cxx13new_allocatorISt23_Sp_counted_ptr_inplaceI6WektorILi3EESaIS3_ELNS_12_Lock_policyE2EEE8max_sizeEv
FNDA:0,_ZNK9__gnu_cxx13new_allocatorISt23_Sp_counted_ptr_inplaceI6WektorILi3EESaIS3_ELNS_12_Lock_policyE2EEE8max_sizeEv
FN:132,_ZNK9__gnu_cxx13new_allocatorI6WektorILi3EEE8max_sizeEv
FNDA:0,_ZNK9__gnu_cxx13new_allocatorI6WektorILi3EEE8max_sizeEv
FN:144,_ZN9__gnu_cxx13new_allocatorI6WektorILi3EEE9constructIS2_JRA3_dEEEvPT_DpOT0_
FNDA:0,_ZN9__gnu_cxx13new_allocatorI6WektorILi3EEE9constructIS2_JRA3_dEEEvPT_DpOT0_
FN:144,_ZN9__gnu_cxx13new_allocatorI6WektorILi3EEE9constructIS2_JRKS2_EEEvPT_DpOT0_
FNDA:0,_ZN9__gnu_cxx13new_allocatorI6WektorILi3EEE9constructIS2_JRKS2_EEEvPT_DpOT0_
FN:151,_ZN9__gnu_cxx13new_allocatorI6WektorILi3EEE7destroyIS2_EEvPT_
FNDA:0,_ZN9__gnu_cxx13new_allocatorI6WektorILi3EEE7destroyIS2_EEvPT_
DA:80,0
DA:80,0
DA:80,0
DA:83,0
DA:89,0
DA:89,0
DA:89,0
DA:102,0
DA:104,0
DA:105,0
DA:114,0
DA:102,0
DA:104,0
DA:105,0
DA:114,0
DA:119,0
DA:128,0
DA:119,0
DA:128,0
DA:132,0
DA:135,0
DA:132,0
DA:135,0
DA:144,0
DA:147,0
DA:144,0
DA:147,0
DA:151,0
DA:153,0
end_of_record
SF:/usr/include/c++/9/bits/alloc_traits.h
FN:443,_ZNSt16allocator_traitsISaISt23_Sp_counted_ptr_inplaceI6WektorILi3EESaIS2_ELN9__gnu_cxx12_Lock_policyE2EEEE8allocateERS7_m
FNDA:0,_ZNSt16allocator_traitsISaISt23_Sp_counted_ptr_inplaceI6WektorILi3EESaIS2_ELN9__gnu_cxx12_Lock_policyE2EEEE8allocateERS7_m
FN:443,_ZNSt16allocator_traitsISaI6WektorILi3EEEE8allocateERS2_m
FNDA:0,_ZNSt16allocator_traitsISaI6WektorILi3EEEE8allocateERS2_m
FN:469,_ZNSt16allocator_traitsISaISt23_Sp_counted_ptr_inplaceI6WektorILi3EESaIS2_ELN9__gnu_cxx12_Lock_policyE2EEEE10deallocateERS7_PS6_m
FNDA:0,_ZNSt16allocator_traitsISaISt23_Sp_counted_ptr_inplaceI6WektorILi3EESaIS2_ELN9__gnu_cxx12_Lock_policyE2EEEE10deallocateERS7_PS6_m
FN:469,_ZNSt16allocator_traitsISaI6WektorILi3EEEE10deallocateERS2_PS1_m
FNDA:0,_ZNSt16allocator_traitsISaI6WektorILi3EEEE10deallocateERS2_PS1_m
FN:482,_ZNSt16allocator_traitsISaI6WektorILi3EEEE9constructIS1_JRA3_dEEEvRS2_PT_DpOT0_
FNDA:0,_ZNSt16allocator_traitsISaI6WektorILi3EEEE9constructIS1_JRA3_dEEEvRS2_PT_DpOT0_
FN:482,_ZNSt16allocator_traitsISaI6WektorILi3EEEE9constructIS1_JRKS1_EEEvRS2_PT_DpOT0_
FNDA:0,_ZNSt16allocator_traitsISaI6WektorILi3EEEE9constructIS1_JRKS1_EEEvRS2_PT_DpOT0_
FN:495,_ZNSt16allocator_traitsISaI6WektorILi3EEEE7destroyIS1_EEvRS2_PT_
FNDA:0,_ZNSt16allocator_traitsISaI6WektorILi3EEEE7destroyIS1_EEvRS2_PT_
FN:505,_ZNSt16allocator_traitsISaI6WektorILi3EEEE8max_sizeERKS2_
FNDA:0,_ZNSt16allocator_traitsISaI6WektorILi3EEEE8max_sizeERKS2_
FN:526,_ZSt18__do_alloc_on_copyISaI6WektorILi3EEEEvRT_RKS3_St17integral_constantIbLb0EE
FNDA:0,_ZSt18__do_alloc_on_copyISaI6WektorILi3EEEEvRT_RKS3_St17integral_constantIbLb0EE
FN:530,_ZSt15__alloc_on_copyISaI6WektorILi3EEEEvRT_RKS3_
FNDA:0,_ZSt15__alloc_on_copyISaI6WektorILi3EEEEvRT_RKS3_
DA:443,0
DA:444,0
DA:443,0
DA:444,0
DA:469,0
DA:470,0
DA:469,0
DA:470,0
DA:482,0
DA:484,0
DA:482,0
DA:484,0
DA:495,0
DA:497,0
DA:505,0
DA:506,0
DA:526,0
DA:527,0
DA:530,0
DA:534,0
DA:535,0
end_of_record
SF:/usr/include/c++/9/bits/allocated_ptr.h
FN:52,_ZNSt15__allocated_ptrISaISt23_Sp_counted_ptr_inplaceI6WektorILi3EESaIS2_ELN9__gnu_cxx12_Lock_policyE2EEEEC2ERS7_PS6_
FNDA:0,_ZNSt15__allocated_ptrISaISt23_Sp_counted_ptr_inplaceI6WektorILi3EESaIS2_ELN9__gnu_cxx12_Lock_policyE2EEEEC2ERS7_PS6_
FN:70,_ZNSt15__allocated_ptrISaISt23_Sp_counted_ptr_inplaceI6WektorILi3EESaIS2_ELN9__gnu_cxx12_Lock_policyE2EEEED2Ev
FNDA:0,_ZNSt15__allocated_ptrISaISt23_Sp_counted_ptr_inplaceI6WektorILi3EESaIS2_ELN9__gnu_cxx12_Lock_policyE2EEEED2Ev
FN:78,_ZNSt15__allocated_ptrISaISt23_Sp_counted_ptr_inplaceI6WektorILi3EESaIS2_ELN9__gnu_cxx12_Lock_policyE2EEEEaSEDn
FNDA:0,_ZNSt15__allocated_ptrISaISt23_Sp_counted_ptr_inplaceI6WektorILi3EESaIS2_ELN9__gnu_cxx12_Lock_policyE2EEEEaSEDn
FN:85,_ZNSt15__allocated_ptrISaISt23_Sp_counted_ptr_inplaceI6WektorILi3EESaIS2_ELN9__gnu_cxx12_Lock_policyE2EEEE3getEv
FNDA:0,_ZNSt15__allocated_ptrISaISt23_Sp_counted_ptr_inplaceI6WektorILi3EESaIS2_ELN9__gnu_cxx12_Lock_policyE2EEEE3getEv
FN:95,_ZSt18__allocate_guardedISaISt23_Sp_counted_ptr_inplaceI6WektorILi3EESaIS2_ELN9__gnu_cxx12_Lock_policyE2EEEESt15__allocated_ptrIT_ERS9_
FNDA:0,_ZSt18__allocate_guardedISaISt23_Sp_counted_ptr_inplaceI6WektorILi3EESaIS2_ELN9__gnu_cxx12_Lock_policyE2EEEESt15__allocated_ptrIT_ERS9_
DA:52,0
DA:53,0
DA:54,0
DA:70,0
DA:72,0
DA:73,0
DA:74,0
DA:78,0
DA:80,0
DA:81,0
DA:85,0
DA:95,0
DA:97,0
end_of_record
SF:/usr/include/c++/9/bits/stl_vector.h
FN:94,_ZNSt12_Vector_baseI6WektorILi3EESaIS1_EE17_Vector_impl_dataC2Ev
FNDA:0,_ZNSt12_Vector_baseI6WektorILi3EESaIS1_EE17_Vector_impl_dataC2Ev
FN:128,_ZNSt12_Vector_baseI6WektorILi3EESaIS1_EE12_Vector_implC2Ev
FNDA:0,_ZNSt12_Vector_baseI6WektorILi3EESaIS1_EE12_Vector_implC2Ev
FN:273,_ZNSt12_Vector_baseI6WektorILi3EESaIS1_EE19_M_get_Tp_allocatorEv
FNDA:0,_ZNSt12_Vector_baseI6WektorILi3EESaIS1_EE19_M_get_Tp_allocatorEv
FN:277,_ZNKSt12_Vector_baseI6WektorILi3EESaIS1_EE19_M_get_Tp_allocatorEv
FNDA:0,_ZNKSt12_Vector_baseI6WektorILi3EESaIS1_EE19_M_get_Tp_allocatorEv
FN:285,_ZNSt12_Vector_baseI6WektorILi3EESaIS1_EEC2Ev
FNDA:0,_ZNSt12_Vector_baseI6WektorILi3EESaIS1_EEC2Ev
FN:330,_ZNSt12_Vector_baseI6WektorILi3EESaIS1_EED2Ev
FNDA:0,_ZNSt12_Vector_baseI6WektorILi3EESaIS1_EED2Ev
FN:340,_ZNSt12_Vector_baseI6WektorILi3EESaIS1_EE11_M_allocateEm
FNDA:0,_ZNSt12_Vector_baseI6WektorILi3EESaIS1_EE11_M_allocateEm
FN:347,_ZNSt12_Vector_baseI6WektorILi3EESaIS1_EE13_M_deallocateEPS1_m
FNDA:0,_ZNSt12_Vector_baseI6WektorILi3EESaIS1_EE13_M_deallocateEPS1_m
FN:484,_ZNSt6vectorI6WektorILi3EESaIS1_EEC2Ev
FNDA:0,_ZNSt6vectorI6WektorILi3EESaIS1_EEC2Ev
FN:675,_ZNSt6vectorI6WektorILi3EESaIS1_EED2Ev
FNDA:0,_ZNSt6vectorI6WektorILi3EESaIS1_EED2Ev
FN:808,_ZNSt6vectorI6WektorILi3EESaIS1_EE5beginEv
FNDA:0,_ZNSt6vectorI6WektorILi3EESaIS1_EE5beginEv
FN:817,_ZNKSt6vectorI6WektorILi3EESaIS1_EE5beginEv
FNDA:0,_ZNKSt6vectorI6WektorILi3EESaIS1_EE5beginEv
FN:826,_ZNSt6vectorI6WektorILi3EESaIS1_EE3endEv
FNDA:0,_ZNSt6vectorI6WektorILi3EESaIS1_EE3endEv
FN:835,_ZNKSt6vectorI6WektorILi3EESaIS1_EE3endEv
FNDA:0,_ZNKSt6vectorI6WektorILi3EESaIS1_EE3endEv
FN:915,_ZNKSt6vectorI6WektorILi3EESaIS1_EE4sizeEv
FNDA:0,_ZNKSt6vectorI6WektorILi3EESaIS1_EE4sizeEv
FN:920,_ZNKSt6vectorI6WektorILi3EESaIS1_EE8max_sizeEv
FNDA:0,_ZNKSt6vectorI6WektorILi3EESaIS1_EE8max_sizeEv
FN:995,_ZNKSt6vectorI6WektorILi3EESaIS1_EE8capacityEv
FNDA:0,_ZNKSt6vectorI6WektorILi3EESaIS1_EE8capacityEv
FN:1040,_ZNSt6vectorI6WektorILi3EESaIS1_EEixEm
FNDA:0,_ZNSt6vectorI6WektorILi3EESaIS1_EEixEm
FN:1184,_ZNSt6vectorI6WektorILi3EESaIS1_EE9push_backERKS1_
FNDA:0,_ZNSt6vectorI6WektorILi3EESaIS1_EE9push_backERKS1_
FN:1495,_ZNSt6vectorI6WektorILi3EESaIS1_EE5clearEv
FNDA:0,_ZNSt6vectorI6WektorILi3EESaIS1_EE5clearEv
FN:1505,_ZNSt6vectorI6WektorILi3EESaIS1_EE20_M_allocate_and_copyIN9__gnu_cxx17__normal_iteratorIPKS1_S3_EEEEPS1_mT_SB_
FNDA:0,_ZNSt6vectorI6WektorILi3EESaIS1_EE20_M_allocate_and_copyIN9__gnu_cxx17__normal_iteratorIPKS1_S3_EEEEPS1_mT_SB_
FN:1753,_ZNKSt6vectorI6WektorILi3EESaIS1_EE12_M_check_lenEmPKc
FNDA:0,_ZNKSt6vectorI6WektorILi3EESaIS1_EE12_M_check_lenEmPKc
FN:1773,_ZNSt6vectorI6WektorILi3EESaIS1_EE11_S_max_sizeERKS2_
FNDA:0,_ZNSt6vectorI6WektorILi3EESaIS1_EE11_S_max_sizeERKS2_
FN:1789,_ZNSt6vectorI6WektorILi3EESaIS1_EE15_M_erase_at_endEPS1_
FNDA:0,_ZNSt6vectorI6WektorILi3EESaIS1_EE15_M_erase_at_endEPS1_
DA:94,0
DA:95,0
DA:96,0
DA:128,0
DA:130,0
DA:131,0
DA:273,0
DA:274,0
DA:277,0
DA:278,0
DA:285,0
DA:330,0
DA:332,0
DA:333,0
DA:334,0
DA:340,0
DA:343,0
DA:347,0
DA:350,0
DA:351,0
DA:352,0
DA:484,0
DA:675,0
DA:677,0
DA:678,0
DA:680,0
DA:808,0
DA:809,0
DA:817,0
DA:818,0
DA:826,0
DA:827,0
DA:835,0
DA:836,0
DA:915,0
DA:916,0
DA:920,0
DA:921,0
DA:995,0
DA:996,0
DA:997,0
DA:1040,0
DA:1043,0
DA:1184,0
DA:1186,0
DA:1189,0
DA:1191,0
DA:1195,0
DA:1196,0
DA:1495,0
DA:1496,0
DA:1505,0
DA:1508,0
DA:1511,0
DA:1512,0
DA:1513,0
DA:1515,0
DA:1517,0
DA:1518,0
DA:1753,0
DA:1755,0
DA:1756,0
DA:1758,0
DA:1759,0
DA:1773,0
DA:1778,0
DA:1780,0
DA:1781,0
DA:1789,0
DA:1791,0
DA:1793,0
DA:1794,0
DA:1795,0
DA:1798,0
end_of_record
SF:/usr/include/c++/9/new
FN:173,_ZnwmPv
FNDA:0,_ZnwmPv
FN:179,_ZdlPvS_
FNDA:0,_ZdlPvS_
DA:173,0
DA:174,0
DA:179,0
end_of_record
SF:/usr/include/c++/9/ext/atomicity.h
FN:48,_ZN9__gnu_cxxL18__exchange_and_addEPVii
FNDA:0,_ZN9__gnu_cxxL18__exchange_and_addEPVii
FN:52,_ZN9__gnu_cxxL12__atomic_addEPVii
FNDA:0,_ZN9__gnu_cxxL12__atomic_addEPVii
FN:65,_ZN9__gnu_cxxL25__exchange_and_add_singleEPii
FNDA:0,_ZN9__gnu_cxxL25__exchange_and_add_singleEPii
FN:73,_ZN9__gnu_cxxL19__atomic_add_singleEPii
FNDA:0,_ZN9__gnu_cxxL19__atomic_add_singleEPii
FN:78,_ZN9__gnu_cxxL27__exchange_and_add_dispatchEPii
FNDA:0,_ZN9__gnu_cxxL27__exchange_and_add_dispatchEPii
FN:92,_ZN9__gnu_cxxL21__atomic_add_dispatchEPii
FNDA:0,_ZN9__gnu_cxxL21__atomic_add_dispatchEPii
DA:48,0
DA:49,0
DA:52,0
DA:53,0
DA:65,0
DA:67,0
DA:68,0
DA:69,0
DA:73,0
DA:74,0
DA:78,0
DA:81,0
DA:82,0
DA:84,0
DA:92,0
DA:95,0
DA:96,0
DA:98,0
DA:102,0
end_of_record
SF:/usr/include/c++/9/ext/alloc_traits.h
FN:103,_ZN9__gnu_cxx14__alloc_traitsISaI6WektorILi3EEES2_E27_S_propagate_on_copy_assignEv
FNDA:0,_ZN9__gnu_cxx14__alloc_traitsISaI6WektorILi3EEES2_E27_S_propagate_on_copy_assignEv
FN:112,_ZN9__gnu_cxx14__alloc_traitsISaI6WektorILi3EEES2_E15_S_always_equalEv
FNDA:0,_ZN9__gnu_cxx14__alloc_traitsISaI6WektorILi3EEES2_E15_S_always_equalEv
DA:103,0
DA:104,0
DA:112,0
DA:113,0
end_of_record
SF:/usr/include/c++/9/typeinfo
FN:120,_ZNKSt9type_infoeqERKS_
FNDA:0,_ZNKSt9type_infoeqERKS_
DA:120,0
DA:122,0
DA:123,0
DA:124,0
end_of_record
SF:/usr/include/x86_64-linux-gnu/c++/9/bits/gthr-default.h
FN:248,_ZL18__gthread_active_pv
FNDA:0,_ZL18__gthread_active_pv
DA:248,0
DA:252,0
end_of_record
SF:/home/mburakowski/pobiektowe/zad5_3-mburakow/include/Obiekt_Sceny.hh
end_of_record
SF:/usr/include/c++/9/bits/shared_ptr.h
FN:103,_ZNSt10shared_ptrI6WektorILi3EEEaSERKS2_
FNDA:0,_ZNSt10shared_ptrI6WektorILi3EEEaSERKS2_
FN:127,_ZNSt10shared_ptrI6WektorILi3EEEC2Ev
FNDA:0,_ZNSt10shared_ptrI6WektorILi3EEEC2Ev
FN:333,_ZNSt10shared_ptrI6WektorILi3EEEaSEOS2_
FNDA:0,_ZNSt10shared_ptrI6WektorILi3EEEaSEOS2_
FN:358,_ZNSt10shared_ptrI6WektorILi3EEEC2ISaIS1_EJRA3_dEEESt20_Sp_alloc_shared_tagIT_EDpOT0_
FNDA:0,_ZNSt10shared_ptrI6WektorILi3EEEC2ISaIS1_EJRA3_dEEESt20_Sp_alloc_shared_tagIT_EDpOT0_
FN:544,_ZNSt8weak_ptrI5BrylaEC2Ev
FNDA:0,_ZNSt8weak_ptrI5BrylaEC2Ev
FN:638,_ZNSt23enable_shared_from_thisI5BrylaEC2Ev
FNDA:0,_ZNSt23enable_shared_from_thisI5BrylaEC2Ev
FN:646,_ZNSt23enable_shared_from_thisI5BrylaED2Ev
FNDA:0,_ZNSt23enable_shared_from_thisI5BrylaED2Ev
FN:699,_ZSt15allocate_sharedI6WektorILi3EESaIS1_EJRA3_dEESt10shared_ptrIT_ERKT0_DpOT1_
FNDA:0,_ZSt15allocate_sharedI6WektorILi3EESaIS1_EJRA3_dEESt10shared_ptrIT_ERKT0_DpOT1_
FN:714,_ZSt11make_sharedI6WektorILi3EEJRA3_dEESt10shared_ptrIT_EDpOT0_
FNDA:0,_ZSt11make_sharedI6WektorILi3EEJRA3_dEESt10shared_ptrIT_EDpOT0_
DA:103,0
DA:127,0
DA:333,0
DA:335,0
DA:336,0
DA:358,0
DA:359,0
DA:360,0
DA:544,0
DA:638,0
DA:646,0
DA:699,0
DA:702,0
DA:714,0
DA:718,0
end_of_record
SF:/usr/include/c++/9/iostream
end_of_record
SF:/usr/include/c++/9/cmath
FN:415,_ZSt3powIdiEN9__gnu_cxx11__promote_2IT_T0_NS0_9__promoteIS2_XsrSt12__is_integerIS2_E7__valueEE6__typeENS4_IS3_XsrS5_IS3_E7__valueEE6__typeEE6__typeES2_S3_
FNDA:0,_ZSt3powIdiEN9__gnu_cxx11__promote_2IT_T0_NS0_9__promoteIS2_XsrSt12__is_integerIS2_E7__valueEE6__typeENS4_IS3_XsrS5_IS3_E7__valueEE6__typeEE6__typeES2_S3_
DA:415,0
DA:418,0
end_of_record
SF:/usr/include/c++/9/bits/stl_algobase.h
FN:198,_ZSt3minImERKT_S2_S2_
FNDA:0,_ZSt3minImERKT_S2_S2_
FN:222,_ZSt3maxImERKT_S2_S2_
FNDA:0,_ZSt3maxImERKT_S2_S2_
FN:280,_ZSt12__niter_baseIP6WektorILi3EEET_S3_
FNDA:0,_ZSt12__niter_baseIP6WektorILi3EEET_S3_
FN:289,_ZSt12__niter_wrapIN9__gnu_cxx17__normal_iteratorIP6WektorILi3EESt6vectorIS3_SaIS3_EEEES4_ET_S9_T0_
FNDA:0,_ZSt12__niter_wrapIN9__gnu_cxx17__normal_iteratorIP6WektorILi3EESt6vectorIS3_SaIS3_EEEES4_ET_S9_T0_
FN:295,_ZSt12__niter_wrapIP6WektorILi3EEET_RKS3_S3_
FNDA:0,_ZSt12__niter_wrapIP6WektorILi3EEET_RKS3_S3_
FN:337,_ZNSt11__copy_moveILb0ELb0ESt26random_access_iterator_tagE8__copy_mIP6WektorILi3EES5_EET0_T_S7_S6_
FNDA:0,_ZNSt11__copy_moveILb0ELb0ESt26random_access_iterator_tagE8__copy_mIP6WektorILi3EES5_EET0_T_S7_S6_
FN:337,_ZNSt11__copy_moveILb0ELb0ESt26random_access_iterator_tagE8__copy_mIPK6WektorILi3EEPS4_EET0_T_S9_S8_
FNDA:0,_ZNSt11__copy_moveILb0ELb0ESt26random_access_iterator_tagE8__copy_mIPK6WektorILi3EEPS4_EET0_T_S9_S8_
FN:393,_ZSt13__copy_move_aILb0EP6WektorILi3EES2_ET1_T0_S4_S3_
FNDA:0,_ZSt13__copy_move_aILb0EP6WektorILi3EES2_ET1_T0_S4_S3_
FN:393,_ZSt13__copy_move_aILb0EPK6WektorILi3EEPS1_ET1_T0_S6_S5_
FNDA:0,_ZSt13__copy_move_aILb0EPK6WektorILi3EEPS1_ET1_T0_S6_S5_
FN:438,_ZSt14__copy_move_a2ILb0EP6WektorILi3EES2_ET1_T0_S4_S3_
FNDA:0,_ZSt14__copy_move_a2ILb0EP6WektorILi3EES2_ET1_T0_S4_S3_
FN:438,_ZSt14__copy_move_a2ILb0EN9__gnu_cxx17__normal_iteratorIPK6WektorILi3EESt6vectorIS3_SaIS3_EEEENS1_IPS3_S8_EEET1_T0_SD_SC_
FNDA:0,_ZSt14__copy_move_a2ILb0EN9__gnu_cxx17__normal_iteratorIPK6WektorILi3EESt6vectorIS3_SaIS3_EEEENS1_IPS3_S8_EEET1_T0_SD_SC_
FN:465,_ZSt4copyIP6WektorILi3EES2_ET0_T_S4_S3_
FNDA:0,_ZSt4copyIP6WektorILi3EES2_ET0_T_S4_S3_
FN:465,_ZSt4copyIN9__gnu_cxx17__normal_iteratorIPK6WektorILi3EESt6vectorIS3_SaIS3_EEEENS1_IPS3_S8_EEET0_T_SD_SC_
FNDA:0,_ZSt4copyIN9__gnu_cxx17__normal_iteratorIPK6WektorILi3EESt6vectorIS3_SaIS3_EEEENS1_IPS3_S8_EEET0_T_SD_SC_
DA:198,0
DA:203,0
DA:204,0
DA:205,0
DA:222,0
DA:227,0
DA:228,0
DA:229,0
DA:280,0
DA:282,0
DA:289,0
DA:290,0
DA:295,0
DA:296,0
DA:337,0
DA:340,0
DA:342,0
DA:343,0
DA:344,0
DA:346,0
DA:337,0
DA:340,0
DA:342,0
DA:343,0
DA:344,0
DA:346,0
DA:393,0
DA:398,0
DA:404,0
DA:393,0
DA:398,0
DA:404,0
DA:438,0
DA:440,0
DA:443,0
DA:438,0
DA:440,0
DA:443,0
DA:465,0
DA:474,0
DA:465,0
DA:474,0
end_of_record
SF:/usr/include/c++/9/bits/basic_string.h
end_of_record
SF:/home/mburakowski/pobiektowe/zad5_3-mburakow/include/Bryla.hh
FN:20,_ZN5Bryla7promienEv
FNDA:0,_ZN5Bryla7promienEv
DA:20,0
end_of_record
SF:/usr/include/c++/9/ext/aligned_buffer.h
FN:102,_ZN9__gnu_cxx16__aligned_bufferI6WektorILi3EEE7_M_addrEv
FNDA:0,_ZN9__gnu_cxx16__aligned_bufferI6WektorILi3EEE7_M_addrEv
FN:114,_ZN9__gnu_cxx16__aligned_bufferI6WektorILi3EEE6_M_ptrEv
FNDA:0,_ZN9__gnu_cxx16__aligned_bufferI6WektorILi3EEE6_M_ptrEv
DA:102,0
DA:104,0
DA:114,0
DA:115,0
end_of_record
SF:/usr/include/c++/9/bits/move.h
FN:47,_ZSt11__addressofISaISt23_Sp_counted_ptr_inplaceI6WektorILi3EESaIS2_ELN9__gnu_cxx12_Lock_policyE2EEEEPT_RS8_
FNDA:0,_ZSt11__addressofISaISt23_Sp_counted_ptr_inplaceI6WektorILi3EESaIS2_ELN9__gnu_cxx12_Lock_policyE2EEEEPT_RS8_
FN:47,_ZSt11__addressofI6WektorILi3EEEPT_RS2_
FNDA:0,_ZSt11__addressofI6WektorILi3EEEPT_RS2_
FN:74,_ZSt7forwardIR6WektorILi3EEEOT_RNSt16remove_referenceIS3_E4typeE
FNDA:0,_ZSt7forwardIR6WektorILi3EEEOT_RNSt16remove_referenceIS3_E4typeE
FN:74,_ZSt7forwardIRK6WektorILi3EEEOT_RNSt16remove_referenceIS4_E4typeE
FNDA:0,_ZSt7forwardIRK6WektorILi3EEEOT_RNSt16remove_referenceIS4_E4typeE
FN:74,_ZSt7forwardIRA3_dEOT_RNSt16remove_referenceIS2_E4typeE
FNDA:0,_ZSt7forwardIRA3_dEOT_RNSt16remove_referenceIS2_E4typeE
FN:99,_ZSt4moveIRP6WektorILi3EEEONSt16remove_referenceIT_E4typeEOS5_
FNDA:0,_ZSt4moveIRP6WektorILi3EEEONSt16remove_referenceIT_E4typeEOS5_
FN:99,_ZSt4moveIRSt12__shared_ptrI6WektorILi3EELN9__gnu_cxx12_Lock_policyE2EEEONSt16remove_referenceIT_E4typeEOS8_
FNDA:0,_ZSt4moveIRSt12__shared_ptrI6WektorILi3EELN9__gnu_cxx12_Lock_policyE2EEEONSt16remove_referenceIT_E4typeEOS8_
FN:99,_ZSt4moveIRSaIcEEONSt16remove_referenceIT_E4typeEOS3_
FNDA:0,_ZSt4moveIRSaIcEEONSt16remove_referenceIT_E4typeEOS3_
FN:99,_ZSt4moveIRSt10shared_ptrI6WektorILi3EEEEONSt16remove_referenceIT_E4typeEOS6_
FNDA:0,_ZSt4moveIRSt10shared_ptrI6WektorILi3EEEEONSt16remove_referenceIT_E4typeEOS6_
FN:182,_ZSt4swapIP6WektorILi3EEENSt9enable_ifIXsrSt6__and_IJSt6__not_ISt15__is_tuple_likeIT_EESt21is_move_constructibleIS7_ESt18is_move_assignableIS7_EEE5valueEvE4typeERS7_SH_
FNDA:0,_ZSt4swapIP6WektorILi3EEENSt9enable_ifIXsrSt6__and_IJSt6__not_ISt15__is_tuple_likeIT_EESt21is_move_constructibleIS7_ESt18is_move_assignableIS7_EEE5valueEvE4typeERS7_SH_
DA:47,0
DA:48,0
DA:47,0
DA:48,0
DA:74,0
DA:75,0
DA:74,0
DA:75,0
DA:74,0
DA:75,0
DA:99,0
DA:100,0
DA:99,0
DA:100,0
DA:99,0
DA:100,0
DA:99,0
DA:100,0
DA:182,0
DA:193,0
DA:194,0
DA:195,0
DA:196,0
end_of_record
SF:/usr/include/c++/9/bits/allocator.h
FN:138,_ZNSaI6WektorILi3EEEC2Ev
FNDA:0,_ZNSaI6WektorILi3EEEC2Ev
FN:141,_ZNSaI6WektorILi3EEEC2ERKS1_
FNDA:0,_ZNSaI6WektorILi3EEEC2ERKS1_
FN:151,_ZNSaISt23_Sp_counted_ptr_inplaceI6WektorILi3EESaIS1_ELN9__gnu_cxx12_Lock_policyE2EEEC2IS1_EERKSaIT_E
FNDA:0,_ZNSaISt23_Sp_counted_ptr_inplaceI6WektorILi3EESaIS1_ELN9__gnu_cxx12_Lock_policyE2EEEC2IS1_EERKSaIT_E
FN:153,_ZNSaISt23_Sp_counted_ptr_inplaceI6WektorILi3EESaIS1_ELN9__gnu_cxx12_Lock_policyE2EEED2Ev
FNDA:0,_ZNSaISt23_Sp_counted_ptr_inplaceI6WektorILi3EESaIS1_ELN9__gnu_cxx12_Lock_policyE2EEED2Ev
FN:153,_ZNSaI6WektorILi3EEED2Ev
FNDA:0,_ZNSaI6WektorILi3EEED2Ev
FN:160,_ZStneRKSaI6WektorILi3EEES3_
FNDA:0,_ZStneRKSaI6WektorILi3EEES3_
DA:138,0
DA:141,0
DA:142,0
DA:151,0
DA:153,0
DA:153,0
DA:160,0
DA:161,0
end_of_record
SF:/usr/include/c++/9/bits/vector.tcc
FN:198,_ZNSt6vectorI6WektorILi3EESaIS1_EEaSERKS3_
FNDA:0,_ZNSt6vectorI6WektorILi3EESaIS1_EEaSERKS3_
FN:426,_ZNSt6vectorI6WektorILi3EESaIS1_EE17_M_realloc_insertIJRKS1_EEEvN9__gnu_cxx17__normal_iteratorIPS1_S3_EEDpOT_
FNDA:0,_ZNSt6vectorI6WektorILi3EESaIS1_EE17_M_realloc_insertIJRKS1_EEEvN9__gnu_cxx17__normal_iteratorIPS1_S3_EEDpOT_
DA:198,0
DA:201,0
DA:205,0
DA:207,0
DA:208,0
DA:211,0
DA:212,0
DA:213,0
DA:214,0
DA:215,0
DA:216,0
DA:217,0
DA:219,0
DA:223,0
DA:224,0
DA:226,0
DA:228,0
DA:229,0
DA:230,0
DA:231,0
DA:232,0
DA:233,0
DA:234,0
DA:236,0
DA:238,0
DA:239,0
DA:243,0
DA:245,0
DA:246,0
DA:248,0
DA:250,0
DA:252,0
DA:426,0
DA:435,0
DA:437,0
DA:438,0
DA:439,0
DA:440,0
DA:441,0
DA:449,0
DA:450,0
DA:456,0
DA:474,0
DA:475,0
DA:477,0
DA:481,0
DA:482,0
DA:485,0
DA:487,0
DA:488,0
DA:489,0
DA:491,0
DA:492,0
DA:493,0
DA:498,0
DA:500,0
DA:501,0
DA:502,0
DA:503,0
DA:504,0
DA:505,0
end_of_record
SF:/usr/include/c++/9/bits/cpp_type_traits.h
FN:428,_ZSt12__miter_baseIP6WektorILi3EEET_S3_
FNDA:0,_ZSt12__miter_baseIP6WektorILi3EEET_S3_
FN:428,_ZSt12__miter_baseIN9__gnu_cxx17__normal_iteratorIPK6WektorILi3EESt6vectorIS3_SaIS3_EEEEET_SA_
FNDA:0,_ZSt12__miter_baseIN9__gnu_cxx17__normal_iteratorIPK6WektorILi3EESt6vectorIS3_SaIS3_EEEEET_SA_
DA:428,0
DA:429,0
DA:428,0
DA:429,0
end_of_record
SF:/usr/include/c++/9/bits/stl_construct.h
FN:74,_ZSt10_ConstructI6WektorILi3EEJRKS1_EEvPT_DpOT0_
FNDA:0,_ZSt10_ConstructI6WektorILi3EEJRKS1_EEvPT_DpOT0_
FN:74,_ZSt10_ConstructI6WektorILi3EEJRS1_EEvPT_DpOT0_
FNDA:0,_ZSt10_ConstructI6WektorILi3EEJRS1_EEvPT_DpOT0_
FN:97,_ZSt8_DestroyI6WektorILi3EEEvPT_
FNDA:0,_ZSt8_DestroyI6WektorILi3EEEvPT_
FN:105,_ZNSt12_Destroy_auxILb0EE9__destroyIN9__gnu_cxx17__normal_iteratorIP6WektorILi3EESt6vectorIS5_SaIS5_EEEEEEvT_SB_
FNDA:0,_ZNSt12_Destroy_auxILb0EE9__destroyIN9__gnu_cxx17__normal_iteratorIP6WektorILi3EESt6vectorIS5_SaIS5_EEEEEEvT_SB_
FN:105,_ZNSt12_Destroy_auxILb0EE9__destroyIP6WektorILi3EEEEvT_S5_
FNDA:0,_ZNSt12_Destroy_auxILb0EE9__destroyIP6WektorILi3EEEEvT_S5_
FN:127,_ZSt8_DestroyIN9__gnu_cxx17__normal_iteratorIP6WektorILi3EESt6vectorIS3_SaIS3_EEEEEvT_S9_
FNDA:0,_ZSt8_DestroyIN9__gnu_cxx17__normal_iteratorIP6WektorILi3EESt6vectorIS3_SaIS3_EEEEEvT_S9_
FN:127,_ZSt8_DestroyIP6WektorILi3EEEvT_S3_
FNDA:0,_ZSt8_DestroyIP6WektorILi3EEEvT_S3_
FN:203,_ZSt8_DestroyIN9__gnu_cxx17__normal_iteratorIP6WektorILi3EESt6vectorIS3_SaIS3_EEEES3_EvT_S9_RSaIT0_E
FNDA:0,_ZSt8_DestroyIN9__gnu_cxx17__normal_iteratorIP6WektorILi3EESt6vectorIS3_SaIS3_EEEES3_EvT_S9_RSaIT0_E
FN:203,_ZSt8_DestroyIP6WektorILi3EES1_EvT_S3_RSaIT0_E
FNDA:0,_ZSt8_DestroyIP6WektorILi3EES1_EvT_S3_RSaIT0_E
DA:74,0
DA:75,0
DA:74,0
DA:75,0
DA:97,0
DA:98,0
DA:105,0
DA:107,0
DA:108,0
DA:109,0
DA:105,0
DA:107,0
DA:108,0
DA:109,0
DA:127,0
DA:137,0
DA:138,0
DA:127,0
DA:137,0
DA:138,0
DA:203,0
DA:206,0
DA:207,0
DA:203,0
DA:206,0
DA:207,0
end_of_record
TN:
SF:/usr/include/c++/9/bits/ptr_traits.h
FN:156,_ZSt12__to_addressISt23_Sp_counted_ptr_inplaceI6WektorILi3EESaIS2_ELN9__gnu_cxx12_Lock_policyE2EEEPT_S8_
FNDA:0,_ZSt12__to_addressISt23_Sp_counted_ptr_inplaceI6WektorILi3EESaIS2_ELN9__gnu_cxx12_Lock_policyE2EEEPT_S8_
DA:156,0
DA:159,0
end_of_record
SF:/usr/include/c++/9/bits/stl_iterator.h
FN:806,_ZN9__gnu_cxx17__normal_iteratorIP6WektorILi3EESt6vectorIS2_SaIS2_EEEC2ERKS3_
FNDA:0,_ZN9__gnu_cxx17__normal_iteratorIP6WektorILi3EESt6vectorIS2_SaIS2_EEEC2ERKS3_
FN:806,_ZN9__gnu_cxx17__normal_iteratorIPK6WektorILi3EESt6vectorIS2_SaIS2_EEEC2ERKS4_
FNDA:0,_ZN9__gnu_cxx17__normal_iteratorIPK6WektorILi3EESt6vectorIS2_SaIS2_EEEC2ERKS4_
FN:819,_ZNK9__gnu_cxx17__normal_iteratorIPK6WektorILi3EESt6vectorIS2_SaIS2_EEEdeEv
FNDA:0,_ZNK9__gnu_cxx17__normal_iteratorIPK6WektorILi3EESt6vectorIS2_SaIS2_EEEdeEv
FN:819,_ZNK9__gnu_cxx17__normal_iteratorIP6WektorILi3EESt6vectorIS2_SaIS2_EEEdeEv
FNDA:0,_ZNK9__gnu_cxx17__normal_iteratorIP6WektorILi3EESt6vectorIS2_SaIS2_EEEdeEv
FN:827,_ZN9__gnu_cxx17__normal_iteratorIPK6WektorILi3EESt6vectorIS2_SaIS2_EEEppEv
FNDA:0,_ZN9__gnu_cxx17__normal_iteratorIPK6WektorILi3EESt6vectorIS2_SaIS2_EEEppEv
FN:827,_ZN9__gnu_cxx17__normal_iteratorIP6WektorILi3EESt6vectorIS2_SaIS2_EEEppEv
FNDA:0,_ZN9__gnu_cxx17__normal_iteratorIP6WektorILi3EESt6vectorIS2_SaIS2_EEEppEv
FN:859,_ZNK9__gnu_cxx17__normal_iteratorIP6WektorILi3EESt6vectorIS2_SaIS2_EEEplEl
FNDA:0,_ZNK9__gnu_cxx17__normal_iteratorIP6WektorILi3EESt6vectorIS2_SaIS2_EEEplEl
FN:871,_ZNK9__gnu_cxx17__normal_iteratorIPK6WektorILi3EESt6vectorIS2_SaIS2_EEE4baseEv
FNDA:0,_ZNK9__gnu_cxx17__normal_iteratorIPK6WektorILi3EESt6vectorIS2_SaIS2_EEE4baseEv
FN:871,_ZNK9__gnu_cxx17__normal_iteratorIP6WektorILi3EESt6vectorIS2_SaIS2_EEE4baseEv
FNDA:0,_ZNK9__gnu_cxx17__normal_iteratorIP6WektorILi3EESt6vectorIS2_SaIS2_EEE4baseEv
FN:907,_ZN9__gnu_cxxneIPK6WektorILi3EESt6vectorIS2_SaIS2_EEEEbRKNS_17__normal_iteratorIT_T0_EESD_
FNDA:0,_ZN9__gnu_cxxneIPK6WektorILi3EESt6vectorIS2_SaIS2_EEEEbRKNS_17__normal_iteratorIT_T0_EESD_
FN:907,_ZN9__gnu_cxxneIP6WektorILi3EESt6vectorIS2_SaIS2_EEEEbRKNS_17__normal_iteratorIT_T0_EESC_
FNDA:0,_ZN9__gnu_cxxneIP6WektorILi3EESt6vectorIS2_SaIS2_EEEEbRKNS_17__normal_iteratorIT_T0_EESC_
FN:989,_ZN9__gnu_cxxmiIP6WektorILi3EESt6vectorIS2_SaIS2_EEEENS_17__normal_iteratorIT_T0_E15difference_typeERKSA_SD_
FNDA:0,_ZN9__gnu_cxxmiIP6WektorILi3EESt6vectorIS2_SaIS2_EEEENS_17__normal_iteratorIT_T0_E15difference_typeERKSA_SD_
FN:1010,_ZSt12__niter_baseIP6WektorILi3EESt6vectorIS1_SaIS1_EEET_N9__gnu_cxx17__normal_iteratorIS6_T0_EE
FNDA:0,_ZSt12__niter_baseIP6WektorILi3EESt6vectorIS1_SaIS1_EEET_N9__gnu_cxx17__normal_iteratorIS6_T0_EE
FN:1010,_ZSt12__niter_baseIPK6WektorILi3EESt6vectorIS1_SaIS1_EEET_N9__gnu_cxx17__normal_iteratorIS7_T0_EE
FNDA:0,_ZSt12__niter_baseIPK6WektorILi3EESt6vectorIS1_SaIS1_EEET_N9__gnu_cxx17__normal_iteratorIS7_T0_EE
FN:1242,_ZSt32__make_move_if_noexcept_iteratorI6WektorILi3EEPKS1_ET0_PT_
FNDA:0,_ZSt32__make_move_if_noexcept_iteratorI6WektorILi3EEPKS1_ET0_PT_
DA:806,0
DA:807,0
DA:806,0
DA:807,0
DA:819,0
DA:820,0
DA:819,0
DA:820,0
DA:827,0
DA:829,0
DA:830,0
DA:827,0
DA:829,0
DA:830,0
DA:859,0
DA:860,0
DA:871,0
DA:872,0
DA:871,0
DA:872,0
DA:907,0
DA:910,0
DA:907,0
DA:910,0
DA:989,0
DA:992,0
DA:1010,0
DA:1012,0
DA:1010,0
DA:1012,0
DA:1242,0
DA:1243,0
end_of_record
SF:/usr/include/c++/9/bits/stl_uninitialized.h
FN:76,_ZNSt20__uninitialized_copyILb0EE13__uninit_copyIPK6WektorILi3EEPS3_EET0_T_S8_S7_
FNDA:0,_ZNSt20__uninitialized_copyILb0EE13__uninit_copyIPK6WektorILi3EEPS3_EET0_T_S8_S7_
FN:76,_ZNSt20__uninitialized_copyILb0EE13__uninit_copyIN9__gnu_cxx17__normal_iteratorIPK6WektorILi3EESt6vectorIS5_SaIS5_EEEEPS5_EET0_T_SE_SD_
FNDA:0,_ZNSt20__uninitialized_copyILb0EE13__uninit_copyIN9__gnu_cxx17__normal_iteratorIPK6WektorILi3EESt6vectorIS5_SaIS5_EEEEPS5_EET0_T_SE_SD_
FN:76,_ZNSt20__uninitialized_copyILb0EE13__uninit_copyIP6WektorILi3EES4_EET0_T_S6_S5_
FNDA:0,_ZNSt20__uninitialized_copyILb0EE13__uninit_copyIP6WektorILi3EES4_EET0_T_S6_S5_
FN:115,_ZSt18uninitialized_copyIPK6WektorILi3EEPS1_ET0_T_S6_S5_
FNDA:0,_ZSt18uninitialized_copyIPK6WektorILi3EEPS1_ET0_T_S6_S5_
FN:115,_ZSt18uninitialized_copyIN9__gnu_cxx17__normal_iteratorIPK6WektorILi3EESt6vectorIS3_SaIS3_EEEEPS3_ET0_T_SC_SB_
FNDA:0,_ZSt18uninitialized_copyIN9__gnu_cxx17__normal_iteratorIPK6WektorILi3EESt6vectorIS3_SaIS3_EEEEPS3_ET0_T_SC_SB_
FN:115,_ZSt18uninitialized_copyIP6WektorILi3EES2_ET0_T_S4_S3_
FNDA:0,_ZSt18uninitialized_copyIP6WektorILi3EES2_ET0_T_S4_S3_
FN:305,_ZSt22__uninitialized_copy_aIPK6WektorILi3EEPS1_S1_ET0_T_S6_S5_RSaIT1_E
FNDA:0,_ZSt22__uninitialized_copy_aIPK6WektorILi3EEPS1_S1_ET0_T_S6_S5_RSaIT1_E
FN:305,_ZSt22__uninitialized_copy_aIN9__gnu_cxx17__normal_iteratorIPK6WektorILi3EESt6vectorIS3_SaIS3_EEEEPS3_S3_ET0_T_SC_SB_RSaIT1_E
FNDA:0,_ZSt22__uninitialized_copy_aIN9__gnu_cxx17__normal_iteratorIPK6WektorILi3EESt6vectorIS3_SaIS3_EEEEPS3_S3_ET0_T_SC_SB_RSaIT1_E
FN:305,_ZSt22__uninitialized_copy_aIP6WektorILi3EES2_S1_ET0_T_S4_S3_RSaIT1_E
FNDA:0,_ZSt22__uninitialized_copy_aIP6WektorILi3EES2_S1_ET0_T_S4_S3_RSaIT1_E
FN:323,_ZSt34__uninitialized_move_if_noexcept_aIP6WektorILi3EES2_SaIS1_EET0_T_S5_S4_RT1_
FNDA:0,_ZSt34__uninitialized_move_if_noexcept_aIP6WektorILi3EES2_SaIS1_EET0_T_S5_S4_RT1_
DA:76,0
DA:79,0
DA:82,0
DA:83,0
DA:84,0
DA:76,0
DA:79,0
DA:82,0
DA:83,0
DA:84,0
DA:76,0
DA:79,0
DA:82,0
DA:83,0
DA:84,0
DA:86,0
DA:88,0
DA:89,0
DA:115,0
DA:134,0
DA:140,0
DA:115,0
DA:134,0
DA:140,0
DA:115,0
DA:134,0
DA:140,0
DA:305,0
DA:307,0
DA:305,0
DA:307,0
DA:305,0
DA:307,0
DA:323,0
DA:329,0
DA:330,0
end_of_record
SF:/usr/include/c++/9/bits/shared_ptr_base.h
FN:117,_ZNSt16_Sp_counted_baseILN9__gnu_cxx12_Lock_policyE2EEC2Ev
FNDA:0,_ZNSt16_Sp_counted_baseILN9__gnu_cxx12_Lock_policyE2EEC2Ev
FN:121,_ZNSt16_Sp_counted_baseILN9__gnu_cxx12_Lock_policyE2EED2Ev
FNDA:0,_ZNSt16_Sp_counted_baseILN9__gnu_cxx12_Lock_policyE2EED2Ev
FN:121,_ZNSt16_Sp_counted_baseILN9__gnu_cxx12_Lock_policyE2EED0Ev
FNDA:0,_ZNSt16_Sp_counted_baseILN9__gnu_cxx12_Lock_policyE2EED0Ev
FN:131,_ZNSt16_Sp_counted_baseILN9__gnu_cxx12_Lock_policyE2EE10_M_destroyEv
FNDA:0,_ZNSt16_Sp_counted_baseILN9__gnu_cxx12_Lock_policyE2EE10_M_destroyEv
FN:138,_ZNSt16_Sp_counted_baseILN9__gnu_cxx12_Lock_policyE2EE15_M_add_ref_copyEv
FNDA:0,_ZNSt16_Sp_counted_baseILN9__gnu_cxx12_Lock_policyE2EE15_M_add_ref_copyEv
FN:148,_ZNSt16_Sp_counted_baseILN9__gnu_cxx12_Lock_policyE2EE10_M_releaseEv
FNDA:0,_ZNSt16_Sp_counted_baseILN9__gnu_cxx12_Lock_policyE2EE10_M_releaseEv
FN:181,_ZNSt16_Sp_counted_baseILN9__gnu_cxx12_Lock_policyE2EE15_M_weak_releaseEv
FNDA:0,_ZNSt16_Sp_counted_baseILN9__gnu_cxx12_Lock_policyE2EE15_M_weak_releaseEv
FN:414,_ZNSt14_Sp_ebo_helperILi0ESaI6WektorILi3EEELb1EEC2ERKS2_
FNDA:0,_ZNSt14_Sp_ebo_helperILi0ESaI6WektorILi3EEELb1EEC2ERKS2_
FN:418,_ZNSt14_Sp_ebo_helperILi0ESaI6WektorILi3EEELb1EE6_S_getERS3_
FNDA:0,_ZNSt14_Sp_ebo_helperILi0ESaI6WektorILi3EEELb1EE6_S_getERS3_
FN:508,_ZNSt19_Sp_make_shared_tag5_S_tiEv
FNDA:0,_ZNSt19_Sp_make_shared_tag5_S_tiEv
FN:531,_ZNSt23_Sp_counted_ptr_inplaceI6WektorILi3EESaIS1_ELN9__gnu_cxx12_Lock_policyE2EE5_ImplC2ES2_
FNDA:0,_ZNSt23_Sp_counted_ptr_inplaceI6WektorILi3EESaIS1_ELN9__gnu_cxx12_Lock_policyE2EE5_ImplC2ES2_
FN:533,_ZNSt23_Sp_counted_ptr_inplaceI6WektorILi3EESaIS1_ELN9__gnu_cxx12_Lock_policyE2EE5_Impl8_M_allocEv
FNDA:0,_ZNSt23_Sp_counted_ptr_inplaceI6WektorILi3EESaIS1_ELN9__gnu_cxx12_Lock_policyE2EE5_Impl8_M_allocEv
FN:543,_ZNSt23_Sp_counted_ptr_inplaceI6WektorILi3EESaIS1_ELN9__gnu_cxx12_Lock_policyE2EEC2IJRA3_dEEES2_DpOT_
FNDA:0,_ZNSt23_Sp_counted_ptr_inplaceI6WektorILi3EESaIS1_ELN9__gnu_cxx12_Lock_policyE2EEC2IJRA3_dEEES2_DpOT_
FN:552,_ZNSt23_Sp_counted_ptr_inplaceI6WektorILi3EESaIS1_ELN9__gnu_cxx12_Lock_policyE2EED0Ev
FNDA:0,_ZNSt23_Sp_counted_ptr_inplaceI6WektorILi3EESaIS1_ELN9__gnu_cxx12_Lock_policyE2EED0Ev
FN:552,_ZNSt23_Sp_counted_ptr_inplaceI6WektorILi3EESaIS1_ELN9__gnu_cxx12_Lock_policyE2EED2Ev
FNDA:0,_ZNSt23_Sp_counted_ptr_inplaceI6WektorILi3EESaIS1_ELN9__gnu_cxx12_Lock_policyE2EED2Ev
FN:555,_ZNSt23_Sp_counted_ptr_inplaceI6WektorILi3EESaIS1_ELN9__gnu_cxx12_Lock_policyE2EE10_M_disposeEv
FNDA:0,_ZNSt23_Sp_counted_ptr_inplaceI6WektorILi3EESaIS1_ELN9__gnu_cxx12_Lock_policyE2EE10_M_disposeEv
FN:562,_ZNSt23_Sp_counted_ptr_inplaceI6WektorILi3EESaIS1_ELN9__gnu_cxx12_Lock_policyE2EE10_M_destroyEv
FNDA:0,_ZNSt23_Sp_counted_ptr_inplaceI6WektorILi3EESaIS1_ELN9__gnu_cxx12_Lock_policyE2EE10_M_destroyEv
FN:575,_ZNSt23_Sp_counted_ptr_inplaceI6WektorILi3EESaIS1_ELN9__gnu_cxx12_Lock_policyE2EE14_M_get_deleterERKSt9type_info
FNDA:0,_ZNSt23_Sp_counted_ptr_inplaceI6WektorILi3EESaIS1_ELN9__gnu_cxx12_Lock_policyE2EE14_M_get_deleterERKSt9type_info
FN:594,_ZNSt23_Sp_counted_ptr_inplaceI6WektorILi3EESaIS1_ELN9__gnu_cxx12_Lock_policyE2EE6_M_ptrEv
FNDA:0,_ZNSt23_Sp_counted_ptr_inplaceI6WektorILi3EESaIS1_ELN9__gnu_cxx12_Lock_policyE2EE6_M_ptrEv
FN:616,_ZNSt14__shared_countILN9__gnu_cxx12_Lock_policyE2EEC2Ev
FNDA:0,_ZNSt14__shared_countILN9__gnu_cxx12_Lock_policyE2EEC2Ev
FN:672,_ZNSt14__shared_countILN9__gnu_cxx12_Lock_policyE2EEC2I6WektorILi3EESaIS5_EJRA3_dEEERPT_St20_Sp_alloc_shared_tagIT0_EDpOT1_
FNDA:0,_ZNSt14__shared_countILN9__gnu_cxx12_Lock_policyE2EEC2I6WektorILi3EESaIS5_EJRA3_dEEERPT_St20_Sp_alloc_shared_tagIT0_EDpOT1_
FN:727,_ZNSt14__shared_countILN9__gnu_cxx12_Lock_policyE2EED2Ev
FNDA:0,_ZNSt14__shared_countILN9__gnu_cxx12_Lock_policyE2EED2Ev
FN:741,_ZNSt14__shared_countILN9__gnu_cxx12_Lock_policyE2EEaSERKS2_
FNDA:0,_ZNSt14__shared_countILN9__gnu_cxx12_Lock_policyE2EEaSERKS2_
FN:756,_ZNSt14__shared_countILN9__gnu_cxx12_Lock_policyE2EE7_M_swapERS2_
FNDA:0,_ZNSt14__shared_countILN9__gnu_cxx12_Lock_policyE2EE7_M_swapERS2_
FN:799,_ZNSt12__weak_countILN9__gnu_cxx12_Lock_policyE2EEC2Ev
FNDA:0,_ZNSt12__weak_countILN9__gnu_cxx12_Lock_policyE2EEC2Ev
FN:820,_ZNSt12__weak_countILN9__gnu_cxx12_Lock_policyE2EED2Ev
FNDA:0,_ZNSt12__weak_countILN9__gnu_cxx12_Lock_policyE2EED2Ev
FN:1080,_ZNSt12__shared_ptrI6WektorILi3EELN9__gnu_cxx12_Lock_policyE2EEaSERKS4_
FNDA:0,_ZNSt12__shared_ptrI6WektorILi3EELN9__gnu_cxx12_Lock_policyE2EEaSERKS4_
FN:1118,_ZNSt12__shared_ptrI6WektorILi3EELN9__gnu_cxx12_Lock_policyE2EEC2Ev
FNDA:0,_ZNSt12__shared_ptrI6WektorILi3EELN9__gnu_cxx12_Lock_policyE2EEC2Ev
FN:1169,_ZNSt12__shared_ptrI6WektorILi3EELN9__gnu_cxx12_Lock_policyE2EED2Ev
FNDA:0,_ZNSt12__shared_ptrI6WektorILi3EELN9__gnu_cxx12_Lock_policyE2EED2Ev
FN:1176,_ZNSt12__shared_ptrI6WektorILi3EELN9__gnu_cxx12_Lock_policyE2EEC2EOS4_
FNDA:0,_ZNSt12__shared_ptrI6WektorILi3EELN9__gnu_cxx12_Lock_policyE2EEC2EOS4_
FN:1263,_ZNSt12__shared_ptrI6WektorILi3EELN9__gnu_cxx12_Lock_policyE2EEaSEOS4_
FNDA:0,_ZNSt12__shared_ptrI6WektorILi3EELN9__gnu_cxx12_Lock_policyE2EEaSEOS4_
FN:1324,_ZNSt12__shared_ptrI6WektorILi3EELN9__gnu_cxx12_Lock_policyE2EE4swapERS4_
FNDA:0,_ZNSt12__shared_ptrI6WektorILi3EELN9__gnu_cxx12_Lock_policyE2EE4swapERS4_
FN:1343,_ZNSt12__shared_ptrI6WektorILi3EELN9__gnu_cxx12_Lock_policyE2EEC2ISaIS1_EJRA3_dEEESt20_Sp_alloc_shared_tagIT_EDpOT0_
FNDA:0,_ZNSt12__shared_ptrI6WektorILi3EELN9__gnu_cxx12_Lock_policyE2EEC2ISaIS1_EJRA3_dEEESt20_Sp_alloc_shared_tagIT_EDpOT0_
FN:1388,_ZNSt12__shared_ptrI6WektorILi3EELN9__gnu_cxx12_Lock_policyE2EE31_M_enable_shared_from_this_withIS1_S1_EENSt9enable_ifIXntsrNS4_15__has_esft_baseIT0_vEE5valueEvE4typeEPT_
FNDA:0,_ZNSt12__shared_ptrI6WektorILi3EELN9__gnu_cxx12_Lock_policyE2EE31_M_enable_shared_from_this_withIS1_S1_EENSt9enable_ifIXntsrNS4_15__has_esft_baseIT0_vEE5valueEvE4typeEPT_
FN:1590,_ZNSt10__weak_ptrI5BrylaLN9__gnu_cxx12_Lock_policyE2EEC2Ev
FNDA:0,_ZNSt10__weak_ptrI5BrylaLN9__gnu_cxx12_Lock_policyE2EEC2Ev
FN:1596,_ZNSt10__weak_ptrI5BrylaLN9__gnu_cxx12_Lock_policyE2EED2Ev
FNDA:0,_ZNSt10__weak_ptrI5BrylaLN9__gnu_cxx12_Lock_policyE2EED2Ev
DA:117,0
DA:118,0
DA:121,0
DA:122,0
DA:121,0
DA:122,0
DA:131,0
DA:132,0
DA:138,0
DA:139,0
DA:148,0
DA:152,0
DA:155,0
DA:167,0
DA:168,0
DA:171,0
DA:174,0
DA:181,0
DA:185,0
DA:194,0
DA:196,0
DA:414,0
DA:418,0
DA:508,0
DA:511,0
DA:531,0
DA:533,0
DA:543,0
DA:544,0
DA:548,0
DA:550,0
DA:552,0
DA:552,0
DA:555,0
DA:557,0
DA:558,0
DA:562,0
DA:564,0
DA:565,0
DA:566,0
DA:567,0
DA:575,0
DA:577,0
DA:582,0
DA:583,0
DA:585,0
DA:590,0
DA:591,0
DA:594,0
DA:616,0
DA:617,0
DA:672,0
DA:676,0
DA:677,0
DA:678,0
DA:679,0
DA:680,0
DA:681,0
DA:682,0
DA:683,0
DA:684,0
DA:727,0
DA:729,0
DA:730,0
DA:731,0
DA:741,0
DA:743,0
DA:744,0
DA:746,0
DA:747,0
DA:748,0
DA:749,0
DA:750,0
DA:752,0
DA:756,0
DA:758,0
DA:759,0
DA:760,0
DA:761,0
DA:799,0
DA:800,0
DA:820,0
DA:822,0
DA:823,0
DA:824,0
DA:1080,0
DA:1118,0
DA:1119,0
DA:1120,0
DA:1169,0
DA:1176,0
DA:1177,0
DA:1179,0
DA:1180,0
DA:1181,0
DA:1263,0
DA:1265,0
DA:1266,0
DA:1324,0
DA:1326,0
DA:1327,0
DA:1328,0
DA:1343,0
DA:1344,0
DA:1345,0
DA:1388,0
DA:1389,0
DA:1590,0
DA:1591,0
DA:1592,0
DA:1596,0
end_of_record
SF:/home/mburakowski/pobiektowe/zad5_3-mburakow/include/Wektor.hh
FN:17,_ZN6WektorILi3EEC2ERS0_
FNDA:0,_ZN6WektorILi3EEC2ERS0_
FN:24,_ZN6WektorILi3EEC2ERKS0_
FNDA:0,_ZN6WektorILi3EEC2ERKS0_
FN:30,_ZN6WektorILi3EEaSERKS0_
FNDA:0,_ZN6WektorILi3EEaSERKS0_
FN:66,_ZN6WektorILi3EEC2Ev
FNDA:0,_ZN6WektorILi3EEC2Ev
FN:75,_ZN6WektorILi3EEC2EPd
FNDA:0,_ZN6WektorILi3EEC2EPd
FN:84,_ZN6WektorILi3EED2Ev
FNDA:0,_ZN6WektorILi3EED2Ev
FN:101,_ZN6WektorILi3EEixEi
FNDA:0,_ZN6WektorILi3EEixEi
DA:17,0
DA:19,0
DA:20,0
DA:22,0
DA:23,0
DA:24,0
DA:26,0
DA:27,0
DA:28,0
DA:29,0
DA:30,0
DA:32,0
DA:33,0
DA:34,0
DA:66,0
DA:68,0
DA:69,0
DA:70,0
DA:71,0
DA:72,0
DA:75,0
DA:77,0
DA:78,0
DA:79,0
DA:80,0
DA:81,0
DA:84,0
DA:86,0
DA:87,0
DA:101,0
DA:103,0
DA:105,0
DA:106,0
DA:108,0
end_of_record
SF:/usr/include/c++/9/bits/allocated_ptr.h
FN:52,_ZNSt15__allocated_ptrISaISt23_Sp_counted_ptr_inplaceI6WektorILi3EESaIS2_ELN9__gnu_cxx12_Lock_policyE2EEEEC2ERS7_PS6_
FNDA:0,_ZNSt15__allocated_ptrISaISt23_Sp_counted_ptr_inplaceI6WektorILi3EESaIS2_ELN9__gnu_cxx12_Lock_policyE2EEEEC2ERS7_PS6_
FN:70,_ZNSt15__allocated_ptrISaISt23_Sp_counted_ptr_inplaceI6WektorILi3EESaIS2_ELN9__gnu_cxx12_Lock_policyE2EEEED2Ev
FNDA:0,_ZNSt15__allocated_ptrISaISt23_Sp_counted_ptr_inplaceI6WektorILi3EESaIS2_ELN9__gnu_cxx12_Lock_policyE2EEEED2Ev
FN:78,_ZNSt15__allocated_ptrISaISt23_Sp_counted_ptr_inplaceI6WektorILi3EESaIS2_ELN9__gnu_cxx12_Lock_policyE2EEEEaSEDn
FNDA:0,_ZNSt15__allocated_ptrISaISt23_Sp_counted_ptr_inplaceI6WektorILi3EESaIS2_ELN9__gnu_cxx12_Lock_policyE2EEEEaSEDn
FN:85,_ZNSt15__allocated_ptrISaISt23_Sp_counted_ptr_inplaceI6WektorILi3EESaIS2_ELN9__gnu_cxx12_Lock_policyE2EEEE3getEv
FNDA:0,_ZNSt15__allocated_ptrISaISt23_Sp_counted_ptr_inplaceI6WektorILi3EESaIS2_ELN9__gnu_cxx12_Lock_policyE2EEEE3getEv
FN:95,_ZSt18__allocate_guardedISaISt23_Sp_counted_ptr_inplaceI6WektorILi3EESaIS2_ELN9__gnu_cxx12_Lock_policyE2EEEESt15__allocated_ptrIT_ERS9_
FNDA:0,_ZSt18__allocate_guardedISaISt23_Sp_counted_ptr_inplaceI6WektorILi3EESaIS2_ELN9__gnu_cxx12_Lock_policyE2EEEESt15__allocated_ptrIT_ERS9_
DA:52,0
DA:53,0
DA:54,0
DA:70,0
DA:72,0
DA:73,0
DA:74,0
DA:78,0
DA:80,0
DA:81,0
DA:85,0
DA:95,0
DA:97,0
end_of_record
SF:/usr/include/c++/9/bits/stl_vector.h
FN:94,_ZNSt12_Vector_baseI6WektorILi3EESaIS1_EE17_Vector_impl_dataC2Ev
FNDA:0,_ZNSt12_Vector_baseI6WektorILi3EESaIS1_EE17_Vector_impl_dataC2Ev
FN:128,_ZNSt12_Vector_baseI6WektorILi3EESaIS1_EE12_Vector_implC2Ev
FNDA:0,_ZNSt12_Vector_baseI6WektorILi3EESaIS1_EE12_Vector_implC2Ev
FN:273,_ZNSt12_Vector_baseI6WektorILi3EESaIS1_EE19_M_get_Tp_allocatorEv
FNDA:0,_ZNSt12_Vector_baseI6WektorILi3EESaIS1_EE19_M_get_Tp_allocatorEv
FN:277,_ZNKSt12_Vector_baseI6WektorILi3EESaIS1_EE19_M_get_Tp_allocatorEv
FNDA:0,_ZNKSt12_Vector_baseI6WektorILi3EESaIS1_EE19_M_get_Tp_allocatorEv
FN:285,_ZNSt12_Vector_baseI6WektorILi3EESaIS1_EEC2Ev
FNDA:0,_ZNSt12_Vector_baseI6WektorILi3EESaIS1_EEC2Ev
FN:330,_ZNSt12_Vector_baseI6WektorILi3EESaIS1_EED2Ev
FNDA:0,_ZNSt12_Vector_baseI6WektorILi3EESaIS1_EED2Ev
FN:340,_ZNSt12_Vector_baseI6WektorILi3EESaIS1_EE11_M_allocateEm
FNDA:0,_ZNSt12_Vector_baseI6WektorILi3EESaIS1_EE11_M_allocateEm
FN:347,_ZNSt12_Vector_baseI6WektorILi3EESaIS1_EE13_M_deallocateEPS1_m
FNDA:0,_ZNSt12_Vector_baseI6WektorILi3EESaIS1_EE13_M_deallocateEPS1_m
FN:484,_ZNSt6vectorI6WektorILi3EESaIS1_EEC2Ev
FNDA:0,_ZNSt6vectorI6WektorILi3EESaIS1_EEC2Ev
FN:675,_ZNSt6vectorI6WektorILi3EESaIS1_EED2Ev
FNDA:0,_ZNSt6vectorI6WektorILi3EESaIS1_EED2Ev
FN:808,_ZNSt6vectorI6WektorILi3EESaIS1_EE5beginEv
FNDA:0,_ZNSt6vectorI6WektorILi3EESaIS1_EE5beginEv
FN:817,_ZNKSt6vectorI6WektorILi3EESaIS1_EE5beginEv
FNDA:0,_ZNKSt6vectorI6WektorILi3EESaIS1_EE5beginEv
FN:826,_ZNSt6vectorI6WektorILi3EESaIS1_EE3endEv
FNDA:0,_ZNSt6vectorI6WektorILi3EESaIS1_EE3endEv
FN:835,_ZNKSt6vectorI6WektorILi3EESaIS1_EE3endEv
FNDA:0,_ZNKSt6vectorI6WektorILi3EESaIS1_EE3endEv
FN:915,_ZNKSt6vectorI6WektorILi3EESaIS1_EE4sizeEv
FNDA:0,_ZNKSt6vectorI6WektorILi3EESaIS1_EE4sizeEv
FN:920,_ZNKSt6vectorI6WektorILi3EESaIS1_EE8max_sizeEv
FNDA:0,_ZNKSt6vectorI6WektorILi3EESaIS1_EE8max_sizeEv
FN:995,_ZNKSt6vectorI6WektorILi3EESaIS1_EE8capacityEv
FNDA:0,_ZNKSt6vectorI6WektorILi3EESaIS1_EE8capacityEv
FN:1040,_ZNSt6vectorI6WektorILi3EESaIS1_EEixEm
FNDA:0,_ZNSt6vectorI6WektorILi3EESaIS1_EEixEm
FN:1184,_ZNSt6vectorI6WektorILi3EESaIS1_EE9push_backERKS1_
FNDA:0,_ZNSt6vectorI6WektorILi3EESaIS1_EE9push_backERKS1_
FN:1495,_ZNSt6vectorI6WektorILi3EESaIS1_EE5clearEv
FNDA:0,_ZNSt6vectorI6WektorILi3EESaIS1_EE5clearEv
FN:1505,_ZNSt6vectorI6WektorILi3EESaIS1_EE20_M_allocate_and_copyIN9__gnu_cxx17__normal_iteratorIPKS1_S3_EEEEPS1_mT_SB_
FNDA:0,_ZNSt6vectorI6WektorILi3EESaIS1_EE20_M_allocate_and_copyIN9__gnu_cxx17__normal_iteratorIPKS1_S3_EEEEPS1_mT_SB_
FN:1753,_ZNKSt6vectorI6WektorILi3EESaIS1_EE12_M_check_lenEmPKc
FNDA:0,_ZNKSt6vectorI6WektorILi3EESaIS1_EE12_M_check_lenEmPKc
FN:1773,_ZNSt6vectorI6WektorILi3EESaIS1_EE11_S_max_sizeERKS2_
FNDA:0,_ZNSt6vectorI6WektorILi3EESaIS1_EE11_S_max_sizeERKS2_
FN:1789,_ZNSt6vectorI6WektorILi3EESaIS1_EE15_M_erase_at_endEPS1_
FNDA:0,_ZNSt6vectorI6WektorILi3EESaIS1_EE15_M_erase_at_endEPS1_
DA:94,0
DA:95,0
DA:96,0
DA:128,0
DA:130,0
DA:131,0
DA:273,0
DA:274,0
DA:277,0
DA:278,0
DA:285,0
DA:330,0
DA:332,0
DA:333,0
DA:334,0
DA:340,0
DA:343,0
DA:347,0
DA:350,0
DA:351,0
DA:352,0
DA:484,0
DA:675,0
DA:677,0
DA:678,0
DA:680,0
DA:808,0
DA:809,0
DA:817,0
DA:818,0
DA:826,0
DA:827,0
DA:835,0
DA:836,0
DA:915,0
DA:916,0
DA:920,0
DA:921,0
DA:995,0
DA:996,0
DA:997,0
DA:1040,0
DA:1043,0
DA:1184,0
DA:1186,0
DA:1189,0
DA:1191,0
DA:1195,0
DA:1196,0
DA:1495,0
DA:1496,0
DA:1505,0
DA:1508,0
DA:1511,0
DA:1512,0
DA:1513,0
DA:1515,0
DA:1517,0
DA:1518,0
DA:1753,0
DA:1755,0
DA:1756,0
DA:1758,0
DA:1759,0
DA:1773,0
DA:1778,0
DA:1780,0
DA:1781,0
DA:1789,0
DA:1791,0
DA:1793,0
DA:1794,0
DA:1795,0
DA:1798,0
end_of_record
SF:/usr/include/c++/9/new
FN:173,_ZnwmPv
FNDA:0,_ZnwmPv
FN:179,_ZdlPvS_
FNDA:0,_ZdlPvS_
DA:173,0
DA:174,0
DA:179,0
end_of_record
SF:/usr/include/c++/9/ext/new_allocator.h
FN:80,_ZN9__gnu_cxx13new_allocatorISt23_Sp_counted_ptr_inplaceI6WektorILi3EESaIS3_ELNS_12_Lock_policyE2EEEC2Ev
FNDA:0,_ZN9__gnu_cxx13new_allocatorISt23_Sp_counted_ptr_inplaceI6WektorILi3EESaIS3_ELNS_12_Lock_policyE2EEEC2Ev
FN:80,_ZN9__gnu_cxx13new_allocatorI6WektorILi3EEEC2Ev
FNDA:0,_ZN9__gnu_cxx13new_allocatorI6WektorILi3EEEC2Ev
FN:80,_ZN9__gnu_cxx13new_allocatorIcEC2Ev
FNDA:0,_ZN9__gnu_cxx13new_allocatorIcEC2Ev
FN:83,_ZN9__gnu_cxx13new_allocatorI6WektorILi3EEEC2ERKS3_
FNDA:0,_ZN9__gnu_cxx13new_allocatorI6WektorILi3EEEC2ERKS3_
FN:89,_ZN9__gnu_cxx13new_allocatorISt23_Sp_counted_ptr_inplaceI6WektorILi3EESaIS3_ELNS_12_Lock_policyE2EEED2Ev
FNDA:0,_ZN9__gnu_cxx13new_allocatorISt23_Sp_counted_ptr_inplaceI6WektorILi3EESaIS3_ELNS_12_Lock_policyE2EEED2Ev
FN:89,_ZN9__gnu_cxx13new_allocatorI6WektorILi3EEED2Ev
FNDA:0,_ZN9__gnu_cxx13new_allocatorI6WektorILi3EEED2Ev
FN:89,_ZN9__gnu_cxx13new_allocatorIcED2Ev
FNDA:0,_ZN9__gnu_cxx13new_allocatorIcED2Ev
FN:102,_ZN9__gnu_cxx13new_allocatorISt23_Sp_counted_ptr_inplaceI6WektorILi3EESaIS3_ELNS_12_Lock_policyE2EEE8allocateEmPKv
FNDA:0,_ZN9__gnu_cxx13new_allocatorISt23_Sp_counted_ptr_inplaceI6WektorILi3EESaIS3_ELNS_12_Lock_policyE2EEE8allocateEmPKv
FN:102,_ZN9__gnu_cxx13new_allocatorI6WektorILi3EEE8allocateEmPKv
FNDA:0,_ZN9__gnu_cxx13new_allocatorI6WektorILi3EEE8allocateEmPKv
FN:119,_ZN9__gnu_cxx13new_allocatorISt23_Sp_counted_ptr_inplaceI6WektorILi3EESaIS3_ELNS_12_Lock_policyE2EEE10deallocateEPS6_m
FNDA:0,_ZN9__gnu_cxx13new_allocatorISt23_Sp_counted_ptr_inplaceI6WektorILi3EESaIS3_ELNS_12_Lock_policyE2EEE10deallocateEPS6_m
FN:119,_ZN9__gnu_cxx13new_allocatorI6WektorILi3EEE10deallocateEPS2_m
FNDA:0,_ZN9__gnu_cxx13new_allocatorI6WektorILi3EEE10deallocateEPS2_m
FN:132,_ZNK9__gnu_cxx13new_allocatorISt23_Sp_counted_ptr_inplaceI6WektorILi3EESaIS3_ELNS_12_Lock_policyE2EEE8max_sizeEv
FNDA:0,_ZNK9__gnu_cxx13new_allocatorISt23_Sp_counted_ptr_inplaceI6WektorILi3EESaIS3_ELNS_12_Lock_policyE2EEE8max_sizeEv
FN:132,_ZNK9__gnu_cxx13new_allocatorI6WektorILi3EEE8max_sizeEv
FNDA:0,_ZNK9__gnu_cxx13new_allocatorI6WektorILi3EEE8max_sizeEv
FN:144,_ZN9__gnu_cxx13new_allocatorI6WektorILi3EEE9constructIS2_JRA3_dEEEvPT_DpOT0_
FNDA:0,_ZN9__gnu_cxx13new_allocatorI6WektorILi3EEE9constructIS2_JRA3_dEEEvPT_DpOT0_
FN:144,_ZN9__gnu_cxx13new_allocatorI6WektorILi3EEE9constructIS2_JRKS2_EEEvPT_DpOT0_
FNDA:0,_ZN9__gnu_cxx13new_allocatorI6WektorILi3EEE9constructIS2_JRKS2_EEEvPT_DpOT0_
FN:151,_ZN9__gnu_cxx13new_allocatorI6WektorILi3EEE7destroyIS2_EEvPT_
FNDA:0,_ZN9__gnu_cxx13new_allocatorI6WektorILi3EEE7destroyIS2_EEvPT_
DA:80,0
DA:80,0
DA:80,0
DA:83,0
DA:89,0
DA:89,0
DA:89,0
DA:102,0
DA:104,0
DA:105,0
DA:114,0
DA:102,0
DA:104,0
DA:105,0
DA:114,0
DA:119,0
DA:128,0
DA:119,0
DA:128,0
DA:132,0
DA:135,0
DA:132,0
DA:135,0
DA:144,0
DA:147,0
DA:144,0
DA:147,0
DA:151,0
DA:153,0
end_of_record
SF:/usr/include/c++/9/bits/alloc_traits.h
FN:443,_ZNSt16allocator_traitsISaISt23_Sp_counted_ptr_inplaceI6WektorILi3EESaIS2_ELN9__gnu_cxx12_Lock_policyE2EEEE8allocateERS7_m
FNDA:0,_ZNSt16allocator_traitsISaISt23_Sp_counted_ptr_inplaceI6WektorILi3EESaIS2_ELN9__gnu_cxx12_Lock_policyE2EEEE8allocateERS7_m
FN:443,_ZNSt16allocator_traitsISaI6WektorILi3EEEE8allocateERS2_m
FNDA:0,_ZNSt16allocator_traitsISaI6WektorILi3EEEE8allocateERS2_m
FN:469,_ZNSt16allocator_traitsISaISt23_Sp_counted_ptr_inplaceI6WektorILi3EESaIS2_ELN9__gnu_cxx12_Lock_policyE2EEEE10deallocateERS7_PS6_m
FNDA:0,_ZNSt16allocator_traitsISaISt23_Sp_counted_ptr_inplaceI6WektorILi3EESaIS2_ELN9__gnu_cxx12_Lock_policyE2EEEE10deallocateERS7_PS6_m
FN:469,_ZNSt16allocator_traitsISaI6WektorILi3EEEE10deallocateERS2_PS1_m
FNDA:0,_ZNSt16allocator_traitsISaI6WektorILi3EEEE10deallocateERS2_PS1_m
FN:482,_ZNSt16allocator_traitsISaI6WektorILi3EEEE9constructIS1_JRA3_dEEEvRS2_PT_DpOT0_
FNDA:0,_ZNSt16allocator_traitsISaI6WektorILi3EEEE9constructIS1_JRA3_dEEEvRS2_PT_DpOT0_
FN:482,_ZNSt16allocator_traitsISaI6WektorILi3EEEE9constructIS1_JRKS1_EEEvRS2_PT_DpOT0_
FNDA:0,_ZNSt16allocator_traitsISaI6WektorILi3EEEE9constructIS1_JRKS1_EEEvRS2_PT_DpOT0_
FN:495,_ZNSt16allocator_traitsISaI6WektorILi3EEEE7destroyIS1_EEvRS2_PT_
FNDA:0,_ZNSt16allocator_traitsISaI6WektorILi3EEEE7destroyIS1_EEvRS2_PT_
FN:505,_ZNSt16allocator_traitsISaI6WektorILi3EEEE8max_sizeERKS2_
FNDA:0,_ZNSt16allocator_traitsISaI6WektorILi3EEEE8max_sizeERKS2_
FN:526,_ZSt18__do_alloc_on_copyISaI6WektorILi3EEEEvRT_RKS3_St17integral_constantIbLb0EE
FNDA:0,_ZSt18__do_alloc_on_copyISaI6WektorILi3EEEEvRT_RKS3_St17integral_constantIbLb0EE
FN:530,_ZSt15__alloc_on_copyISaI6WektorILi3EEEEvRT_RKS3_
FNDA:0,_ZSt15__alloc_on_copyISaI6WektorILi3EEEEvRT_RKS3_
DA:443,0
DA:444,0
DA:443,0
DA:444,0
DA:469,0
DA:470,0
DA:469,0
DA:470,0
DA:482,0
DA:484,0
DA:482,0
DA:484,0
DA:495,0
DA:497,0
DA:505,0
DA:506,0
DA:526,0
DA:527,0
DA:530,0
DA:534,0
DA:535,0
end_of_record
SF:/usr/include/c++/9/typeinfo
FN:120,_ZNKSt9type_infoeqERKS_
FNDA:0,_ZNKSt9type_infoeqERKS_
DA:120,0
DA:122,0
DA:123,0
DA:124,0
end_of_record
SF:/usr/include/x86_64-linux-gnu/c++/9/bits/gthr-default.h
FN:248,_ZL18__gthread_active_pv
FNDA:0,_ZL18__gthread_active_pv
DA:248,0
DA:252,0
end_of_record
SF:/home/mburakowski/pobiektowe/zad5_3-mburakow/include/Obiekt_Sceny.hh
end_of_record
SF:/usr/include/c++/9/ext/atomicity.h
FN:48,_ZN9__gnu_cxxL18__exchange_and_addEPVii
FNDA:0,_ZN9__gnu_cxxL18__exchange_and_addEPVii
FN:52,_ZN9__gnu_cxxL12__atomic_addEPVii
FNDA:0,_ZN9__gnu_cxxL12__atomic_addEPVii
FN:65,_ZN9__gnu_cxxL25__exchange_and_add_singleEPii
FNDA:0,_ZN9__gnu_cxxL25__exchange_and_add_singleEPii
FN:73,_ZN9__gnu_cxxL19__atomic_add_singleEPii
FNDA:0,_ZN9__gnu_cxxL19__atomic_add_singleEPii
FN:78,_ZN9__gnu_cxxL27__exchange_and_add_dispatchEPii
FNDA:0,_ZN9__gnu_cxxL27__exchange_and_add_dispatchEPii
FN:92,_ZN9__gnu_cxxL21__atomic_add_dispatchEPii
FNDA:0,_ZN9__gnu_cxxL21__atomic_add_dispatchEPii
DA:48,0
DA:49,0
DA:52,0
DA:53,0
DA:65,0
DA:67,0
DA:68,0
DA:69,0
DA:73,0
DA:74,0
DA:78,0
DA:81,0
DA:82,0
DA:84,0
DA:92,0
DA:95,0
DA:96,0
DA:98,0
DA:102,0
end_of_record
SF:/home/mburakowski/pobiektowe/zad5_3-mburakow/src/Gran.cpp
FN:3,_ZN4GranC2E6WektorILi3EEdddNSt7__cxx1112basic_stringIcSt11char_traitsIcESaIcEEE
FNDA:0,_ZN4GranC2E6WektorILi3EEdddNSt7__cxx1112basic_stringIcSt11char_traitsIcESaIcEEE
FN:60,_ZN4GranC2ERS_
FNDA:0,_ZN4GranC2ERS_
DA:3,0
DA:5,0
DA:6,0
DA:7,0
DA:8,0
DA:10,0
DA:12,0
DA:13,0
DA:14,0
DA:15,0
DA:17,0
DA:18,0
DA:19,0
DA:20,0
DA:23,0
DA:24,0
DA:25,0
DA:26,0
DA:28,0
DA:29,0
DA:30,0
DA:31,0
DA:33,0
DA:34,0
DA:35,0
DA:36,0
DA:38,0
DA:39,0
DA:40,0
DA:41,0
DA:44,0
DA:45,0
DA:46,0
DA:47,0
DA:49,0
DA:50,0
DA:51,0
DA:52,0
DA:54,0
DA:55,0
DA:56,0
DA:58,0
DA:60,0
DA:62,0
DA:63,0
DA:64,0
DA:65,0
DA:66,0
end_of_record
SF:/usr/include/c++/9/ext/alloc_traits.h
FN:103,_ZN9__gnu_cxx14__alloc_traitsISaI6WektorILi3EEES2_E27_S_propagate_on_copy_assignEv
FNDA:0,_ZN9__gnu_cxx14__alloc_traitsISaI6WektorILi3EEES2_E27_S_propagate_on_copy_assignEv
FN:112,_ZN9__gnu_cxx14__alloc_traitsISaI6WektorILi3EEES2_E15_S_always_equalEv
FNDA:0,_ZN9__gnu_cxx14__alloc_traitsISaI6WektorILi3EEES2_E15_S_always_equalEv
DA:103,0
DA:104,0
DA:112,0
DA:113,0
end_of_record
SF:/usr/include/c++/9/cmath
FN:415,_ZSt3powIdiEN9__gnu_cxx11__promote_2IT_T0_NS0_9__promoteIS2_XsrSt12__is_integerIS2_E7__valueEE6__typeENS4_IS3_XsrS5_IS3_E7__valueEE6__typeEE6__typeES2_S3_
FNDA:0,_ZSt3powIdiEN9__gnu_cxx11__promote_2IT_T0_NS0_9__promoteIS2_XsrSt12__is_integerIS2_E7__valueEE6__typeENS4_IS3_XsrS5_IS3_E7__valueEE6__typeEE6__typeES2_S3_
DA:415,0
DA:418,0
end_of_record
SF:/usr/include/c++/9/bits/stl_algobase.h
FN:198,_ZSt3minImERKT_S2_S2_
FNDA:0,_ZSt3minImERKT_S2_S2_
FN:222,_ZSt3maxImERKT_S2_S2_
FNDA:0,_ZSt3maxImERKT_S2_S2_
FN:280,_ZSt12__niter_baseIP6WektorILi3EEET_S3_
FNDA:0,_ZSt12__niter_baseIP6WektorILi3EEET_S3_
FN:289,_ZSt12__niter_wrapIN9__gnu_cxx17__normal_iteratorIP6WektorILi3EESt6vectorIS3_SaIS3_EEEES4_ET_S9_T0_
FNDA:0,_ZSt12__niter_wrapIN9__gnu_cxx17__normal_iteratorIP6WektorILi3EESt6vectorIS3_SaIS3_EEEES4_ET_S9_T0_
FN:295,_ZSt12__niter_wrapIP6WektorILi3EEET_RKS3_S3_
FNDA:0,_ZSt12__niter_wrapIP6WektorILi3EEET_RKS3_S3_
